# SymbolsHelper-Confirmed: 4:4.12.80 amd64
libastro.so.1 libastro1 #MINVER#
 _Z11JupCallistodR4Vec3S0_@Base 4:4.12.80
 _Z11JupGanymededR4Vec3S0_@Base 4:4.12.80
 _Z11PosCallistod@Base 4:4.12.80
 _Z11PosGanymeded@Base 4:4.12.80
 _Z3dddiid@Base 4:4.12.80
 _Z3dmsdRiS_Rd@Base 4:4.12.80
 _Z3epsd@Base 4:4.12.80
 _Z3mjdiiid@Base 4:4.12.80
 _Z5JupIodR4Vec3S0_@Base 4:4.12.80
 _Z5ellipddddddR4Vec3S0_@Base 4:4.12.80
 _Z5parabdddddR4Vec3S0_@Base 4:4.12.80
 _Z6AppPosdddddi4Vec3RdS0_S0_@Base 4:4.12.80
 _Z6EquHordddd4Vec3@Base 4:4.12.80
 _Z6GeoPosddddd@Base 4:4.12.80
 _Z6GeoPosddddddd@Base 4:4.12.80
 _Z6HorEqudddd4Vec3@Base 4:4.12.80
 _Z6PoleMxdd@Base 4:4.12.80
 _Z6PosJIod@Base 4:4.12.80
 _Z6atan20dd@Base 4:4.12.80
 _Z6caldatdRiS_S_Rd@Base 4:4.12.80
 _Z6eclequdR4Vec3@Base 4:4.12.80
 _Z6equecldR4Vec3@Base 4:4.12.80
 _Z6hyperbdddddR4Vec3S0_@Base 4:4.12.80
 _Z6keplerdddddddddR4Vec3S0_@Base 4:4.12.80
 _Z6nutecldRd@Base 4:4.12.80
 _Z6nutmatdRdb@Base 4:4.12.80
 _Z6oscelmddR4Vec3S0_RdS1_S1_S1_S1_S1_S1_@Base 4:4.12.80
 _Z7DefTdUti@Base 4:4.12.80
 _Z7Refractddd@Base 4:4.12.80
 _Z7SatRheadR4Vec3S0_@Base 4:4.12.80
 _Z7aberratdR4Vec3@Base 4:4.12.80
 _Z7eccanomdd@Base 4:4.12.80
 _Z7hypanomdd@Base 4:4.12.80
 _Z7julcentd@Base 4:4.12.80
 _Z7lsidtimddd@Base 4:4.12.80
 _Z7pmatecldd@Base 4:4.12.80
 _Z7pmatequdd@Base 4:4.12.80
 _Z8AppRADecddddddRdS_@Base 4:4.12.80
 _Z8QuickSund@Base 4:4.12.80
 _Z8SatTitandR4Vec3S0_@Base 4:4.12.80
 _Z9JupEuropadR4Vec3S0_@Base 4:4.12.80
 _Z9MarDeimosdR4Vec3S0_@Base 4:4.12.80
 _Z9MarPhobosdR4Vec3S0_@Base 4:4.12.80
 _Z9NepTritondR4Vec3S0_@Base 4:4.12.80
 _Z9PluCharondR4Vec3S0_@Base 4:4.12.80
 _Z9PosEuropad@Base 4:4.12.80
 _ZN11SolarSystem10getJupiterERdS0_@Base 4:4.12.80
 _ZN11SolarSystem10getMercuryERdS0_@Base 4:4.12.80
 _ZN11SolarSystem10getNeptuneERdS0_@Base 4:4.12.80
 _ZN11SolarSystem10getPhysSunERdS0_@Base 4:4.12.80
 _ZN11SolarSystem10getPlanMatEv@Base 4:4.12.80
 _ZN11SolarSystem11MoonDetailsEv@Base 4:4.12.80
 _ZN11SolarSystem11getCometMagEdd@Base 4:4.12.80
 _ZN11SolarSystem11getConstSunEv@Base 4:4.12.80
 _ZN11SolarSystem11getDiamMoonEv@Base 4:4.12.80
 _ZN11SolarSystem11getDistanceEv@Base 4:4.12.80
 _ZN11SolarSystem11getPhysMarsERdS0_S0_@Base 4:4.12.80
 _ZN11SolarSystem11setNutationEb@Base 4:4.12.80
 _ZN11SolarSystem11setTimezoneEd@Base 4:4.12.80
 _ZN11SolarSystem11updateSolarEv@Base 4:4.12.80
 _ZN11SolarSystem12getConstMarsEv@Base 4:4.12.80
 _ZN11SolarSystem12getConstMoonEv@Base 4:4.12.80
 _ZN11SolarSystem12getPhysEarthERdS0_S0_@Base 4:4.12.80
 _ZN11SolarSystem12getPhysVenusERdS0_S0_@Base 4:4.12.80
 _ZN11SolarSystem13getConstEarthEv@Base 4:4.12.80
 _ZN11SolarSystem13getConstVenusEv@Base 4:4.12.80
 _ZN11SolarSystem13getLunarPhaseERdS0_S0_@Base 4:4.12.80
 _ZN11SolarSystem13getPhysSaturnERdS0_S0_@Base 4:4.12.80
 _ZN11SolarSystem13getPhysUranusERdS0_S0_@Base 4:4.12.80
 _ZN11SolarSystem13setCurrentMJDEiiiiid@Base 4:4.12.80
 _ZN11SolarSystem13setCurrentMJDEv@Base 4:4.12.80
 _ZN11SolarSystem14getAsteroidMagEdd@Base 4:4.12.80
 _ZN11SolarSystem14getConstSaturnEv@Base 4:4.12.80
 _ZN11SolarSystem14getConstUranusEv@Base 4:4.12.80
 _ZN11SolarSystem14getPhysJupiterERdS0_S0_@Base 4:4.12.80
 _ZN11SolarSystem14getPhysMercuryERdS0_S0_@Base 4:4.12.80
 _ZN11SolarSystem14getPhysNeptuneERdS0_S0_@Base 4:4.12.80
 _ZN11SolarSystem14setAutoTAI_UTCEv@Base 4:4.12.80
 _ZN11SolarSystem14setCentralBodyEPKc@Base 4:4.12.80
 _ZN11SolarSystem15getConstJupiterEv@Base 4:4.12.80
 _ZN11SolarSystem15getConstMercuryEv@Base 4:4.12.80
 _ZN11SolarSystem15getConstNeptuneEv@Base 4:4.12.80
 _ZN11SolarSystem15setDeltaTAI_UTCEd@Base 4:4.12.80
 _ZN11SolarSystem16getOrbitPositionERdS0_@Base 4:4.12.80
 _ZN11SolarSystem16putOrbitElementsEddddddd@Base 4:4.12.80
 _ZN11SolarSystem17getLunarLibrationERdS0_S0_@Base 4:4.12.80
 _ZN11SolarSystem17getPlanetocentricEdd@Base 4:4.12.80
 _ZN11SolarSystem17getPlanetographicEddRdS0_@Base 4:4.12.80
 _ZN11SolarSystem19putEllipticElementsEdddddddd@Base 4:4.12.80
 _ZN11SolarSystem6atan23Edd@Base 4:4.12.80
 _ZN11SolarSystem6getSunERdS0_@Base 4:4.12.80
 _ZN11SolarSystem6ssinitEv@Base 4:4.12.80
 _ZN11SolarSystem7DefTimeEv@Base 4:4.12.80
 _ZN11SolarSystem7DegFDmsEd@Base 4:4.12.80
 _ZN11SolarSystem7DmsDegFEd@Base 4:4.12.80
 _ZN11SolarSystem7getMarsERdS0_@Base 4:4.12.80
 _ZN11SolarSystem7getMoonERdS0_@Base 4:4.12.80
 _ZN11SolarSystem8MoonLibrEd4Vec3S0_RdS1_S1_@Base 4:4.12.80
 _ZN11SolarSystem8getEarthERdS0_@Base 4:4.12.80
 _ZN11SolarSystem8getRaDecE4Vec3RdS1_@Base 4:4.12.80
 _ZN11SolarSystem8getVenusERdS0_@Base 4:4.12.80
 _ZN11SolarSystem8setEpochEd@Base 4:4.12.80
 _ZN11SolarSystem9getSaturnERdS0_@Base 4:4.12.80
 _ZN11SolarSystem9getUranusERdS0_@Base 4:4.12.80
 _ZN11SolarSystemC1Ev@Base 4:4.12.80
 _ZN11SolarSystemC2Ev@Base 4:4.12.80
 _ZN11SolarSystemD1Ev@Base 4:4.12.80
 _ZN11SolarSystemD2Ev@Base 4:4.12.80
 _ZN13PlanetarySats10currentPosEv@Base 4:4.12.80
 _ZN13PlanetarySats10getMercuryEv@Base 4:4.12.80
 _ZN13PlanetarySats10setDeltaRTEd@Base 4:4.12.80
 _ZN13PlanetarySats10setSatFileEPc@Base 4:4.12.80
 _ZN13PlanetarySats12setStepWidthEd@Base 4:4.12.80
 _ZN13PlanetarySats13getFixedFrameERdS0_S0_S0_S0_S0_@Base 4:4.12.80
 _ZN13PlanetarySats13stateToKeplerEv@Base 4:4.12.80
 _ZN13PlanetarySats14getDatefromMJDEdRiS0_S0_S0_S0_Rd@Base 4:4.12.80
 _ZN13PlanetarySats14getStateVectorEi@Base 4:4.12.80
 _ZN13PlanetarySats14setAutoTAI_UTCEv@Base 4:4.12.80
 _ZN13PlanetarySats14setStateVectorEddddddd@Base 4:4.12.80
 _ZN13PlanetarySats15setDeltaTAI_UTCEd@Base 4:4.12.80
 _ZN13PlanetarySats16getSelenographicEd@Base 4:4.12.80
 _ZN13PlanetarySats17getKeplerElementsERdS0_S0_S0_S0_S0_S0_S0_S0_@Base 4:4.12.80
 _ZN13PlanetarySats6atan23Edd@Base 4:4.12.80
 _ZN13PlanetarySats6setMJDEiiiiid@Base 4:4.12.80
 _ZN13PlanetarySats7getMarsEv@Base 4:4.12.80
 _ZN13PlanetarySats7getMoonEv@Base 4:4.12.80
 _ZN13PlanetarySats7getTimeEv@Base 4:4.12.80
 _ZN13PlanetarySats8getVenusEv@Base 4:4.12.80
 _ZN13PlanetarySats8nextStepEv@Base 4:4.12.80
 _ZN13PlanetarySats9getSatPosEd@Base 4:4.12.80
 _ZN13PlanetarySats9plsatinitEv@Base 4:4.12.80
 _ZN13PlanetarySats9selectSatEPc@Base 4:4.12.80
 _ZN13PlanetarySats9setPlanetEPc@Base 4:4.12.80
 _ZN13PlanetarySatsC1Ev@Base 4:4.12.80
 _ZN13PlanetarySatsC2Ev@Base 4:4.12.80
 _ZN13PlanetarySatsD1Ev@Base 4:4.12.80
 _ZN13PlanetarySatsD2Ev@Base 4:4.12.80
 _ZN4Mat36PutMijEdii@Base 4:4.12.80
 _ZN4Mat36assignEPA3_d@Base 4:4.12.80
 _ZN4Mat36assignEddddddddd@Base 4:4.12.80
 _ZN4Mat3C1ERKS_@Base 4:4.12.80
 _ZN4Mat3C1Ed@Base 4:4.12.80
 _ZN4Mat3C2ERKS_@Base 4:4.12.80
 _ZN4Mat3C2Ed@Base 4:4.12.80
 _ZN4Mat3aSERKS_@Base 4:4.12.80
 _ZN4Mat3dVEd@Base 4:4.12.80
 _ZN4Mat3mIERKS_@Base 4:4.12.80
 _ZN4Mat3mLERKS_@Base 4:4.12.80
 _ZN4Mat3mLEd@Base 4:4.12.80
 _ZN4Mat3pLERKS_@Base 4:4.12.80
 _ZN4Vec36assignEddd@Base 4:4.12.80
 _ZN4Vec3C1ERKS_@Base 4:4.12.80
 _ZN4Vec3C1Eddd@Base 4:4.12.80
 _ZN4Vec3C2ERKS_@Base 4:4.12.80
 _ZN4Vec3C2Eddd@Base 4:4.12.80
 _ZN4Vec3aSERKS_@Base 4:4.12.80
 _ZN4Vec3dVEd@Base 4:4.12.80
 _ZN4Vec3ixEj@Base 4:4.12.80
 _ZN4Vec3mIERKS_@Base 4:4.12.80
 _ZN4Vec3mLERKS_@Base 4:4.12.80
 _ZN4Vec3mLEd@Base 4:4.12.80
 _ZN4Vec3pLERKS_@Base 4:4.12.80
 _ZN6Sun2004termEiiidddddd@Base 4:4.12.80
 _ZN6Sun2005stateEdR4Vec3S1_@Base 4:4.12.80
 _ZN6Sun2006addtheEddddRdS0_@Base 4:4.12.80
 _ZN6Sun2007pertjupEv@Base 4:4.12.80
 _ZN6Sun2007pertmarEv@Base 4:4.12.80
 _ZN6Sun2007pertmooEv@Base 4:4.12.80
 _ZN6Sun2007pertsatEv@Base 4:4.12.80
 _ZN6Sun2007pertvenEv@Base 4:4.12.80
 _ZN6Sun2008positionEd@Base 4:4.12.80
 _ZN6Sun200C1Ev@Base 4:4.12.80
 _ZN6Sun200C2Ev@Base 4:4.12.80
 _ZN7Eclipse12equ_sun_moonEdd@Base 4:4.12.80
 _ZN7Eclipse5lunarEdd@Base 4:4.12.80
 _ZN7Eclipse5solarEddRdS0_@Base 4:4.12.80
 _ZN7Eclipse5umbraEddR4Vec3S1_RdS2_@Base 4:4.12.80
 _ZN7Eclipse6maxposEddRdS0_@Base 4:4.12.80
 _ZN7Eclipse6penumdEddR4Vec3S1_RdS2_@Base 4:4.12.80
 _ZN7Eclipse8durationEddRd@Base 4:4.12.80
 _ZN7EclipseC1Ev@Base 4:4.12.80
 _ZN7EclipseC2Ev@Base 4:4.12.80
 _ZN7Moon20013long_periodicEd@Base 4:4.12.80
 _ZN7Moon2005minitEd@Base 4:4.12.80
 _ZN7Moon2005sinusEd@Base 4:4.12.80
 _ZN7Moon2006addsolEddddiiii@Base 4:4.12.80
 _ZN7Moon2006addtheEddddRdS0_@Base 4:4.12.80
 _ZN7Moon2006solar1Ev@Base 4:4.12.80
 _ZN7Moon2006solar2Ev@Base 4:4.12.80
 _ZN7Moon2006solar3Ev@Base 4:4.12.80
 _ZN7Moon2008positionEd@Base 4:4.12.80
 _ZN7Moon2009planetaryEd@Base 4:4.12.80
 _ZN7Moon200C1Ev@Base 4:4.12.80
 _ZN7Moon200C2Ev@Base 4:4.12.80
 _ZN7Plan2004MarsEd@Base 4:4.12.80
 _ZN7Plan2004termEiiidddddd@Base 4:4.12.80
 _ZN7Plan2005PlutoEd@Base 4:4.12.80
 _ZN7Plan2005VenusEd@Base 4:4.12.80
 _ZN7Plan2006SaturnEd@Base 4:4.12.80
 _ZN7Plan2006UranusEd@Base 4:4.12.80
 _ZN7Plan2006addtheEddddRdS0_@Base 4:4.12.80
 _ZN7Plan2006posvelEv@Base 4:4.12.80
 _ZN7Plan2007JupiterEd@Base 4:4.12.80
 _ZN7Plan2007MercuryEd@Base 4:4.12.80
 _ZN7Plan2007NeptuneEd@Base 4:4.12.80
 _ZN7Plan200C1Ev@Base 4:4.12.80
 _ZN7Plan200C2Ev@Base 4:4.12.80
 _ZN8EclSolar10calcMaxPosERdS0_@Base 4:4.12.80
 _ZN8EclSolar10getPartialERdS0_@Base 4:4.12.80
 _ZN8EclSolar10localStartEiPdS0_PiiPc@Base 4:4.12.80
 _ZN8EclSolar10sunObscureEddd@Base 4:4.12.80
 _ZN8EclSolar11getLocalMaxERdS0_S0_@Base 4:4.12.80
 _ZN8EclSolar11getPenumbraERdS0_@Base 4:4.12.80
 _ZN8EclSolar11previousEclEv@Base 4:4.12.80
 _ZN8EclSolar11setLocalPosEddd@Base 4:4.12.80
 _ZN8EclSolar11setLunarEclEb@Base 4:4.12.80
 _ZN8EclSolar11setTimezoneEd@Base 4:4.12.80
 _ZN8EclSolar12centralBoundEbRdS0_S0_S0_@Base 4:4.12.80
 _ZN8EclSolar12putEclSelectEi@Base 4:4.12.80
 _ZN8EclSolar12setStepWidthEd@Base 4:4.12.80
 _ZN8EclSolar13eclPltCentralEbRdS0_@Base 4:4.12.80
 _ZN8EclSolar13getLocalTotalERdS0_@Base 4:4.12.80
 _ZN8EclSolar13getShadowConeEdbiPdS0_@Base 4:4.12.80
 _ZN8EclSolar13setCurrentMJDEiiiiid@Base 4:4.12.80
 _ZN8EclSolar14getEclYearInfoEPc@Base 4:4.12.80
 _ZN8EclSolar14getEclYearInfoEiRiS0_S0_S0_S0_RdS1_S1_@Base 4:4.12.80
 _ZN8EclSolar14setAutoTAI_UTCEv@Base 4:4.12.80
 _ZN8EclSolar15getLocalDetailsEPc@Base 4:4.12.80
 _ZN8EclSolar15setDeltaTAI_UTCEd@Base 4:4.12.80
 _ZN8EclSolar16getNumberEclYearEv@Base 4:4.12.80
 _ZN8EclSolar16setPenumbraAngleEdi@Base 4:4.12.80
 _ZN8EclSolar18getLocalVisibilityERdS0_@Base 4:4.12.80
 _ZN8EclSolar5iscrsEdddRdS0_S0_S0_@Base 4:4.12.80
 _ZN8EclSolar5phmjdEdddRiRdS1_@Base 4:4.12.80
 _ZN8EclSolar6atan23Edd@Base 4:4.12.80
 _ZN8EclSolar6dtmstrEdPc@Base 4:4.12.80
 _ZN8EclSolar6esinitEv@Base 4:4.12.80
 _ZN8EclSolar6moonphEv@Base 4:4.12.80
 _ZN8EclSolar7DefTimeEv@Base 4:4.12.80
 _ZN8EclSolar7DegFDmsEd@Base 4:4.12.80
 _ZN8EclSolar7ckphaseEddddRiPdd@Base 4:4.12.80
 _ZN8EclSolar7nextEclEv@Base 4:4.12.80
 _ZN8EclSolar7putYearEi@Base 4:4.12.80
 _ZN8EclSolar8GNSBoundEbbRdS0_@Base 4:4.12.80
 _ZN8EclSolar8GRSBoundEbRdS0_S0_S0_@Base 4:4.12.80
 _ZN8EclSolar8GetMonthEiPc@Base 4:4.12.80
 _ZN8EclSolar8eclStartEv@Base 4:4.12.80
 _ZN8EclSolar8getTotalERdS0_@Base 4:4.12.80
 _ZN8EclSolar9InRSBoundEv@Base 4:4.12.80
 _ZN8EclSolar9InitBoundEv@Base 4:4.12.80
 _ZN8EclSolar9getEclTxtEiPc@Base 4:4.12.80
 _ZN8EclSolar9getMaxPosERdS0_@Base 4:4.12.80
 _ZN8EclSolar9getlocmagEddddd4Vec3S0_Ri@Base 4:4.12.80
 _ZN8EclSolar9navCourseEdddd@Base 4:4.12.80
 _ZN8EclSolar9navNewPosEddddRdS0_@Base 4:4.12.80
 _ZN8EclSolarC1Ev@Base 4:4.12.80
 _ZN8EclSolarC2Ev@Base 4:4.12.80
 _ZN8EclSolarD1Ev@Base 4:4.12.80
 _ZN8EclSolarD2Ev@Base 4:4.12.80
 _ZNK11SolarSystem14getDatefromMJDEdRiS0_S0_S0_S0_Rd@Base 4:4.12.80
 _ZNK11SolarSystem16getSelenographicEv@Base 4:4.12.80
 _ZNK11SolarSystem5MnPosERdS0_@Base 4:4.12.80
 _ZNK11SolarSystem5SnPosERdS0_@Base 4:4.12.80
 _ZNK11SolarSystem6getMJDEiiiiid@Base 4:4.12.80
 _ZNK13PlanetarySats10getLastMJDEv@Base 4:4.12.80
 _ZNK13PlanetarySats10getSatNameEPc@Base 4:4.12.80
 _ZNK13PlanetarySats17getPlanetographicERdS0_S0_@Base 4:4.12.80
 _ZNK4Mat36GetMijEii@Base 4:4.12.80
 _ZNK7Eclipse6GetEp2Ev@Base 4:4.12.80
 _ZNK7Eclipse7GetRSunEv@Base 4:4.12.80
 _ZNK7Eclipse8GetRMoonEv@Base 4:4.12.80
 _ZNK7Moon2004addnEdiiiiRdS0_S0_@Base 4:4.12.80
 _ZNK7Moon2004termEiiiiRdS0_@Base 4:4.12.80
 _ZNK7Moon2006solarnERd@Base 4:4.12.80
 _ZNK7Plan2005stateER4Vec3S1_@Base 4:4.12.80
 _ZNK7Plan2008velocityEv@Base 4:4.12.80
 _ZNK8EclSolar10getLastMJDEv@Base 4:4.12.80
 _ZNK8EclSolar14getDatefromMJDEdRiS0_S0_S0_S0_Rd@Base 4:4.12.80
 _ZNK8EclSolar7getYearEv@Base 4:4.12.80
