# SymbolsHelper-Confirmed: 4:15.08.0 amd64 arm64 armhf i386 powerpc ppc64el
libmarblewidget-qt5.so.22 libmarblewidget-qt5-22 #MINVER#
 (optional=templinst)_Z17qRegisterMetaTypeIN6Marble13DownloadUsageEEiPKcPT_N9QtPrivate21MetaTypeDefinedHelperIS4_Xaasr12QMetaTypeId2IS4_E7DefinedntsrS9_9IsBuiltInEE11DefinedTypeE@Base 4:15.08.0
 (optional=templinst)_Z17qRegisterMetaTypeIN6Marble18GeoDataCoordinatesEEiPKcPT_N9QtPrivate21MetaTypeDefinedHelperIS4_Xaasr12QMetaTypeId2IS4_E7DefinedntsrS9_9IsBuiltInEE11DefinedTypeE@Base 4:15.08.0
 (optional=templinst|arch=!ppc64el)_Z17qRegisterMetaTypeIPN6Marble13GeoDataFolderEEiPKcPT_N9QtPrivate21MetaTypeDefinedHelperIS5_Xaasr12QMetaTypeId2IS5_E7DefinedntsrSA_9IsBuiltInEE11DefinedTypeE@Base 4:15.08.0
 (optional=templinst|arch=!ppc64el)_Z17qRegisterMetaTypeIPN6Marble13GeoDataObjectEEiPKcPT_N9QtPrivate21MetaTypeDefinedHelperIS5_Xaasr12QMetaTypeId2IS5_E7DefinedntsrSA_9IsBuiltInEE11DefinedTypeE@Base 4:15.08.0
 (optional=templinst)_Z17qRegisterMetaTypeIPN6Marble15GeoDataDocumentEEiPKcPT_N9QtPrivate21MetaTypeDefinedHelperIS5_Xaasr12QMetaTypeId2IS5_E7DefinedntsrSA_9IsBuiltInEE11DefinedTypeE@Base 4:15.08.0
 _Z21qInitResources_marblev@Base 4:15.08.0
 _Z24qCleanupResources_marblev@Base 4:15.08.0
 _Z24qInitResources_libmarblev@Base 4:15.08.0
 _Z27qCleanupResources_libmarblev@Base 4:15.08.0
 (optional=templinst)_Z27qRegisterNormalizedMetaTypeI5QListIdEEiRK10QByteArrayPT_N9QtPrivate21MetaTypeDefinedHelperIS5_Xaasr12QMetaTypeId2IS5_E7DefinedntsrSA_9IsBuiltInEE11DefinedTypeE@Base 4:15.08.0
 _ZGVZN9QtPrivate19ValueTypeIsMetaTypeI5QListIdELb1EE17registerConverterEiE1f@Base 4:15.08.0
 _ZGVZNK6Marble23GeoDataIconStylePrivate16remoteIconLoaderEvE16remoteIconLoader@Base 4:15.08.0
 _ZN10QByteArray6detachEv@Base 4:15.08.0
 _ZN10QByteArrayD1Ev@Base 4:15.08.0
 _ZN10QByteArrayD2Ev@Base 4:15.08.0
 (optional=templinst)_ZN11QMetaTypeIdIN6Marble18GeoDataCoordinatesEE14qt_metatype_idEv@Base 4:15.08.0
 _ZN12KineticModel11qt_metacallEN11QMetaObject4CallEiPPv@Base 4:15.08.0
 _ZN12KineticModel11qt_metacastEPKc@Base 4:15.08.0
 _ZN12KineticModel11setDurationEi@Base 4:15.08.0
 _ZN12KineticModel11setPositionE7QPointF@Base 4:15.08.0
 _ZN12KineticModel11setPositionEdd@Base 4:15.08.0
 _ZN12KineticModel14jumpToPositionE7QPointF@Base 4:15.08.0
 _ZN12KineticModel14jumpToPositionEdd@Base 4:15.08.0
 _ZN12KineticModel15positionChangedEdd@Base 4:15.08.0
 _ZN12KineticModel16staticMetaObjectE@Base 4:15.08.0
 _ZN12KineticModel17setUpdateIntervalEi@Base 4:15.08.0
 _ZN12KineticModel4stopEv@Base 4:15.08.0
 _ZN12KineticModel5startEv@Base 4:15.08.0
 _ZN12KineticModel6updateEv@Base 4:15.08.0
 _ZN12KineticModel8finishedEv@Base 4:15.08.0
 _ZN12KineticModelC1EP7QObject@Base 4:15.08.0
 _ZN12KineticModelC2EP7QObject@Base 4:15.08.0
 _ZN12KineticModelD0Ev@Base 4:15.08.0
 _ZN12KineticModelD1Ev@Base 4:15.08.0
 _ZN12KineticModelD2Ev@Base 4:15.08.0
 (optional=templinst)_ZN12QWeakPointerI7QObjectED1Ev@Base 4:15.08.0
 (optional=templinst)_ZN12QWeakPointerI7QObjectED2Ev@Base 4:15.08.0
 (optional=templinst)_ZN12QtConcurrent15RunFunctionTaskIvE3runEv@Base 4:15.08.0
 (optional=templinst)_ZN12QtConcurrent19RunFunctionTaskBaseIvE3runEv@Base 4:15.08.0
 (optional=templinst)_ZN12QtConcurrent36VoidStoredMemberFunctionPointerCall1IvN6Marble20NewstuffModelPrivateEiiE10runFunctorEv@Base 4:15.08.0
 (optional=templinst)_ZN12QtConcurrent36VoidStoredMemberFunctionPointerCall1IvN6Marble20NewstuffModelPrivateEiiED0Ev@Base 4:15.08.0
 (optional=templinst)_ZN12QtConcurrent36VoidStoredMemberFunctionPointerCall1IvN6Marble20NewstuffModelPrivateEiiED1Ev@Base 4:15.08.0
 (optional=templinst)_ZN12QtConcurrent36VoidStoredMemberFunctionPointerCall1IvN6Marble20NewstuffModelPrivateEiiED2Ev@Base 4:15.08.0
 _ZN12Ui_MapWizard13retranslateUiEP7QWizard@Base 4:15.08.0
 _ZN12Ui_MapWizard7setupUiEP7QWizard@Base 4:15.08.0
 _ZN13MarbleWebView11qt_metacallEN11QMetaObject4CallEiPPv@Base 4:15.08.0
 _ZN13MarbleWebView11qt_metacastEPKc@Base 4:15.08.0
 _ZN13MarbleWebView13keyPressEventEP9QKeyEvent@Base 4:15.08.0
 _ZN13MarbleWebView16contextMenuEventEP17QContextMenuEvent@Base 4:15.08.0
 _ZN13MarbleWebView16copySelectedTextEv@Base 4:15.08.0
 _ZN13MarbleWebView16staticMetaObjectE@Base 4:15.08.0
 _ZN13MarbleWebViewC1EP7QWidget@Base 4:15.08.0
 _ZN13MarbleWebViewC2EP7QWidget@Base 4:15.08.0
 _ZN13MarbleWebViewD0Ev@Base 4:15.08.0
 _ZN13MarbleWebViewD1Ev@Base 4:15.08.0
 _ZN13MarbleWebViewD2Ev@Base 4:15.08.0
 (optional=templinst|arch=ppc64el)_ZN13QConcatenableI7QStringE8appendToERKS0_RP5QChar@Base 4:15.08.0
 _ZN13Ui_TourWidget13retranslateUiEP7QWidget@Base 4:15.08.0
 _ZN13Ui_TourWidget7setupUiEP7QWidget@Base 4:15.08.0
 (optional=templinst)_ZN14QFutureWatcherIvE15futureInterfaceEv@Base 4:15.08.0
 (optional=templinst)_ZN14QFutureWatcherIvED0Ev@Base 4:15.08.0
 (optional=templinst)_ZN14QFutureWatcherIvED1Ev@Base 4:15.08.0
 (optional=templinst)_ZN14QFutureWatcherIvED2Ev@Base 4:15.08.0
 (optional=templinst)_ZN14QSharedPointerIN6Marble11TextureTileEE5derefEPN15QtSharedPointer20ExternalRefCountDataE@Base 4:15.08.0
 (optional=templinst)_ZN14QSharedPointerIN6Marble16GeoSceneDocumentEE5derefEPN15QtSharedPointer20ExternalRefCountDataE@Base 4:15.08.0
 (optional=templinst|arch=!amd64 !i386)_ZN14QSharedPointerIN6Marble22MarbleQuickItemPrivateEE5derefEPN15QtSharedPointer20ExternalRefCountDataE@Base 4:15.08.0
 (optional=templinst)_ZN15QtSharedPointer33ExternalRefCountWithCustomDeleterIN6Marble11TextureTileENS_13NormalDeleterEE7deleterEPNS_20ExternalRefCountDataE@Base 4:15.08.0
 (optional=templinst)_ZN15QtSharedPointer33ExternalRefCountWithCustomDeleterIN6Marble16GeoSceneDocumentENS_13NormalDeleterEE7deleterEPNS_20ExternalRefCountDataE@Base 4:15.08.0
 (optional=templinst)_ZN15QtSharedPointer33ExternalRefCountWithCustomDeleterIN6Marble22MarbleQuickItemPrivateENS_13NormalDeleterEE7deleterEPNS_20ExternalRefCountDataE@Base 4:15.08.0
 (optional=templinst)_ZN15QtSharedPointer33ExternalRefCountWithCustomDeleterIN6Marble31MarbleWidgetInputHandlerPrivateENS_13NormalDeleterEE7deleterEPNS_20ExternalRefCountDataE@Base 4:15.08.0
 _ZN15Ui_PrintOptions7setupUiEP7QWidget@Base 4:15.08.0
 (optional=templinst)_ZN16QFutureInterfaceIvED0Ev@Base 4:15.08.0
 (optional=templinst)_ZN16QFutureInterfaceIvED1Ev@Base 4:15.08.0
 (optional=templinst)_ZN16QFutureInterfaceIvED2Ev@Base 4:15.08.0
 _ZN16Ui_MapViewWidget7setupUiEP7QWidget@Base 4:15.08.0
 _ZN16Ui_RoutingWidget7setupUiEP7QWidget@Base 4:15.08.0
 (optional=templinst)_ZN17QForeachContainerI5QListI7QStringEEC1ERKS2_@Base 4:15.08.0
 (optional=templinst)_ZN17QForeachContainerI5QListI7QStringEEC2ERKS2_@Base 4:15.08.0
 (optional=templinst|arch=ppc64el)_ZN17QForeachContainerI5QListIPKN6Marble16GeoDataPlacemarkEEEC1ERKS5_@Base 4:15.08.0
 (optional=templinst|arch=ppc64el)_ZN17QForeachContainerI5QListIPKN6Marble16GeoDataPlacemarkEEEC2ERKS5_@Base 4:15.08.0
 (optional=templinst)_ZN17QtMetaTypePrivate19IteratorOwnerCommonIN5QListIdE14const_iteratorEE5equalEPKPvS7_@Base 4:15.08.0
 (optional=templinst)_ZN17QtMetaTypePrivate19IteratorOwnerCommonIN5QListIdE14const_iteratorEE6assignEPPvPKS5_@Base 4:15.08.0
 (optional=templinst)_ZN17QtMetaTypePrivate19IteratorOwnerCommonIN5QListIdE14const_iteratorEE7advanceEPPvi@Base 4:15.08.0
 (optional=templinst)_ZN17QtMetaTypePrivate19IteratorOwnerCommonIN5QListIdE14const_iteratorEE7destroyEPPv@Base 4:15.08.0
 (optional=templinst)_ZN17QtMetaTypePrivate23QMetaTypeFunctionHelperI5QListIdELb1EE6CreateEPKv@Base 4:15.08.0
 (optional=templinst)_ZN17QtMetaTypePrivate23QMetaTypeFunctionHelperI5QListIdELb1EE6DeleteEPv@Base 4:15.08.0
 (optional=templinst)_ZN17QtMetaTypePrivate23QMetaTypeFunctionHelperI5QListIdELb1EE8DestructEPv@Base 4:15.08.0
 (optional=templinst)_ZN17QtMetaTypePrivate23QMetaTypeFunctionHelperI5QListIdELb1EE9ConstructEPvPKv@Base 4:15.08.0
 (optional=templinst)_ZN17QtMetaTypePrivate23QMetaTypeFunctionHelperI7QVectorIPN6Marble16GeoDataPlacemarkEELb1EE6CreateEPKv@Base 4:15.08.0
 (optional=templinst)_ZN17QtMetaTypePrivate23QMetaTypeFunctionHelperI7QVectorIPN6Marble16GeoDataPlacemarkEELb1EE6DeleteEPv@Base 4:15.08.0
 (optional=templinst)_ZN17QtMetaTypePrivate23QMetaTypeFunctionHelperI7QVectorIPN6Marble16GeoDataPlacemarkEELb1EE8DestructEPv@Base 4:15.08.0
 (optional=templinst)_ZN17QtMetaTypePrivate23QMetaTypeFunctionHelperI7QVectorIPN6Marble16GeoDataPlacemarkEELb1EE9ConstructEPvPKv@Base 4:15.08.0
 (optional=templinst)_ZN17QtMetaTypePrivate23QMetaTypeFunctionHelperIN13QNetworkReply12NetworkErrorELb1EE6CreateEPKv@Base 4:15.08.0
 (optional=templinst)_ZN17QtMetaTypePrivate23QMetaTypeFunctionHelperIN13QNetworkReply12NetworkErrorELb1EE6DeleteEPv@Base 4:15.08.0
 (optional=templinst)_ZN17QtMetaTypePrivate23QMetaTypeFunctionHelperIN13QNetworkReply12NetworkErrorELb1EE8DestructEPv@Base 4:15.08.0
 (optional=templinst)_ZN17QtMetaTypePrivate23QMetaTypeFunctionHelperIN13QNetworkReply12NetworkErrorELb1EE9ConstructEPvPKv@Base 4:15.08.0
 (optional=templinst)_ZN17QtMetaTypePrivate23QMetaTypeFunctionHelperIN6Marble13DownloadUsageELb1EE6CreateEPKv@Base 4:15.08.0
 (optional=templinst)_ZN17QtMetaTypePrivate23QMetaTypeFunctionHelperIN6Marble13DownloadUsageELb1EE6DeleteEPv@Base 4:15.08.0
 (optional=templinst)_ZN17QtMetaTypePrivate23QMetaTypeFunctionHelperIN6Marble13DownloadUsageELb1EE8DestructEPv@Base 4:15.08.0
 (optional=templinst)_ZN17QtMetaTypePrivate23QMetaTypeFunctionHelperIN6Marble13DownloadUsageELb1EE9ConstructEPvPKv@Base 4:15.08.0
 (optional=templinst)_ZN17QtMetaTypePrivate23QMetaTypeFunctionHelperIN6Marble16GeoDataPlacemarkELb1EE6CreateEPKv@Base 4:15.08.0
 (optional=templinst)_ZN17QtMetaTypePrivate23QMetaTypeFunctionHelperIN6Marble16GeoDataPlacemarkELb1EE6DeleteEPv@Base 4:15.08.0
 (optional=templinst)_ZN17QtMetaTypePrivate23QMetaTypeFunctionHelperIN6Marble16GeoDataPlacemarkELb1EE8DestructEPv@Base 4:15.08.0
 (optional=templinst)_ZN17QtMetaTypePrivate23QMetaTypeFunctionHelperIN6Marble16GeoDataPlacemarkELb1EE9ConstructEPvPKv@Base 4:15.08.0
 (optional=templinst)_ZN17QtMetaTypePrivate23QMetaTypeFunctionHelperIN6Marble16OsmPlacemarkDataELb1EE6CreateEPKv@Base 4:15.08.0
 (optional=templinst)_ZN17QtMetaTypePrivate23QMetaTypeFunctionHelperIN6Marble16OsmPlacemarkDataELb1EE6DeleteEPv@Base 4:15.08.0
 (optional=templinst)_ZN17QtMetaTypePrivate23QMetaTypeFunctionHelperIN6Marble16OsmPlacemarkDataELb1EE8DestructEPv@Base 4:15.08.0
 (optional=templinst)_ZN17QtMetaTypePrivate23QMetaTypeFunctionHelperIN6Marble16OsmPlacemarkDataELb1EE9ConstructEPvPKv@Base 4:15.08.0
 (optional=templinst)_ZN17QtMetaTypePrivate23QMetaTypeFunctionHelperIN6Marble18GeoDataCoordinatesELb1EE6CreateEPKv@Base 4:15.08.0
 (optional=templinst)_ZN17QtMetaTypePrivate23QMetaTypeFunctionHelperIN6Marble18GeoDataCoordinatesELb1EE6DeleteEPv@Base 4:15.08.0
 (optional=templinst)_ZN17QtMetaTypePrivate23QMetaTypeFunctionHelperIN6Marble18GeoDataCoordinatesELb1EE8DestructEPv@Base 4:15.08.0
 (optional=templinst)_ZN17QtMetaTypePrivate23QMetaTypeFunctionHelperIN6Marble18GeoDataCoordinatesELb1EE9ConstructEPvPKv@Base 4:15.08.0
 (optional=templinst)_ZN17QtMetaTypePrivate23QMetaTypeFunctionHelperIN6Marble6TileIdELb1EE6CreateEPKv@Base 4:15.08.0
 (optional=templinst)_ZN17QtMetaTypePrivate23QMetaTypeFunctionHelperIN6Marble6TileIdELb1EE6DeleteEPv@Base 4:15.08.0
 (optional=templinst)_ZN17QtMetaTypePrivate23QMetaTypeFunctionHelperIN6Marble6TileIdELb1EE8DestructEPv@Base 4:15.08.0
 (optional=templinst)_ZN17QtMetaTypePrivate23QMetaTypeFunctionHelperIN6Marble6TileIdELb1EE9ConstructEPvPKv@Base 4:15.08.0
 (optional=templinst)_ZN17QtMetaTypePrivate23QMetaTypeFunctionHelperINS_23QSequentialIterableImplELb1EE6CreateEPKv@Base 4:15.08.0
 (optional=templinst)_ZN17QtMetaTypePrivate23QMetaTypeFunctionHelperINS_23QSequentialIterableImplELb1EE6DeleteEPv@Base 4:15.08.0
 (optional=templinst)_ZN17QtMetaTypePrivate23QMetaTypeFunctionHelperINS_23QSequentialIterableImplELb1EE8DestructEPv@Base 4:15.08.0
 (optional=templinst)_ZN17QtMetaTypePrivate23QMetaTypeFunctionHelperINS_23QSequentialIterableImplELb1EE9ConstructEPvPKv@Base 4:15.08.0
 (optional=templinst)_ZN17QtMetaTypePrivate23QMetaTypeFunctionHelperIP13QNetworkReplyLb1EE6CreateEPKv@Base 4:15.08.0
 (optional=templinst)_ZN17QtMetaTypePrivate23QMetaTypeFunctionHelperIP13QNetworkReplyLb1EE6DeleteEPv@Base 4:15.08.0
 (optional=templinst)_ZN17QtMetaTypePrivate23QMetaTypeFunctionHelperIP13QNetworkReplyLb1EE8DestructEPv@Base 4:15.08.0
 (optional=templinst)_ZN17QtMetaTypePrivate23QMetaTypeFunctionHelperIP13QNetworkReplyLb1EE9ConstructEPvPKv@Base 4:15.08.0
 (optional=templinst)_ZN17QtMetaTypePrivate23QMetaTypeFunctionHelperIPKN6Marble12GeoDataStyleELb1EE6CreateEPKv@Base 4:15.08.0
 (optional=templinst)_ZN17QtMetaTypePrivate23QMetaTypeFunctionHelperIPKN6Marble12GeoDataStyleELb1EE6DeleteEPv@Base 4:15.08.0
 (optional=templinst)_ZN17QtMetaTypePrivate23QMetaTypeFunctionHelperIPKN6Marble12GeoDataStyleELb1EE8DestructEPv@Base 4:15.08.0
 (optional=templinst)_ZN17QtMetaTypePrivate23QMetaTypeFunctionHelperIPKN6Marble12GeoDataStyleELb1EE9ConstructEPvPKv@Base 4:15.08.0
 (optional=templinst)_ZN17QtMetaTypePrivate23QMetaTypeFunctionHelperIPN6Marble10FileLoaderELb1EE6CreateEPKv@Base 4:15.08.0
 (optional=templinst)_ZN17QtMetaTypePrivate23QMetaTypeFunctionHelperIPN6Marble10FileLoaderELb1EE6DeleteEPv@Base 4:15.08.0
 (optional=templinst)_ZN17QtMetaTypePrivate23QMetaTypeFunctionHelperIPN6Marble10FileLoaderELb1EE8DestructEPv@Base 4:15.08.0
 (optional=templinst)_ZN17QtMetaTypePrivate23QMetaTypeFunctionHelperIPN6Marble10FileLoaderELb1EE9ConstructEPvPKv@Base 4:15.08.0
 (optional=templinst)_ZN17QtMetaTypePrivate23QMetaTypeFunctionHelperIPN6Marble10SearchTaskELb1EE6CreateEPKv@Base 4:15.08.0
 (optional=templinst)_ZN17QtMetaTypePrivate23QMetaTypeFunctionHelperIPN6Marble10SearchTaskELb1EE6DeleteEPv@Base 4:15.08.0
 (optional=templinst)_ZN17QtMetaTypePrivate23QMetaTypeFunctionHelperIPN6Marble10SearchTaskELb1EE8DestructEPv@Base 4:15.08.0
 (optional=templinst)_ZN17QtMetaTypePrivate23QMetaTypeFunctionHelperIPN6Marble10SearchTaskELb1EE9ConstructEPvPKv@Base 4:15.08.0
 (optional=templinst)_ZN17QtMetaTypePrivate23QMetaTypeFunctionHelperIPN6Marble11ParsingTaskELb1EE6CreateEPKv@Base 4:15.08.0
 (optional=templinst)_ZN17QtMetaTypePrivate23QMetaTypeFunctionHelperIPN6Marble11ParsingTaskELb1EE6DeleteEPv@Base 4:15.08.0
 (optional=templinst)_ZN17QtMetaTypePrivate23QMetaTypeFunctionHelperIPN6Marble11ParsingTaskELb1EE8DestructEPv@Base 4:15.08.0
 (optional=templinst)_ZN17QtMetaTypePrivate23QMetaTypeFunctionHelperIPN6Marble11ParsingTaskELb1EE9ConstructEPvPKv@Base 4:15.08.0
 (optional=templinst)_ZN17QtMetaTypePrivate23QMetaTypeFunctionHelperIPN6Marble11RoutingTaskELb1EE6CreateEPKv@Base 4:15.08.0
 (optional=templinst)_ZN17QtMetaTypePrivate23QMetaTypeFunctionHelperIPN6Marble11RoutingTaskELb1EE6DeleteEPv@Base 4:15.08.0
 (optional=templinst)_ZN17QtMetaTypePrivate23QMetaTypeFunctionHelperIPN6Marble11RoutingTaskELb1EE8DestructEPv@Base 4:15.08.0
 (optional=templinst)_ZN17QtMetaTypePrivate23QMetaTypeFunctionHelperIPN6Marble11RoutingTaskELb1EE9ConstructEPvPKv@Base 4:15.08.0
 (optional=templinst)_ZN17QtMetaTypePrivate23QMetaTypeFunctionHelperIPN6Marble13GeoDataFolderELb1EE6CreateEPKv@Base 4:15.08.0
 (optional=templinst)_ZN17QtMetaTypePrivate23QMetaTypeFunctionHelperIPN6Marble13GeoDataFolderELb1EE6DeleteEPv@Base 4:15.08.0
 (optional=templinst)_ZN17QtMetaTypePrivate23QMetaTypeFunctionHelperIPN6Marble13GeoDataFolderELb1EE8DestructEPv@Base 4:15.08.0
 (optional=templinst)_ZN17QtMetaTypePrivate23QMetaTypeFunctionHelperIPN6Marble13GeoDataFolderELb1EE9ConstructEPvPKv@Base 4:15.08.0
 (optional=templinst)_ZN17QtMetaTypePrivate23QMetaTypeFunctionHelperIPN6Marble13GeoDataObjectELb1EE6CreateEPKv@Base 4:15.08.0
 (optional=templinst)_ZN17QtMetaTypePrivate23QMetaTypeFunctionHelperIPN6Marble13GeoDataObjectELb1EE6DeleteEPv@Base 4:15.08.0
 (optional=templinst)_ZN17QtMetaTypePrivate23QMetaTypeFunctionHelperIPN6Marble13GeoDataObjectELb1EE8DestructEPv@Base 4:15.08.0
 (optional=templinst)_ZN17QtMetaTypePrivate23QMetaTypeFunctionHelperIPN6Marble13GeoDataObjectELb1EE9ConstructEPvPKv@Base 4:15.08.0
 (optional=templinst)_ZN17QtMetaTypePrivate23QMetaTypeFunctionHelperIPN6Marble15GeoDataDocumentELb1EE6CreateEPKv@Base 4:15.08.0
 (optional=templinst)_ZN17QtMetaTypePrivate23QMetaTypeFunctionHelperIPN6Marble15GeoDataDocumentELb1EE6DeleteEPv@Base 4:15.08.0
 (optional=templinst)_ZN17QtMetaTypePrivate23QMetaTypeFunctionHelperIPN6Marble15GeoDataDocumentELb1EE8DestructEPv@Base 4:15.08.0
 (optional=templinst)_ZN17QtMetaTypePrivate23QMetaTypeFunctionHelperIPN6Marble15GeoDataDocumentELb1EE9ConstructEPvPKv@Base 4:15.08.0
 (optional=templinst)_ZN17QtMetaTypePrivate23QMetaTypeFunctionHelperIPN6Marble15GeoDataGeometryELb1EE6CreateEPKv@Base 4:15.08.0
 (optional=templinst)_ZN17QtMetaTypePrivate23QMetaTypeFunctionHelperIPN6Marble15GeoDataGeometryELb1EE6DeleteEPv@Base 4:15.08.0
 (optional=templinst)_ZN17QtMetaTypePrivate23QMetaTypeFunctionHelperIPN6Marble15GeoDataGeometryELb1EE8DestructEPv@Base 4:15.08.0
 (optional=templinst)_ZN17QtMetaTypePrivate23QMetaTypeFunctionHelperIPN6Marble15GeoDataGeometryELb1EE9ConstructEPvPKv@Base 4:15.08.0
 (optional=templinst)_ZN17QtMetaTypePrivate23QMetaTypeFunctionHelperIPN6Marble18RoutingInputWidgetELb1EE6CreateEPKv@Base 4:15.08.0
 (optional=templinst)_ZN17QtMetaTypePrivate23QMetaTypeFunctionHelperIPN6Marble18RoutingInputWidgetELb1EE6DeleteEPv@Base 4:15.08.0
 (optional=templinst)_ZN17QtMetaTypePrivate23QMetaTypeFunctionHelperIPN6Marble18RoutingInputWidgetELb1EE8DestructEPv@Base 4:15.08.0
 (optional=templinst)_ZN17QtMetaTypePrivate23QMetaTypeFunctionHelperIPN6Marble18RoutingInputWidgetELb1EE9ConstructEPvPKv@Base 4:15.08.0
 (optional=templinst)_ZN17QtMetaTypePrivate23QMetaTypeFunctionHelperIPN6Marble20ReverseGeocodingTaskELb1EE6CreateEPKv@Base 4:15.08.0
 (optional=templinst)_ZN17QtMetaTypePrivate23QMetaTypeFunctionHelperIPN6Marble20ReverseGeocodingTaskELb1EE6DeleteEPv@Base 4:15.08.0
 (optional=templinst)_ZN17QtMetaTypePrivate23QMetaTypeFunctionHelperIPN6Marble20ReverseGeocodingTaskELb1EE8DestructEPv@Base 4:15.08.0
 (optional=templinst)_ZN17QtMetaTypePrivate23QMetaTypeFunctionHelperIPN6Marble20ReverseGeocodingTaskELb1EE9ConstructEPvPKv@Base 4:15.08.0
 (optional=templinst)_ZN17QtMetaTypePrivate23QMetaTypeFunctionHelperIPN6Marble7HttpJobELb1EE6CreateEPKv@Base 4:15.08.0
 (optional=templinst)_ZN17QtMetaTypePrivate23QMetaTypeFunctionHelperIPN6Marble7HttpJobELb1EE6DeleteEPv@Base 4:15.08.0
 (optional=templinst)_ZN17QtMetaTypePrivate23QMetaTypeFunctionHelperIPN6Marble7HttpJobELb1EE8DestructEPv@Base 4:15.08.0
 (optional=templinst)_ZN17QtMetaTypePrivate23QMetaTypeFunctionHelperIPN6Marble7HttpJobELb1EE9ConstructEPvPKv@Base 4:15.08.0
 (optional=templinst)_ZN17QtMetaTypePrivate23QMetaTypeFunctionHelperIPN6Marble9MergeItemELb1EE6CreateEPKv@Base 4:15.08.0
 (optional=templinst)_ZN17QtMetaTypePrivate23QMetaTypeFunctionHelperIPN6Marble9MergeItemELb1EE6DeleteEPv@Base 4:15.08.0
 (optional=templinst)_ZN17QtMetaTypePrivate23QMetaTypeFunctionHelperIPN6Marble9MergeItemELb1EE8DestructEPv@Base 4:15.08.0
 (optional=templinst)_ZN17QtMetaTypePrivate23QMetaTypeFunctionHelperIPN6Marble9MergeItemELb1EE9ConstructEPvPKv@Base 4:15.08.0
 (optional=templinst)_ZN17QtMetaTypePrivate23QSequentialIterableImpl13moveToEndImplI5QListIdEEEvPKvPPv@Base 4:15.08.0
 (optional=templinst)_ZN17QtMetaTypePrivate23QSequentialIterableImpl15moveToBeginImplI5QListIdEEEvPKvPPv@Base 4:15.08.0
 (optional=templinst)_ZN17QtMetaTypePrivate23QSequentialIterableImpl6atImplI5QListIdEEEPKvS5_i@Base 4:15.08.0
 (optional=templinst)_ZN17QtMetaTypePrivate23QSequentialIterableImpl7getImplI5QListIdEEENS_11VariantDataEPKPvij@Base 4:15.08.0
 (optional=templinst)_ZN17QtMetaTypePrivate23QSequentialIterableImpl8sizeImplI5QListIdEEEiPKv@Base 4:15.08.0
 _ZN17Ui_ExternalEditor7setupUiEP7QDialog@Base 4:15.08.0
 (optional=templinst)_ZN18QAlgorithmsPrivate11qSortHelperIN5QListI11QModelIndexE8iteratorES2_5qLessIS2_EEEvT_S7_RKT0_T1_@Base 4:15.08.0
 (optional=templinst)_ZN18QAlgorithmsPrivate11qSortHelperIN5QListI11QModelIndexE8iteratorES2_8qGreaterIS2_EEEvT_S7_RKT0_T1_@Base 4:15.08.0
 (optional=templinst|arch=!ppc64el)_ZN18QAlgorithmsPrivate11qSortHelperIN5QListI7QStringE8iteratorES2_PFbRKS2_S6_EEEvT_S9_RKT0_T1_@Base 4:15.08.0
 (optional=templinst|arch=!ppc64el)_ZN18QAlgorithmsPrivate11qSortHelperIN5QListIN6Marble17SpeakersModelItemEE8iteratorES3_PFbRKS3_S7_EEEvT_SA_RKT0_T1_@Base 4:15.08.0
 (optional=templinst)_ZN18QAlgorithmsPrivate11qSortHelperIN5QListIN6Marble6TileIdEE8iteratorES3_5qLessIS3_EEEvT_S8_RKT0_T1_@Base 4:15.08.0
 (optional=templinst)_ZN18QAlgorithmsPrivate11qSortHelperIN5QListIPKN6Marble16GeoDataPlacemarkEE8iteratorES5_PFbS5_S5_EEEvT_SA_RKT0_T1_@Base 4:15.08.0
 (optional=templinst|arch=!ppc64el)_ZN18QAlgorithmsPrivate11qSortHelperIN5QListIPN6Marble12RenderPluginEE8iteratorES4_PFbS4_S4_EEEvT_S9_RKT0_T1_@Base 4:15.08.0
 (optional=templinst|arch=!ppc64el)_ZN18QAlgorithmsPrivate11qSortHelperIN5QListIPN6Marble22AbstractDataPluginItemEE8iteratorES4_PFbPKS3_S8_EEEvT_SB_RKT0_T1_@Base 4:15.08.0
 (optional=templinst)_ZN18QAlgorithmsPrivate11qSortHelperIPN6Marble14GeoDataFeature21GeoDataVisualCategoryES3_5qLessIS3_EEEvT_S7_RKT0_T1_@Base 4:15.08.0
 (optional=templinst|arch=!ppc64el)_ZN18QAlgorithmsPrivate11qSortHelperIPPN6Marble15GeoDataDocumentES3_PFbPKS2_S6_EEEvT_S9_RKT0_T1_@Base 4:15.08.0
 (optional=templinst|arch=!ppc64el)_ZN18QAlgorithmsPrivate17qLowerBoundHelperIN5QListIPKN6Marble20GeoDataGroundOverlayEE8iteratorES5_PFbS5_S5_EEET_SA_SA_RKT0_T1_@Base 4:15.08.0
 (optional=templinst|arch=ppc64el)_ZN18QMetaTypeIdQObjectIP13QNetworkReplyLb1EE14qt_metatype_idEv@Base 4:15.08.0
 (optional=templinst|arch=ppc64el)_ZN18QMetaTypeIdQObjectIPN6Marble10SearchTaskELb1EE14qt_metatype_idEv@Base 4:15.08.0
 (optional=templinst|arch=ppc64el)_ZN18QMetaTypeIdQObjectIPN6Marble11ParsingTaskELb1EE14qt_metatype_idEv@Base 4:15.08.0
 (optional=templinst|arch=ppc64el)_ZN18QMetaTypeIdQObjectIPN6Marble11RoutingTaskELb1EE14qt_metatype_idEv@Base 4:15.08.0
 (optional=templinst|arch=ppc64el)_ZN18QMetaTypeIdQObjectIPN6Marble20ReverseGeocodingTaskELb1EE14qt_metatype_idEv@Base 4:15.08.0
 _ZN18QStyleOptionButtonD1Ev@Base 4:15.08.0
 _ZN18QStyleOptionButtonD2Ev@Base 4:15.08.0
 _ZN18Ui_LatLonBoxWidget7setupUiEP7QWidget@Base 4:15.08.0
 _ZN18Ui_MarbleNavigator13retranslateUiEP7QWidget@Base 4:15.08.0
 _ZN18Ui_MarbleNavigator7setupUiEP7QWidget@Base 4:15.08.0
 _ZN19KineticModelPrivateC1Ev@Base 4:15.08.0
 _ZN19KineticModelPrivateC2Ev@Base 4:15.08.0
 _ZN19Ui_NavigationWidget13retranslateUiEP7QWidget@Base 4:15.08.0
 _ZN19Ui_NavigationWidget7setupUiEP7QWidget@Base 4:15.08.0
 _ZN19Ui_SunControlWidget7setupUiEP7QDialog@Base 4:15.08.0
 _ZN20QStyleOptionViewItemD1Ev@Base 4:15.08.0
 _ZN20QStyleOptionViewItemD2Ev@Base 4:15.08.0
 _ZN20Ui_MarbleAboutDialog7setupUiEP7QDialog@Base 4:15.08.0
 _ZN20Ui_TileCreatorDialog7setupUiEP7QDialog@Base 4:15.08.0
 _ZN20Ui_TimeControlWidget7setupUiEP7QDialog@Base 4:15.08.0
 _ZN20Ui_TourCaptureDialog7setupUiEP7QDialog@Base 4:15.08.0
 _ZN21Ui_MovieCaptureDialog7setupUiEP7QDialog@Base 4:15.08.0
 _ZN22KDescendantsProxyModel11qt_metacallEN11QMetaObject4CallEiPPv@Base 4:15.08.0
 _ZN22KDescendantsProxyModel11qt_metacastEPKc@Base 4:15.08.0
 _ZN22KDescendantsProxyModel14setSourceModelEP18QAbstractItemModel@Base 4:15.08.0
 _ZN22KDescendantsProxyModel16staticMetaObjectE@Base 4:15.08.0
 _ZN22KDescendantsProxyModel20setAncestorSeparatorERK7QString@Base 4:15.08.0
 _ZN22KDescendantsProxyModel22setDisplayAncestorDataEb@Base 4:15.08.0
 _ZN22KDescendantsProxyModelC1EP7QObject@Base 4:15.08.0
 _ZN22KDescendantsProxyModelC2EP7QObject@Base 4:15.08.0
 _ZN22KDescendantsProxyModelD0Ev@Base 4:15.08.0
 _ZN22KDescendantsProxyModelD1Ev@Base 4:15.08.0
 _ZN22KDescendantsProxyModelD2Ev@Base 4:15.08.0
 _ZN22Ui_FormattedTextWidget13retranslateUiEP7QWidget@Base 4:15.08.0
 _ZN22Ui_FormattedTextWidget7setupUiEP7QWidget@Base 4:15.08.0
 (optional=templinst|arch=ppc64el)_ZN23KBiAssociativeContainerI5QHashI21QPersistentModelIndexiE4QMapIiS1_EE6insertES1_i@Base 4:15.08.0
 _ZN23Ui_UiEditBookmarkDialog7setupUiEP7QDialog@Base 4:15.08.0
 _ZN24Ui_CurrentLocationWidget7setupUiEP7QWidget@Base 4:15.08.0
 _ZN24Ui_UiEditPlacemarkDialog13retranslateUiEP7QDialog@Base 4:15.08.0
 _ZN24Ui_UiEditPlacemarkDialog7setupUiEP7QDialog@Base 4:15.08.0
 _ZN26Ui_UiBookmarkManagerDialog7setupUiEP7QDialog@Base 4:15.08.0
 _ZN27Ui_MarbleTimeSettingsWidget13retranslateUiEP7QWidget@Base 4:15.08.0
 _ZN27Ui_MarbleTimeSettingsWidget7setupUiEP7QWidget@Base 4:15.08.0
 _ZN27Ui_MarbleViewSettingsWidget13retranslateUiEP7QWidget@Base 4:15.08.0
 _ZN27Ui_MarbleViewSettingsWidget7setupUiEP7QWidget@Base 4:15.08.0
 _ZN28Ui_MarbleCacheSettingsWidget13retranslateUiEP7QWidget@Base 4:15.08.0
 _ZN28Ui_MarbleCacheSettingsWidget7setupUiEP7QWidget@Base 4:15.08.0
 _ZN29KDescendantsProxyModelPrivate15sourceRowsMovedERK11QModelIndexiiS2_i@Base 4:15.08.0
 _ZN29KDescendantsProxyModelPrivate16sourceModelResetEv@Base 4:15.08.0
 _ZN29KDescendantsProxyModelPrivate17resetInternalDataEv@Base 4:15.08.0
 _ZN29KDescendantsProxyModelPrivate17sourceDataChangedERK11QModelIndexS2_@Base 4:15.08.0
 _ZN29KDescendantsProxyModelPrivate17sourceRowsRemovedERK11QModelIndexii@Base 4:15.08.0
 _ZN29KDescendantsProxyModelPrivate18sourceRowsInsertedERK11QModelIndexii@Base 4:15.08.0
 _ZN29KDescendantsProxyModelPrivate19sourceLayoutChangedEv@Base 4:15.08.0
 _ZN29KDescendantsProxyModelPrivate20sourceModelDestroyedEv@Base 4:15.08.0
 _ZN29KDescendantsProxyModelPrivate21processPendingParentsEv@Base 4:15.08.0
 _ZN29KDescendantsProxyModelPrivate21updateInternalIndexesEii@Base 4:15.08.0
 _ZN29KDescendantsProxyModelPrivate24sourceRowsAboutToBeMovedERK11QModelIndexiiS2_i@Base 4:15.08.0
 _ZN29KDescendantsProxyModelPrivate25sourceModelAboutToBeResetEv@Base 4:15.08.0
 _ZN29KDescendantsProxyModelPrivate25synchronousMappingRefreshEv@Base 4:15.08.0
 _ZN29KDescendantsProxyModelPrivate26sourceRowsAboutToBeRemovedERK11QModelIndexii@Base 4:15.08.0
 _ZN29KDescendantsProxyModelPrivate27sourceRowsAboutToBeInsertedERK11QModelIndexii@Base 4:15.08.0
 _ZN29KDescendantsProxyModelPrivate28sourceLayoutAboutToBeChangedEv@Base 4:15.08.0
 _ZN29Ui_PlacemarkEditHeaderPrivate7setupUiEP7QWidget@Base 4:15.08.0
 _ZN31Ui_RoutingProfileSettingsDialog7setupUiEP7QDialog@Base 4:15.08.0
 _ZN32Ui_MarbleCloudSyncSettingsWidget7setupUiEP7QWidget@Base 4:15.08.0
 _ZN33Ui_MarbleNavigationSettingsWidget13retranslateUiEP7QWidget@Base 4:15.08.0
 _ZN33Ui_MarbleNavigationSettingsWidget7setupUiEP7QWidget@Base 4:15.08.0
 _ZN4QDir4rootEv@Base 4:15.08.0
 (optional=templinst)_ZN4QMapI7QString5QPairI9QDateTimeyEE13detach_helperEv@Base 4:15.08.0
 (optional=templinst)_ZN4QMapI7QString5QPairI9QDateTimeyEED1Ev@Base 4:15.08.0
 (optional=templinst)_ZN4QMapI7QString5QPairI9QDateTimeyEED2Ev@Base 4:15.08.0
 (optional=templinst|arch=!ppc64el)_ZN4QMapI7QStringN6Marble12GeoDataStyleEE13detach_helperEv@Base 4:15.08.0
 (optional=templinst)_ZN4QMapI7QStringN6Marble12GeoDataStyleEED1Ev@Base 4:15.08.0
 (optional=templinst)_ZN4QMapI7QStringN6Marble12GeoDataStyleEED2Ev@Base 4:15.08.0
 (optional=templinst|arch=!ppc64el)_ZN4QMapI7QStringN6Marble13GeoDataSchemaEE13detach_helperEv@Base 4:15.08.0
 (optional=templinst)_ZN4QMapI7QStringN6Marble13GeoDataSchemaEED1Ev@Base 4:15.08.0
 (optional=templinst)_ZN4QMapI7QStringN6Marble13GeoDataSchemaEED2Ev@Base 4:15.08.0
 (optional=templinst|arch=!ppc64el)_ZN4QMapI7QStringN6Marble14GeoDataFeature21GeoDataVisualCategoryEE13detach_helperEv@Base 4:15.08.0
 (optional=templinst)_ZN4QMapI7QStringN6Marble14GeoDataFeature21GeoDataVisualCategoryEED1Ev@Base 4:15.08.0
 (optional=templinst)_ZN4QMapI7QStringN6Marble14GeoDataFeature21GeoDataVisualCategoryEED2Ev@Base 4:15.08.0
 (optional=templinst|arch=!ppc64el)_ZN4QMapI7QStringN6Marble14GeoDataFeature21GeoDataVisualCategoryEEixERKS0_@Base 4:15.08.0
 (optional=templinst|arch=!ppc64el)_ZN4QMapI7QStringN6Marble15GeoDataStyleMapEE13detach_helperEv@Base 4:15.08.0
 (optional=templinst)_ZN4QMapI7QStringN6Marble15GeoDataStyleMapEED1Ev@Base 4:15.08.0
 (optional=templinst)_ZN4QMapI7QStringN6Marble15GeoDataStyleMapEED2Ev@Base 4:15.08.0
 (optional=templinst|arch=!ppc64el)_ZN4QMapI7QStringN6Marble15RoutingWaypoint12JunctionTypeEE13detach_helperEv@Base 4:15.08.0
 (optional=templinst|arch=!ppc64el)_ZN4QMapI7QStringPN6Marble19GeoSceneTextureTileEE13detach_helperEv@Base 4:15.08.0
 (optional=templinst)_ZN4QMapI7QStringPN6Marble19GeoSceneTextureTileEED1Ev@Base 4:15.08.0
 (optional=templinst)_ZN4QMapI7QStringPN6Marble19GeoSceneTextureTileEED2Ev@Base 4:15.08.0
 (optional=templinst|arch=!ppc64el)_ZN4QMapI7QStringS0_E13detach_helperEv@Base 4:15.08.0
 (optional=templinst)_ZN4QMapI7QStringS0_ED1Ev@Base 4:15.08.0
 (optional=templinst)_ZN4QMapI7QStringS0_ED2Ev@Base 4:15.08.0
 (optional=templinst|arch=!ppc64el)_ZN4QMapI7QStringbE13detach_helperEv@Base 4:15.08.0
 (optional=templinst|arch=!ppc64el)_ZN4QMapI7QStringiE13detach_helperEv@Base 4:15.08.0
 (optional=templinst|arch=ppc64el)_ZN4QMapI7QStringiEixERKS0_@Base 4:15.08.0
 (optional=templinst|arch=!ppc64el)_ZN4QMapI9QDateTime7QStringE13detach_helperEv@Base 4:15.08.0
 (optional=templinst)_ZN4QMapI9QDateTime7QStringE5eraseENS2_8iteratorE@Base 4:15.08.0
 (optional=templinst|arch=!ppc64el)_ZN4QMapI9QDateTimeN6Marble18GeoDataCoordinatesEE13detach_helperEv@Base 4:15.08.0
 (optional=templinst)_ZN4QMapIN6Marble13DownloadUsageEPNS0_16DownloadQueueSetEE13detach_helperEv@Base 4:15.08.0
 (optional=templinst)_ZN4QMapIN6Marble13DownloadUsageEPNS0_16DownloadQueueSetEED1Ev@Base 4:15.08.0
 (optional=templinst)_ZN4QMapIN6Marble13DownloadUsageEPNS0_16DownloadQueueSetEED2Ev@Base 4:15.08.0
 (optional=templinst|arch=!ppc64el)_ZN4QMapIN6Marble13PixmapElementE7QPixmapE13detach_helperEv@Base 4:15.08.0
 (optional=templinst)_ZN4QMapIN6Marble13PixmapElementE7QPixmapE5eraseENS3_8iteratorE@Base 4:15.08.0
 (optional=templinst|arch=!ppc64el)_ZN4QMapIN6Marble14WaypointParser5FieldEiE13detach_helperEv@Base 4:15.08.0
 (optional=templinst|arch=!ppc64el)_ZN4QMapIN6Marble14WaypointParser5FieldEiED1Ev@Base 4:15.08.0
 (optional=templinst|arch=!ppc64el)_ZN4QMapIN6Marble14WaypointParser5FieldEiED2Ev@Base 4:15.08.0
 (optional=templinst|arch=!ppc64el)_ZN4QMapIN6Marble6TileIdE5QListIPKNS0_16GeoDataPlacemarkEEE13detach_helperEv@Base 4:15.08.0
 (optional=templinst|arch=!ppc64el)_ZN4QMapIN6Marble6TileIdE5QListIPNS0_15GeoGraphicsItemEEE13detach_helperEv@Base 4:15.08.0
 (optional=templinst|arch=!ppc64el)_ZN4QMapIN6Marble8Maneuver9DirectionE7QStringE13detach_helperEv@Base 4:15.08.0
 (optional=templinst)_ZN4QMapIN6Marble8Maneuver9DirectionE7QStringED1Ev@Base 4:15.08.0
 (optional=templinst)_ZN4QMapIN6Marble8Maneuver9DirectionE7QStringED2Ev@Base 4:15.08.0
 (optional=templinst)_ZN4QMapIN6Marble8Maneuver9DirectionE7QStringEixERKS2_@Base 4:15.08.0
 (optional=templinst|arch=!ppc64el)_ZN4QMapIP13QNetworkReplyPN6Marble15FetchPreviewJobEE13detach_helperEv@Base 4:15.08.0
 (optional=templinst|arch=ppc64el)_ZN4QMapIP13QNetworkReplyPN6Marble15FetchPreviewJobEE4takeERKS1_@Base 4:15.08.0
 (optional=templinst|arch=!ppc64el)_ZN4QMapIP13QNetworkReplyiE13detach_helperEv@Base 4:15.08.0
 (optional=templinst|arch=!ppc64el)_ZN4QMapIPN6Marble22AbstractDataPluginItemEP10QQuickItemE13detach_helperEv@Base 4:15.08.0
 (optional=templinst)_ZN4QMapIi21QPersistentModelIndexE13detach_helperEv@Base 4:15.08.0
 (optional=templinst)_ZN4QMapIi21QPersistentModelIndexE4takeERKi@Base 4:15.08.0
 (optional=templinst)_ZN4QMapIi21QPersistentModelIndexE5eraseENS1_8iteratorE@Base 4:15.08.0
 (optional=templinst)_ZN4QMapIi21QPersistentModelIndexE6removeERKi@Base 4:15.08.0
 (optional=templinst|arch=!ppc64el)_ZN4QMapIiiE13detach_helperEv@Base 4:15.08.0
 (optional=templinst)_ZN5QHashI21QPersistentModelIndexiE11deleteNode2EPN9QHashData4NodeE@Base 4:15.08.0
 (optional=templinst|arch=!ppc64el)_ZN5QHashI21QPersistentModelIndexiE13detach_helperEv@Base 4:15.08.0
 (optional=templinst)_ZN5QHashI21QPersistentModelIndexiE13duplicateNodeEPN9QHashData4NodeEPv@Base 4:15.08.0
 (optional=templinst|arch=amd64 armhf i386)_ZN5QHashI21QPersistentModelIndexiE4takeERKS0_@Base 4:15.08.0
 (optional=templinst)_ZN5QHashI21QPersistentModelIndexiE6removeERKS0_@Base 4:15.08.0
 (optional=templinst)_ZN5QHashI4QUrl6QImageE11deleteNode2EPN9QHashData4NodeE@Base 4:15.08.0
 (optional=templinst|arch=amd64 armhf i386)_ZN5QHashI4QUrl6QImageE13detach_helperEv@Base 4:15.08.0
 (optional=templinst)_ZN5QHashI4QUrl6QImageE13duplicateNodeEPN9QHashData4NodeEPv@Base 4:15.08.0
 (optional=templinst)_ZN5QHashI5QPairI7QStringS1_EPKN6Marble12GeoTagWriterEE11deleteNode2EPN9QHashData4NodeE@Base 4:15.08.0
 (optional=templinst)_ZN5QHashI5QPairI7QStringS1_EPKN6Marble12GeoTagWriterEE13duplicateNodeEPN9QHashData4NodeEPv@Base 4:15.08.0
 (optional=templinst)_ZN5QHashI5QPairI7QStringS1_EPKN6Marble12GeoTagWriterEED1Ev@Base 4:15.08.0
 (optional=templinst)_ZN5QHashI5QPairI7QStringS1_EPKN6Marble12GeoTagWriterEED2Ev@Base 4:15.08.0
 (optional=templinst)_ZN5QHashI5QPairI7QStringS1_EPKN6Marble13GeoTagHandlerEE11deleteNode2EPN9QHashData4NodeE@Base 4:15.08.0
 (optional=templinst|arch=!ppc64el)_ZN5QHashI5QPairI7QStringS1_EPKN6Marble13GeoTagHandlerEE13detach_helperEv@Base 4:15.08.0
 (optional=templinst)_ZN5QHashI5QPairI7QStringS1_EPKN6Marble13GeoTagHandlerEE13duplicateNodeEPN9QHashData4NodeEPv@Base 4:15.08.0
 (optional=templinst|arch=arm64 powerpc ppc64el)_ZN5QHashI5QPairI7QStringS1_EPKN6Marble13GeoTagHandlerEE6removeERKS2_@Base 4:15.08.0
 (optional=templinst)_ZN5QHashI7QString15QHashDummyValueE11deleteNode2EPN9QHashData4NodeE@Base 4:15.08.0
 (optional=templinst|arch=!ppc64el)_ZN5QHashI7QString15QHashDummyValueE13detach_helperEv@Base 4:15.08.0
 (optional=templinst)_ZN5QHashI7QString15QHashDummyValueE13duplicateNodeEPN9QHashData4NodeEPv@Base 4:15.08.0
 (optional=templinst|arch=ppc64el)_ZN5QHashI7QString15QHashDummyValueE6insertERKS0_RKS1_@Base 4:15.08.0
 (optional=templinst)_ZN5QHashI7QString15QHashDummyValueE6removeERKS0_@Base 4:15.08.0
 (optional=templinst)_ZN5QHashI7QString15QHashDummyValueED1Ev@Base 4:15.08.0
 (optional=templinst)_ZN5QHashI7QString15QHashDummyValueED2Ev@Base 4:15.08.0
 (optional=templinst)_ZN5QHashI7QString8QVariantE11deleteNode2EPN9QHashData4NodeE@Base 4:15.08.0
 (optional=templinst|arch=!ppc64el)_ZN5QHashI7QString8QVariantE13detach_helperEv@Base 4:15.08.0
 (optional=templinst)_ZN5QHashI7QString8QVariantE13duplicateNodeEPN9QHashData4NodeEPv@Base 4:15.08.0
 (optional=templinst)_ZN5QHashI7QString8QVariantED1Ev@Base 4:15.08.0
 (optional=templinst)_ZN5QHashI7QString8QVariantED2Ev@Base 4:15.08.0
 (optional=templinst)_ZN5QHashI7QStringN6Marble11GeoDataDataEE11deleteNode2EPN9QHashData4NodeE@Base 4:15.08.0
 (optional=templinst|arch=!ppc64el)_ZN5QHashI7QStringN6Marble11GeoDataDataEE13detach_helperEv@Base 4:15.08.0
 (optional=templinst)_ZN5QHashI7QStringN6Marble11GeoDataDataEE13duplicateNodeEPN9QHashData4NodeEPv@Base 4:15.08.0
 (optional=templinst)_ZN5QHashI7QStringN6Marble17GeoDataSchemaDataEE11deleteNode2EPN9QHashData4NodeE@Base 4:15.08.0
 (optional=templinst|arch=!ppc64el)_ZN5QHashI7QStringN6Marble17GeoDataSchemaDataEE13detach_helperEv@Base 4:15.08.0
 (optional=templinst)_ZN5QHashI7QStringN6Marble17GeoDataSchemaDataEE13duplicateNodeEPN9QHashData4NodeEPv@Base 4:15.08.0
 (optional=templinst|arch=!ppc64el)_ZN5QHashI7QStringN6Marble17GeoDataSchemaDataEE4takeERKS0_@Base 4:15.08.0
 (optional=templinst)_ZN5QHashI7QStringN6Marble17GeoDataSimpleDataEE11deleteNode2EPN9QHashData4NodeE@Base 4:15.08.0
 (optional=templinst|arch=!ppc64el)_ZN5QHashI7QStringN6Marble17GeoDataSimpleDataEE13detach_helperEv@Base 4:15.08.0
 (optional=templinst)_ZN5QHashI7QStringN6Marble17GeoDataSimpleDataEE13duplicateNodeEPN9QHashData4NodeEPv@Base 4:15.08.0
 (optional=templinst)_ZN5QHashI7QStringN6Marble18GeoDataSimpleFieldEE11deleteNode2EPN9QHashData4NodeE@Base 4:15.08.0
 (optional=templinst|arch=!ppc64el)_ZN5QHashI7QStringN6Marble18GeoDataSimpleFieldEE13detach_helperEv@Base 4:15.08.0
 (optional=templinst)_ZN5QHashI7QStringN6Marble18GeoDataSimpleFieldEE13duplicateNodeEPN9QHashData4NodeEPv@Base 4:15.08.0
 (optional=templinst)_ZN5QHashI7QStringPKN6Marble8BlendingEE11deleteNode2EPN9QHashData4NodeE@Base 4:15.08.0
 (optional=templinst|arch=!ppc64el)_ZN5QHashI7QStringPKN6Marble8BlendingEE13detach_helperEv@Base 4:15.08.0
 (optional=templinst)_ZN5QHashI7QStringPKN6Marble8BlendingEE13duplicateNodeEPN9QHashData4NodeEPv@Base 4:15.08.0
 (optional=templinst)_ZN5QHashI7QStringPKN6Marble8BlendingEE6insertERKS0_RKS4_@Base 4:15.08.0
 (optional=templinst)_ZN5QHashI7QStringPKN6Marble8BlendingEE6removeERKS0_@Base 4:15.08.0
 (optional=templinst|arch=amd64 armhf)_ZN5QHashI7QStringPKN6Marble8BlendingEED1Ev@Base 4:15.08.0
 (optional=templinst|arch=amd64 armhf)_ZN5QHashI7QStringPKN6Marble8BlendingEED2Ev@Base 4:15.08.0
 (optional=templinst)_ZN5QHashI7QStringPN6Marble15GeoDataDocumentEE11deleteNode2EPN9QHashData4NodeE@Base 4:15.08.0
 (optional=templinst|arch=!ppc64el)_ZN5QHashI7QStringPN6Marble15GeoDataDocumentEE13detach_helperEv@Base 4:15.08.0
 (optional=templinst)_ZN5QHashI7QStringPN6Marble15GeoDataDocumentEE13duplicateNodeEPN9QHashData4NodeEPv@Base 4:15.08.0
 (optional=templinst)_ZN5QHashI7QStringPN6Marble15GeoDataDocumentEE6removeERKS0_@Base 4:15.08.0
 (optional=templinst)_ZN5QHashI7QStringPN6Marble22AbstractDataPluginItemEE11deleteNode2EPN9QHashData4NodeE@Base 4:15.08.0
 (optional=templinst|arch=!ppc64el)_ZN5QHashI7QStringPN6Marble22AbstractDataPluginItemEE13detach_helperEv@Base 4:15.08.0
 (optional=templinst)_ZN5QHashI7QStringPN6Marble22AbstractDataPluginItemEE13duplicateNodeEPN9QHashData4NodeEPv@Base 4:15.08.0
 (optional=templinst)_ZN5QHashI7QStringPN6Marble22AbstractDataPluginItemEE5eraseENS4_8iteratorE@Base 4:15.08.0
 (optional=templinst)_ZN5QHashI7QStringPN6Marble22GeoDataSimpleArrayDataEE11deleteNode2EPN9QHashData4NodeE@Base 4:15.08.0
 (optional=templinst|arch=!ppc64el)_ZN5QHashI7QStringPN6Marble22GeoDataSimpleArrayDataEE13detach_helperEv@Base 4:15.08.0
 (optional=templinst)_ZN5QHashI7QStringPN6Marble22GeoDataSimpleArrayDataEE13duplicateNodeEPN9QHashData4NodeEPv@Base 4:15.08.0
 (optional=templinst)_ZN5QHashI7QStringS0_E11deleteNode2EPN9QHashData4NodeE@Base 4:15.08.0
 (optional=templinst|arch=!ppc64el)_ZN5QHashI7QStringS0_E13detach_helperEv@Base 4:15.08.0
 (optional=templinst)_ZN5QHashI7QStringS0_E13duplicateNodeEPN9QHashData4NodeEPv@Base 4:15.08.0
 (optional=templinst|arch=amd64 armhf i386)_ZN5QHashI7QStringS0_ED1Ev@Base 4:15.08.0
 (optional=templinst|arch=amd64 armhf i386)_ZN5QHashI7QStringS0_ED2Ev@Base 4:15.08.0
 (optional=templinst)_ZN5QHashI7QStringS_IS0_8QVariantEE11deleteNode2EPN9QHashData4NodeE@Base 4:15.08.0
 (optional=templinst|arch=!ppc64el)_ZN5QHashI7QStringS_IS0_8QVariantEE13detach_helperEv@Base 4:15.08.0
 (optional=templinst)_ZN5QHashI7QStringS_IS0_8QVariantEE13duplicateNodeEPN9QHashData4NodeEPv@Base 4:15.08.0
 (optional=templinst|arch=arm64 powerpc ppc64el)_ZN5QHashI7QStringS_IS0_8QVariantEE6removeERKS0_@Base 4:15.08.0
 (optional=templinst)_ZN5QHashI7QStringS_IS0_8QVariantEED1Ev@Base 4:15.08.0
 (optional=templinst)_ZN5QHashI7QStringS_IS0_8QVariantEED2Ev@Base 4:15.08.0
 (optional=templinst)_ZN5QHashIN6Marble18GeoDataCoordinatesENS0_16OsmPlacemarkDataEE11deleteNode2EPN9QHashData4NodeE@Base 4:15.08.0
 (optional=templinst|arch=!ppc64el)_ZN5QHashIN6Marble18GeoDataCoordinatesENS0_16OsmPlacemarkDataEE13detach_helperEv@Base 4:15.08.0
 (optional=templinst)_ZN5QHashIN6Marble18GeoDataCoordinatesENS0_16OsmPlacemarkDataEE13duplicateNodeEPN9QHashData4NodeEPv@Base 4:15.08.0
 (optional=templinst|arch=amd64 armhf i386)_ZN5QHashIN6Marble18GeoDataCoordinatesENS0_16OsmPlacemarkDataEED1Ev@Base 4:15.08.0
 (optional=templinst|arch=amd64 armhf i386)_ZN5QHashIN6Marble18GeoDataCoordinatesENS0_16OsmPlacemarkDataEED2Ev@Base 4:15.08.0
 (optional=templinst)_ZN5QHashIN6Marble6TileIdE15QHashDummyValueE11deleteNode2EPN9QHashData4NodeE@Base 4:15.08.0
 (optional=templinst|arch=!ppc64el)_ZN5QHashIN6Marble6TileIdE15QHashDummyValueE13detach_helperEv@Base 4:15.08.0
 (optional=templinst)_ZN5QHashIN6Marble6TileIdE15QHashDummyValueE13duplicateNodeEPN9QHashData4NodeEPv@Base 4:15.08.0
 (optional=templinst|arch=powerpc ppc64el)_ZN5QHashIN6Marble6TileIdE15QHashDummyValueED1Ev@Base 4:15.08.0
 (optional=templinst|arch=powerpc ppc64el)_ZN5QHashIN6Marble6TileIdE15QHashDummyValueED2Ev@Base 4:15.08.0
 (optional=templinst)_ZN5QHashIN6Marble6TileIdEN6QCacheIS1_K6QImageE4NodeEE11deleteNode2EPN9QHashData4NodeE@Base 4:15.08.0
 (optional=templinst|arch=!ppc64el)_ZN5QHashIN6Marble6TileIdEN6QCacheIS1_K6QImageE4NodeEE13detach_helperEv@Base 4:15.08.0
 (optional=templinst)_ZN5QHashIN6Marble6TileIdEN6QCacheIS1_K6QImageE4NodeEE13duplicateNodeEPN9QHashData4NodeEPv@Base 4:15.08.0
 (optional=templinst)_ZN5QHashIN6Marble6TileIdEN6QCacheIS1_K6QImageE4NodeEE6removeERKS1_@Base 4:15.08.0
 (optional=templinst)_ZN5QHashIN6Marble6TileIdEN6QCacheIS1_K7QPixmapE4NodeEE11deleteNode2EPN9QHashData4NodeE@Base 4:15.08.0
 (optional=templinst|arch=!ppc64el)_ZN5QHashIN6Marble6TileIdEN6QCacheIS1_K7QPixmapE4NodeEE13detach_helperEv@Base 4:15.08.0
 (optional=templinst)_ZN5QHashIN6Marble6TileIdEN6QCacheIS1_K7QPixmapE4NodeEE13duplicateNodeEPN9QHashData4NodeEPv@Base 4:15.08.0
 (optional=templinst)_ZN5QHashIN6Marble6TileIdEN6QCacheIS1_K7QPixmapE4NodeEE6removeERKS1_@Base 4:15.08.0
 (optional=templinst)_ZN5QHashIN6Marble6TileIdEN6QCacheIS1_NS0_11StackedTileEE4NodeEE11deleteNode2EPN9QHashData4NodeE@Base 4:15.08.0
 (optional=templinst|arch=!ppc64el)_ZN5QHashIN6Marble6TileIdEN6QCacheIS1_NS0_11StackedTileEE4NodeEE13detach_helperEv@Base 4:15.08.0
 (optional=templinst)_ZN5QHashIN6Marble6TileIdEN6QCacheIS1_NS0_11StackedTileEE4NodeEE13duplicateNodeEPN9QHashData4NodeEPv@Base 4:15.08.0
 (optional=templinst|arch=!ppc64el)_ZN5QHashIN6Marble6TileIdEN6QCacheIS1_NS0_11StackedTileEE4NodeEE6removeERKS1_@Base 4:15.08.0
 (optional=templinst)_ZN5QHashIN6Marble6TileIdEN6QCacheIS1_NS0_15VectorTileModel13CacheDocumentEE4NodeEE11deleteNode2EPN9QHashData4NodeE@Base 4:15.08.0
 (optional=templinst|arch=!ppc64el)_ZN5QHashIN6Marble6TileIdEN6QCacheIS1_NS0_15VectorTileModel13CacheDocumentEE4NodeEE13detach_helperEv@Base 4:15.08.0
 (optional=templinst)_ZN5QHashIN6Marble6TileIdEN6QCacheIS1_NS0_15VectorTileModel13CacheDocumentEE4NodeEE13duplicateNodeEPN9QHashData4NodeEPv@Base 4:15.08.0
 (optional=templinst)_ZN5QHashIN6Marble6TileIdEN6QCacheIS1_NS0_15VectorTileModel13CacheDocumentEE4NodeEE6removeERKS1_@Base 4:15.08.0
 (optional=templinst)_ZN5QHashIN6Marble6TileIdEPNS0_11StackedTileEE11deleteNode2EPN9QHashData4NodeE@Base 4:15.08.0
 (optional=templinst|arch=!ppc64el)_ZN5QHashIN6Marble6TileIdEPNS0_11StackedTileEE13detach_helperEv@Base 4:15.08.0
 (optional=templinst)_ZN5QHashIN6Marble6TileIdEPNS0_11StackedTileEE13duplicateNodeEPN9QHashData4NodeEPv@Base 4:15.08.0
 (optional=templinst)_ZN5QHashIN6Marble6TileIdEPNS0_11StackedTileEE6removeERKS1_@Base 4:15.08.0
 (optional=templinst)_ZN5QHashIN6Marble6TileIdEPNS0_11StackedTileEED1Ev@Base 4:15.08.0
 (optional=templinst)_ZN5QHashIN6Marble6TileIdEPNS0_11StackedTileEED2Ev@Base 4:15.08.0
 (optional=templinst)_ZN5QHashIPKN6Marble14GeoDataFeatureENS0_6TileIdEE11deleteNode2EPN9QHashData4NodeE@Base 4:15.08.0
 (optional=templinst|arch=!ppc64el)_ZN5QHashIPKN6Marble14GeoDataFeatureENS0_6TileIdEE13detach_helperEv@Base 4:15.08.0
 (optional=templinst)_ZN5QHashIPKN6Marble14GeoDataFeatureENS0_6TileIdEE13duplicateNodeEPN9QHashData4NodeEPv@Base 4:15.08.0
 (optional=templinst)_ZN5QHashIPKN6Marble15GeoDataGeometryENS0_16OsmPlacemarkDataEE11deleteNode2EPN9QHashData4NodeE@Base 4:15.08.0
 (optional=templinst|arch=!ppc64el)_ZN5QHashIPKN6Marble15GeoDataGeometryENS0_16OsmPlacemarkDataEE13detach_helperEv@Base 4:15.08.0
 (optional=templinst)_ZN5QHashIPKN6Marble15GeoDataGeometryENS0_16OsmPlacemarkDataEE13duplicateNodeEPN9QHashData4NodeEPv@Base 4:15.08.0
 (optional=templinst)_ZN5QHashIPKN6Marble16GeoDataPlacemarkEPNS0_16VisiblePlacemarkEE11deleteNode2EPN9QHashData4NodeE@Base 4:15.08.0
 (optional=templinst|arch=!ppc64el)_ZN5QHashIPKN6Marble16GeoDataPlacemarkEPNS0_16VisiblePlacemarkEE13detach_helperEv@Base 4:15.08.0
 (optional=templinst)_ZN5QHashIPKN6Marble16GeoDataPlacemarkEPNS0_16VisiblePlacemarkEE13duplicateNodeEPN9QHashData4NodeEPv@Base 4:15.08.0
 (optional=templinst)_ZN5QHashIPKN6Marble16GeoDataPlacemarkEPNS0_16VisiblePlacemarkEE4takeERKS3_@Base 4:15.08.0
 (optional=templinst)_ZN5QHashIPN6Marble18MarbleGraphicsItemE15QHashDummyValueE11deleteNode2EPN9QHashData4NodeE@Base 4:15.08.0
 (optional=templinst|arch=!ppc64el)_ZN5QHashIPN6Marble18MarbleGraphicsItemE15QHashDummyValueE13detach_helperEv@Base 4:15.08.0
 (optional=templinst)_ZN5QHashIPN6Marble18MarbleGraphicsItemE15QHashDummyValueE13duplicateNodeEPN9QHashData4NodeEPv@Base 4:15.08.0
 (optional=templinst|arch=amd64 armhf i386)_ZN5QHashIPN6Marble18MarbleGraphicsItemE15QHashDummyValueE6removeERKS2_@Base 4:15.08.0
 (optional=templinst)_ZN5QHashIPN6Marble18MarbleGraphicsItemE15QHashDummyValueED1Ev@Base 4:15.08.0
 (optional=templinst)_ZN5QHashIPN6Marble18MarbleGraphicsItemE15QHashDummyValueED2Ev@Base 4:15.08.0
 (optional=templinst)_ZN5QHashIPN6Marble18ScreenGraphicsItemE6QFlagsIN2Qt13AlignmentFlagEEE11deleteNode2EPN9QHashData4NodeE@Base 4:15.08.0
 (optional=templinst)_ZN5QHashIPN6Marble18ScreenGraphicsItemE6QFlagsIN2Qt13AlignmentFlagEEE13duplicateNodeEPN9QHashData4NodeEPv@Base 4:15.08.0
 (optional=templinst)_ZN5QHashIPN6Marble19RoutingRunnerPluginEPNS1_12ConfigWidgetEE11deleteNode2EPN9QHashData4NodeE@Base 4:15.08.0
 (optional=templinst|arch=!ppc64el)_ZN5QHashIPN6Marble19RoutingRunnerPluginEPNS1_12ConfigWidgetEE13detach_helperEv@Base 4:15.08.0
 (optional=templinst)_ZN5QHashIPN6Marble19RoutingRunnerPluginEPNS1_12ConfigWidgetEE13duplicateNodeEPN9QHashData4NodeEPv@Base 4:15.08.0
 (optional=templinst)_ZN5QHashIi10QByteArrayE11deleteNode2EPN9QHashData4NodeE@Base 4:15.08.0
 (optional=templinst|arch=!ppc64el)_ZN5QHashIi10QByteArrayE13detach_helperEv@Base 4:15.08.0
 (optional=templinst)_ZN5QHashIi10QByteArrayE13duplicateNodeEPN9QHashData4NodeEPv@Base 4:15.08.0
 (optional=templinst)_ZN5QHashIi10QByteArrayED1Ev@Base 4:15.08.0
 (optional=templinst)_ZN5QHashIi10QByteArrayED2Ev@Base 4:15.08.0
 (optional=templinst)_ZN5QHashIi10QByteArrayEixERKi@Base 4:15.08.0
 (optional=templinst)_ZN5QHashIi21QPersistentModelIndexE11deleteNode2EPN9QHashData4NodeE@Base 4:15.08.0
 (optional=templinst)_ZN5QHashIi21QPersistentModelIndexE13duplicateNodeEPN9QHashData4NodeEPv@Base 4:15.08.0
 (optional=templinst)_ZN5QHashIiiE11deleteNode2EPN9QHashData4NodeE@Base 4:15.08.0
 (optional=templinst)_ZN5QHashIiiE13duplicateNodeEPN9QHashData4NodeEPv@Base 4:15.08.0
 (optional=templinst)_ZN5QHashIiiE6insertERKiS2_@Base 4:15.08.0
 (optional=templinst)_ZN5QListI10QByteArrayED1Ev@Base 4:15.08.0
 (optional=templinst)_ZN5QListI10QByteArrayED2Ev@Base 4:15.08.0
 (optional=templinst)_ZN5QListI11QModelIndexE13detach_helperEi@Base 4:15.08.0
 (optional=templinst)_ZN5QListI11QModelIndexE18detach_helper_growEii@Base 4:15.08.0
 (optional=templinst)_ZN5QListI11QModelIndexE6appendERKS0_@Base 4:15.08.0
 (optional=templinst)_ZN5QListI11QModelIndexEC1ERKS1_@Base 4:15.08.0
 (optional=templinst)_ZN5QListI11QModelIndexEC2ERKS1_@Base 4:15.08.0
 (optional=templinst)_ZN5QListI11QModelIndexED1Ev@Base 4:15.08.0
 (optional=templinst)_ZN5QListI11QModelIndexED2Ev@Base 4:15.08.0
 (optional=templinst)_ZN5QListI19QItemSelectionRangeED1Ev@Base 4:15.08.0
 (optional=templinst)_ZN5QListI19QItemSelectionRangeED2Ev@Base 4:15.08.0
 (optional=templinst)_ZN5QListI21QPersistentModelIndexE13detach_helperEi@Base 4:15.08.0
 (optional=templinst)_ZN5QListI21QPersistentModelIndexE18detach_helper_growEii@Base 4:15.08.0
 (optional=templinst)_ZN5QListI21QPersistentModelIndexE6appendERKS0_@Base 4:15.08.0
 (optional=templinst)_ZN5QListI21QPersistentModelIndexE9removeAllERKS0_@Base 4:15.08.0
 (optional=templinst)_ZN5QListI21QPersistentModelIndexE9removeOneERKS0_@Base 4:15.08.0
 (optional=templinst)_ZN5QListI21QPersistentModelIndexED1Ev@Base 4:15.08.0
 (optional=templinst)_ZN5QListI21QPersistentModelIndexED2Ev@Base 4:15.08.0
 (optional=templinst)_ZN5QListI5QPairIN6Marble17DownloadPolicyKeyEPNS1_16DownloadQueueSetEEE13detach_helperEi@Base 4:15.08.0
 (optional=templinst)_ZN5QListI5QPairIN6Marble17DownloadPolicyKeyEPNS1_16DownloadQueueSetEEE18detach_helper_growEii@Base 4:15.08.0
 (optional=templinst)_ZN5QListI5QPairIN6Marble17DownloadPolicyKeyEPNS1_16DownloadQueueSetEEE6appendERKS5_@Base 4:15.08.0
 (optional=templinst)_ZN5QListI5QPairIN6Marble17DownloadPolicyKeyEPNS1_16DownloadQueueSetEEED1Ev@Base 4:15.08.0
 (optional=templinst)_ZN5QListI5QPairIN6Marble17DownloadPolicyKeyEPNS1_16DownloadQueueSetEEED2Ev@Base 4:15.08.0
 (optional=templinst)_ZN5QListI5QPairIiN6Marble20NewstuffModelPrivate10UserActionEEE13detach_helperEi@Base 4:15.08.0
 (optional=templinst)_ZN5QListI5QPairIiN6Marble20NewstuffModelPrivate10UserActionEEE18detach_helper_growEii@Base 4:15.08.0
 (optional=templinst)_ZN5QListI5QPairIiN6Marble20NewstuffModelPrivate10UserActionEEE6appendERKS4_@Base 4:15.08.0
 (optional=templinst)_ZN5QListI5QPairIiN6Marble20NewstuffModelPrivate10UserActionEEE9removeAllERKS4_@Base 4:15.08.0
 (optional=templinst)_ZN5QListI5QPairIiN6Marble20NewstuffModelPrivate10UserActionEEEC1ERKS5_@Base 4:15.08.0
 (optional=templinst)_ZN5QListI5QPairIiN6Marble20NewstuffModelPrivate10UserActionEEEC2ERKS5_@Base 4:15.08.0
 (optional=templinst|arch=!ppc64el)_ZN5QListI5QPairIiN6Marble20NewstuffModelPrivate10UserActionEEED1Ev@Base 4:15.08.0
 (optional=templinst|arch=!ppc64el)_ZN5QListI5QPairIiN6Marble20NewstuffModelPrivate10UserActionEEED2Ev@Base 4:15.08.0
 (optional=templinst)_ZN5QListI5QSizeE18detach_helper_growEii@Base 4:15.08.0
 (optional=templinst|arch=!ppc64el)_ZN5QListI5QSizeE6appendERKS0_@Base 4:15.08.0
 (optional=templinst|arch=!amd64 !ppc64el)_ZN5QListI5QSizeEC1ERKS1_@Base 4:15.08.0
 (optional=templinst|arch=!amd64 !ppc64el)_ZN5QListI5QSizeEC2ERKS1_@Base 4:15.08.0
 (optional=templinst|arch=!ppc64el)_ZN5QListI5QSizeED1Ev@Base 4:15.08.0
 (optional=templinst|arch=!ppc64el)_ZN5QListI5QSizeED2Ev@Base 4:15.08.0
 (optional=templinst)_ZN5QListI6QColorE13detach_helperEi@Base 4:15.08.0
 (optional=templinst)_ZN5QListI6QColorE18detach_helper_growEii@Base 4:15.08.0
 (optional=templinst)_ZN5QListI6QColorE6appendERKS0_@Base 4:15.08.0
 (optional=templinst)_ZN5QListI6QColorEC1ERKS1_@Base 4:15.08.0
 (optional=templinst)_ZN5QListI6QColorEC2ERKS1_@Base 4:15.08.0
 (optional=templinst)_ZN5QListI6QColorED1Ev@Base 4:15.08.0
 (optional=templinst)_ZN5QListI6QColorED2Ev@Base 4:15.08.0
 (optional=templinst)_ZN5QListI6QRectFE18detach_helper_growEii@Base 4:15.08.0
 (optional=templinst|arch=!ppc64el)_ZN5QListI6QRectFE6appendERKS0_@Base 4:15.08.0
 (optional=templinst)_ZN5QListI6QRectFEC1ERKS1_@Base 4:15.08.0
 (optional=templinst)_ZN5QListI6QRectFEC2ERKS1_@Base 4:15.08.0
 (optional=templinst)_ZN5QListI6QRectFED1Ev@Base 4:15.08.0
 (optional=templinst)_ZN5QListI6QRectFED2Ev@Base 4:15.08.0
 (optional=templinst)_ZN5QListI7QPointFE13detach_helperEi@Base 4:15.08.0
 (optional=templinst)_ZN5QListI7QPointFE18detach_helper_growEii@Base 4:15.08.0
 (optional=templinst)_ZN5QListI7QPointFE6appendERKS0_@Base 4:15.08.0
 (optional=templinst)_ZN5QListI7QPointFEC1ERKS1_@Base 4:15.08.0
 (optional=templinst)_ZN5QListI7QPointFEC2ERKS1_@Base 4:15.08.0
 (optional=templinst)_ZN5QListI7QPointFED1Ev@Base 4:15.08.0
 (optional=templinst)_ZN5QListI7QPointFED2Ev@Base 4:15.08.0
 (optional=templinst)_ZN5QListI7QRegionED1Ev@Base 4:15.08.0
 (optional=templinst)_ZN5QListI7QRegionED2Ev@Base 4:15.08.0
 (optional=templinst)_ZN5QListI7QStringE13detach_helperEi@Base 4:15.08.0
 (optional=templinst)_ZN5QListI7QStringE18detach_helper_growEii@Base 4:15.08.0
 (optional=templinst)_ZN5QListI7QStringE6appendERKS0_@Base 4:15.08.0
 (optional=templinst)_ZN5QListI7QStringE9removeAllERKS0_@Base 4:15.08.0
 (optional=templinst)_ZN5QListI7QStringE9removeOneERKS0_@Base 4:15.08.0
 (optional=templinst)_ZN5QListI7QStringEC1ERKS1_@Base 4:15.08.0
 (optional=templinst)_ZN5QListI7QStringEC2ERKS1_@Base 4:15.08.0
 (optional=templinst)_ZN5QListI7QStringED1Ev@Base 4:15.08.0
 (optional=templinst)_ZN5QListI7QStringED2Ev@Base 4:15.08.0
 (optional=templinst)_ZN5QListI7QStringEpLERKS1_@Base 4:15.08.0
 (optional=templinst)_ZN5QListI8QVariantE18detach_helper_growEii@Base 4:15.08.0
 (optional=templinst|arch=!ppc64el)_ZN5QListI8QVariantE6appendERKS0_@Base 4:15.08.0
 (optional=templinst)_ZN5QListI8QVariantEC1ERKS1_@Base 4:15.08.0
 (optional=templinst)_ZN5QListI8QVariantEC2ERKS1_@Base 4:15.08.0
 (optional=templinst)_ZN5QListI9QDateTimeE13detach_helperEi@Base 4:15.08.0
 (optional=templinst)_ZN5QListI9QDateTimeE18detach_helper_growEii@Base 4:15.08.0
 (optional=templinst)_ZN5QListI9QDateTimeE6appendERKS0_@Base 4:15.08.0
 (optional=templinst)_ZN5QListI9QDateTimeEC1ERKS1_@Base 4:15.08.0
 (optional=templinst)_ZN5QListI9QDateTimeEC2ERKS1_@Base 4:15.08.0
 (optional=templinst)_ZN5QListI9QDateTimeED1Ev@Base 4:15.08.0
 (optional=templinst)_ZN5QListI9QDateTimeED2Ev@Base 4:15.08.0
 (optional=templinst)_ZN5QListI9QFileInfoE13detach_helperEi@Base 4:15.08.0
 (optional=templinst)_ZN5QListI9QFileInfoEC1ERKS1_@Base 4:15.08.0
 (optional=templinst)_ZN5QListI9QFileInfoEC2ERKS1_@Base 4:15.08.0
 (optional=templinst)_ZN5QListI9QFileInfoED1Ev@Base 4:15.08.0
 (optional=templinst)_ZN5QListI9QFileInfoED2Ev@Base 4:15.08.0
 (optional=templinst)_ZN5QListIN6Marble11MovieFormatEE13detach_helperEi@Base 4:15.08.0
 (optional=templinst)_ZN5QListIN6Marble11MovieFormatEE18detach_helper_growEii@Base 4:15.08.0
 (optional=templinst)_ZN5QListIN6Marble11MovieFormatEE6appendERKS1_@Base 4:15.08.0
 (optional=templinst)_ZN5QListIN6Marble11MovieFormatEEC1ERKS2_@Base 4:15.08.0
 (optional=templinst)_ZN5QListIN6Marble11MovieFormatEEC2ERKS2_@Base 4:15.08.0
 (optional=templinst)_ZN5QListIN6Marble11MovieFormatEED1Ev@Base 4:15.08.0
 (optional=templinst)_ZN5QListIN6Marble11MovieFormatEED2Ev@Base 4:15.08.0
 (optional=templinst)_ZN5QListIN6Marble11RenderStateEE18detach_helper_growEii@Base 4:15.08.0
 (optional=templinst|arch=!ppc64el)_ZN5QListIN6Marble11RenderStateEE6appendERKS1_@Base 4:15.08.0
 (optional=templinst)_ZN5QListIN6Marble11RenderStateEEC1ERKS2_@Base 4:15.08.0
 (optional=templinst)_ZN5QListIN6Marble11RenderStateEEC2ERKS2_@Base 4:15.08.0
 (optional=templinst)_ZN5QListIN6Marble11RenderStateEED1Ev@Base 4:15.08.0
 (optional=templinst)_ZN5QListIN6Marble11RenderStateEED2Ev@Base 4:15.08.0
 (optional=templinst)_ZN5QListIN6Marble12GeoDataStyleEE13detach_helperEi@Base 4:15.08.0
 (optional=templinst)_ZN5QListIN6Marble12GeoDataStyleEE18detach_helper_growEii@Base 4:15.08.0
 (optional=templinst|arch=!ppc64el)_ZN5QListIN6Marble12GeoDataStyleEE6appendERKS1_@Base 4:15.08.0
 (optional=templinst)_ZN5QListIN6Marble12GeoDataStyleEEC1ERKS2_@Base 4:15.08.0
 (optional=templinst)_ZN5QListIN6Marble12GeoDataStyleEEC2ERKS2_@Base 4:15.08.0
 (optional=templinst)_ZN5QListIN6Marble12GeoDataStyleEED1Ev@Base 4:15.08.0
 (optional=templinst)_ZN5QListIN6Marble12GeoDataStyleEED2Ev@Base 4:15.08.0
 (optional=templinst)_ZN5QListIN6Marble12PluginAuthorEE18detach_helper_growEii@Base 4:15.08.0
 (optional=templinst)_ZN5QListIN6Marble12PluginAuthorEE6appendERKS1_@Base 4:15.08.0
 (optional=templinst)_ZN5QListIN6Marble12PluginAuthorEEC1ERKS2_@Base 4:15.08.0
 (optional=templinst)_ZN5QListIN6Marble12PluginAuthorEEC2ERKS2_@Base 4:15.08.0
 (optional=templinst)_ZN5QListIN6Marble12PluginAuthorEED1Ev@Base 4:15.08.0
 (optional=templinst)_ZN5QListIN6Marble12PluginAuthorEED2Ev@Base 4:15.08.0
 (optional=templinst)_ZN5QListIN6Marble12WaypointInfoEE13detach_helperEi@Base 4:15.08.0
 (optional=templinst)_ZN5QListIN6Marble12WaypointInfoEE18detach_helper_growEii@Base 4:15.08.0
 (optional=templinst)_ZN5QListIN6Marble12WaypointInfoEE6appendERKS1_@Base 4:15.08.0
 (optional=templinst)_ZN5QListIN6Marble12WaypointInfoEEC1ERKS2_@Base 4:15.08.0
 (optional=templinst)_ZN5QListIN6Marble12WaypointInfoEEC2ERKS2_@Base 4:15.08.0
 (optional=templinst)_ZN5QListIN6Marble12WaypointInfoEED1Ev@Base 4:15.08.0
 (optional=templinst)_ZN5QListIN6Marble12WaypointInfoEED2Ev@Base 4:15.08.0
 (optional=templinst)_ZN5QListIN6Marble13GeoDataSchemaEE13detach_helperEi@Base 4:15.08.0
 (optional=templinst)_ZN5QListIN6Marble13GeoDataSchemaEE18detach_helper_growEii@Base 4:15.08.0
 (optional=templinst|arch=!ppc64el)_ZN5QListIN6Marble13GeoDataSchemaEE6appendERKS1_@Base 4:15.08.0
 (optional=templinst)_ZN5QListIN6Marble13GeoDataSchemaEEC1ERKS2_@Base 4:15.08.0
 (optional=templinst)_ZN5QListIN6Marble13GeoDataSchemaEEC2ERKS2_@Base 4:15.08.0
 (optional=templinst)_ZN5QListIN6Marble13GeoDataSchemaEED1Ev@Base 4:15.08.0
 (optional=templinst)_ZN5QListIN6Marble13GeoDataSchemaEED2Ev@Base 4:15.08.0
 (optional=templinst)_ZN5QListIN6Marble14RoutingProfileEE13detach_helperEi@Base 4:15.08.0
 (optional=templinst)_ZN5QListIN6Marble14RoutingProfileEE18detach_helper_growEii@Base 4:15.08.0
 (optional=templinst)_ZN5QListIN6Marble14RoutingProfileEE6appendERKS1_@Base 4:15.08.0
 (optional=templinst)_ZN5QListIN6Marble14RoutingProfileEEC1ERKS2_@Base 4:15.08.0
 (optional=templinst)_ZN5QListIN6Marble14RoutingProfileEEC2ERKS2_@Base 4:15.08.0
 (optional=templinst)_ZN5QListIN6Marble14RoutingProfileEED1Ev@Base 4:15.08.0
 (optional=templinst)_ZN5QListIN6Marble14RoutingProfileEED2Ev@Base 4:15.08.0
 (optional=templinst)_ZN5QListIN6Marble15GeoDataStyleMapEE13detach_helperEi@Base 4:15.08.0
 (optional=templinst)_ZN5QListIN6Marble15GeoDataStyleMapEE18detach_helper_growEii@Base 4:15.08.0
 (optional=templinst|arch=!ppc64el)_ZN5QListIN6Marble15GeoDataStyleMapEE6appendERKS1_@Base 4:15.08.0
 (optional=templinst)_ZN5QListIN6Marble15GeoDataStyleMapEEC1ERKS2_@Base 4:15.08.0
 (optional=templinst)_ZN5QListIN6Marble15GeoDataStyleMapEEC2ERKS2_@Base 4:15.08.0
 (optional=templinst)_ZN5QListIN6Marble15GeoDataStyleMapEED1Ev@Base 4:15.08.0
 (optional=templinst)_ZN5QListIN6Marble15GeoDataStyleMapEED2Ev@Base 4:15.08.0
 (optional=templinst)_ZN5QListIN6Marble15GeoSceneGeodataEE13detach_helperEi@Base 4:15.08.0
 (optional=templinst)_ZN5QListIN6Marble15GeoSceneGeodataEE18detach_helper_growEii@Base 4:15.08.0
 (optional=templinst)_ZN5QListIN6Marble15GeoSceneGeodataEE6appendERKS1_@Base 4:15.08.0
 (optional=templinst)_ZN5QListIN6Marble15GeoSceneGeodataEEC1ERKS2_@Base 4:15.08.0
 (optional=templinst)_ZN5QListIN6Marble15GeoSceneGeodataEEC2ERKS2_@Base 4:15.08.0
 (optional=templinst|arch=!ppc64el)_ZN5QListIN6Marble15GeoSceneGeodataEED1Ev@Base 4:15.08.0
 (optional=templinst|arch=!ppc64el)_ZN5QListIN6Marble15GeoSceneGeodataEED2Ev@Base 4:15.08.0
 (optional=templinst)_ZN5QListIN6Marble17GeoDataSchemaDataEE13detach_helperEi@Base 4:15.08.0
 (optional=templinst)_ZN5QListIN6Marble17GeoDataSchemaDataEE18detach_helper_growEii@Base 4:15.08.0
 (optional=templinst|arch=!ppc64el)_ZN5QListIN6Marble17GeoDataSchemaDataEE6appendERKS1_@Base 4:15.08.0
 (optional=templinst)_ZN5QListIN6Marble17GeoDataSchemaDataEEC1ERKS2_@Base 4:15.08.0
 (optional=templinst)_ZN5QListIN6Marble17GeoDataSchemaDataEEC2ERKS2_@Base 4:15.08.0
 (optional=templinst)_ZN5QListIN6Marble17GeoDataSchemaDataEED1Ev@Base 4:15.08.0
 (optional=templinst)_ZN5QListIN6Marble17GeoDataSchemaDataEED2Ev@Base 4:15.08.0
 (optional=templinst)_ZN5QListIN6Marble17GeoDataSimpleDataEE13detach_helperEi@Base 4:15.08.0
 (optional=templinst)_ZN5QListIN6Marble17GeoDataSimpleDataEE18detach_helper_growEii@Base 4:15.08.0
 (optional=templinst|arch=!ppc64el)_ZN5QListIN6Marble17GeoDataSimpleDataEE6appendERKS1_@Base 4:15.08.0
 (optional=templinst)_ZN5QListIN6Marble17GeoDataSimpleDataEEC1ERKS2_@Base 4:15.08.0
 (optional=templinst)_ZN5QListIN6Marble17GeoDataSimpleDataEEC2ERKS2_@Base 4:15.08.0
 (optional=templinst)_ZN5QListIN6Marble17GeoDataSimpleDataEED1Ev@Base 4:15.08.0
 (optional=templinst)_ZN5QListIN6Marble17GeoDataSimpleDataEED2Ev@Base 4:15.08.0
 (optional=templinst)_ZN5QListIN6Marble17SpeakersModelItemEE13detach_helperEi@Base 4:15.08.0
 (optional=templinst)_ZN5QListIN6Marble17SpeakersModelItemEE18detach_helper_growEii@Base 4:15.08.0
 (optional=templinst)_ZN5QListIN6Marble17SpeakersModelItemEE6appendERKS1_@Base 4:15.08.0
 (optional=templinst)_ZN5QListIN6Marble17SpeakersModelItemEED1Ev@Base 4:15.08.0
 (optional=templinst)_ZN5QListIN6Marble17SpeakersModelItemEED2Ev@Base 4:15.08.0
 (optional=templinst)_ZN5QListIN6Marble18GeoDataCoordinatesEE13detach_helperEi@Base 4:15.08.0
 (optional=templinst)_ZN5QListIN6Marble18GeoDataCoordinatesEE18detach_helper_growEii@Base 4:15.08.0
 (optional=templinst)_ZN5QListIN6Marble18GeoDataCoordinatesEE6appendERKS1_@Base 4:15.08.0
 (optional=templinst)_ZN5QListIN6Marble18GeoDataCoordinatesEE9removeAllERKS1_@Base 4:15.08.0
 (optional=templinst)_ZN5QListIN6Marble18GeoDataCoordinatesEEC1ERKS2_@Base 4:15.08.0
 (optional=templinst)_ZN5QListIN6Marble18GeoDataCoordinatesEEC2ERKS2_@Base 4:15.08.0
 (optional=templinst)_ZN5QListIN6Marble18GeoDataCoordinatesEED1Ev@Base 4:15.08.0
 (optional=templinst)_ZN5QListIN6Marble18GeoDataCoordinatesEED2Ev@Base 4:15.08.0
 (optional=templinst)_ZN5QListIN6Marble18GeoDataSimpleFieldEE13detach_helperEi@Base 4:15.08.0
 (optional=templinst)_ZN5QListIN6Marble18GeoDataSimpleFieldEE18detach_helper_growEii@Base 4:15.08.0
 (optional=templinst|arch=!ppc64el)_ZN5QListIN6Marble18GeoDataSimpleFieldEE6appendERKS1_@Base 4:15.08.0
 (optional=templinst)_ZN5QListIN6Marble18GeoDataSimpleFieldEEC1ERKS2_@Base 4:15.08.0
 (optional=templinst)_ZN5QListIN6Marble18GeoDataSimpleFieldEEC2ERKS2_@Base 4:15.08.0
 (optional=templinst)_ZN5QListIN6Marble18GeoDataSimpleFieldEED1Ev@Base 4:15.08.0
 (optional=templinst)_ZN5QListIN6Marble18GeoDataSimpleFieldEED2Ev@Base 4:15.08.0
 (optional=templinst)_ZN5QListIN6Marble19RoutingLayerPrivate11PaintRegionI11QModelIndexEEE18detach_helper_growEii@Base 4:15.08.0
 (optional=templinst)_ZN5QListIN6Marble19RoutingLayerPrivate11PaintRegionI11QModelIndexEEE6appendERKS4_@Base 4:15.08.0
 (optional=templinst)_ZN5QListIN6Marble19RoutingLayerPrivate11PaintRegionI11QModelIndexEEEC1ERKS5_@Base 4:15.08.0
 (optional=templinst)_ZN5QListIN6Marble19RoutingLayerPrivate11PaintRegionI11QModelIndexEEEC2ERKS5_@Base 4:15.08.0
 (optional=templinst)_ZN5QListIN6Marble19RoutingLayerPrivate11PaintRegionI11QModelIndexEEED1Ev@Base 4:15.08.0
 (optional=templinst)_ZN5QListIN6Marble19RoutingLayerPrivate11PaintRegionI11QModelIndexEEED2Ev@Base 4:15.08.0
 (optional=templinst)_ZN5QListIN6Marble19RoutingLayerPrivate11PaintRegionIiEEE18detach_helper_growEii@Base 4:15.08.0
 (optional=templinst)_ZN5QListIN6Marble19RoutingLayerPrivate11PaintRegionIiEEE6appendERKS3_@Base 4:15.08.0
 (optional=templinst)_ZN5QListIN6Marble19RoutingLayerPrivate11PaintRegionIiEEEC1ERKS4_@Base 4:15.08.0
 (optional=templinst)_ZN5QListIN6Marble19RoutingLayerPrivate11PaintRegionIiEEEC2ERKS4_@Base 4:15.08.0
 (optional=templinst)_ZN5QListIN6Marble19RoutingLayerPrivate11PaintRegionIiEEED1Ev@Base 4:15.08.0
 (optional=templinst)_ZN5QListIN6Marble19RoutingLayerPrivate11PaintRegionIiEEED2Ev@Base 4:15.08.0
 (optional=templinst)_ZN5QListIN6Marble6TileIdEE13detach_helperEi@Base 4:15.08.0
 (optional=templinst|arch=!ppc64el)_ZN5QListIN6Marble6TileIdEE18detach_helper_growEii@Base 4:15.08.0
 (optional=templinst|arch=!ppc64el)_ZN5QListIN6Marble6TileIdEE6appendERKS1_@Base 4:15.08.0
 (optional=templinst|arch=powerpc ppc64el)_ZN5QListIN6Marble6TileIdEE6detachEv@Base 4:15.08.0
 (optional=templinst)_ZN5QListIN6Marble6TileIdEEC1ERKS2_@Base 4:15.08.0
 (optional=templinst)_ZN5QListIN6Marble6TileIdEEC2ERKS2_@Base 4:15.08.0
 (optional=templinst)_ZN5QListIN6Marble6TileIdEED1Ev@Base 4:15.08.0
 (optional=templinst)_ZN5QListIN6Marble6TileIdEED2Ev@Base 4:15.08.0
 (optional=templinst)_ZN5QListIN6Marble8DiffItemEE13detach_helperEi@Base 4:15.08.0
 (optional=templinst)_ZN5QListIN6Marble8DiffItemEE18detach_helper_growEii@Base 4:15.08.0
 (optional=templinst)_ZN5QListIN6Marble8DiffItemEE6appendERKS1_@Base 4:15.08.0
 (optional=templinst)_ZN5QListIN6Marble8DiffItemEEC1ERKS2_@Base 4:15.08.0
 (optional=templinst)_ZN5QListIN6Marble8DiffItemEEC2ERKS2_@Base 4:15.08.0
 (optional=templinst)_ZN5QListIN6Marble8DiffItemEED1Ev@Base 4:15.08.0
 (optional=templinst)_ZN5QListIN6Marble8DiffItemEED2Ev@Base 4:15.08.0
 (optional=templinst)_ZN5QListIN6Marble8DiffItemEEpLERKS2_@Base 4:15.08.0
 (optional=templinst|arch=amd64 armhf i386)_ZN5QListIP10QQuickItemE13detach_helperEi@Base 4:15.08.0
 (optional=templinst|arch=!ppc64el)_ZN5QListIP10QQuickItemE18detach_helper_growEii@Base 4:15.08.0
 (optional=templinst|arch=armhf)_ZN5QListIP10QQuickItemE6appendERKS1_@Base 4:15.08.0
 (optional=templinst|arch=!ppc64el)_ZN5QListIP10QQuickItemED1Ev@Base 4:15.08.0
 (optional=templinst|arch=!ppc64el)_ZN5QListIP10QQuickItemED2Ev@Base 4:15.08.0
 (optional=templinst|arch=!ppc64el)_ZN5QListIP13QStandardItemE13detach_helperEi@Base 4:15.08.0
 (optional=templinst)_ZN5QListIP13QStandardItemE18detach_helper_growEii@Base 4:15.08.0
 (optional=templinst|arch=!ppc64el)_ZN5QListIP13QStandardItemE6appendERKS1_@Base 4:15.08.0
 (optional=templinst)_ZN5QListIP13QStandardItemED1Ev@Base 4:15.08.0
 (optional=templinst)_ZN5QListIP13QStandardItemED2Ev@Base 4:15.08.0
 (optional=templinst|arch=!ppc64el)_ZN5QListIP7QActionE13detach_helperEi@Base 4:15.08.0
 (optional=templinst|arch=!ppc64el)_ZN5QListIP7QActionE18detach_helper_growEii@Base 4:15.08.0
 (optional=templinst|arch=!ppc64el)_ZN5QListIP7QActionE6appendERKS1_@Base 4:15.08.0
 (optional=templinst|arch=ppc64el)_ZN5QListIP7QActionE6detachEv@Base 4:15.08.0
 (optional=templinst)_ZN5QListIP7QActionED1Ev@Base 4:15.08.0
 (optional=templinst)_ZN5QListIP7QActionED2Ev@Base 4:15.08.0
 (optional=templinst)_ZN5QListIPKN6Marble12GeoDataStyleEE18detach_helper_growEii@Base 4:15.08.0
 (optional=templinst|arch=armhf)_ZN5QListIPKN6Marble12GeoDataStyleEE6appendERKS3_@Base 4:15.08.0
 (optional=templinst|arch=!ppc64el)_ZN5QListIPKN6Marble12GeoDataStyleEED1Ev@Base 4:15.08.0
 (optional=templinst|arch=!ppc64el)_ZN5QListIPKN6Marble12GeoDataStyleEED2Ev@Base 4:15.08.0
 (optional=templinst|arch=!ppc64el)_ZN5QListIPKN6Marble12RenderPluginEE18detach_helper_growEii@Base 4:15.08.0
 (optional=templinst|arch=!ppc64el)_ZN5QListIPKN6Marble12RenderPluginEE6appendERKS3_@Base 4:15.08.0
 (optional=templinst|arch=armhf)_ZN5QListIPKN6Marble12RenderPluginEEC1ERKS4_@Base 4:15.08.0
 (optional=templinst|arch=armhf)_ZN5QListIPKN6Marble12RenderPluginEEC2ERKS4_@Base 4:15.08.0
 (optional=templinst|arch=!ppc64el)_ZN5QListIPKN6Marble12RenderPluginEED1Ev@Base 4:15.08.0
 (optional=templinst|arch=!ppc64el)_ZN5QListIPKN6Marble12RenderPluginEED2Ev@Base 4:15.08.0
 (optional=templinst)_ZN5QListIPKN6Marble14DownloadPolicyEE18detach_helper_growEii@Base 4:15.08.0
 (optional=templinst|arch=!ppc64el)_ZN5QListIPKN6Marble14DownloadPolicyEE6appendERKS3_@Base 4:15.08.0
 (optional=templinst)_ZN5QListIPKN6Marble14DownloadPolicyEED1Ev@Base 4:15.08.0
 (optional=templinst)_ZN5QListIPKN6Marble14DownloadPolicyEED2Ev@Base 4:15.08.0
 (optional=templinst|arch=!ppc64el)_ZN5QListIPKN6Marble15GeoDataDocumentEE18detach_helper_growEii@Base 4:15.08.0
 (optional=templinst|arch=!ppc64el)_ZN5QListIPKN6Marble15GeoDataDocumentEE6appendERKS3_@Base 4:15.08.0
 (optional=templinst)_ZN5QListIPKN6Marble15GeoDataDocumentEED1Ev@Base 4:15.08.0
 (optional=templinst)_ZN5QListIPKN6Marble15GeoDataDocumentEED2Ev@Base 4:15.08.0
 (optional=templinst|arch=amd64 armhf i386)_ZN5QListIPKN6Marble15GeoScenePaletteEE13detach_helperEi@Base 4:15.08.0
 (optional=templinst|arch=!ppc64el)_ZN5QListIPKN6Marble15GeoScenePaletteEE18detach_helper_growEii@Base 4:15.08.0
 (optional=templinst|arch=!ppc64el)_ZN5QListIPKN6Marble15GeoScenePaletteEE6appendERKS3_@Base 4:15.08.0
 (optional=templinst|arch=!ppc64el)_ZN5QListIPKN6Marble15GeoScenePaletteEE9removeAllERKS3_@Base 4:15.08.0
 (optional=templinst)_ZN5QListIPKN6Marble15GeoScenePaletteEED1Ev@Base 4:15.08.0
 (optional=templinst)_ZN5QListIPKN6Marble15GeoScenePaletteEED2Ev@Base 4:15.08.0
 (optional=templinst|arch=!ppc64el)_ZN5QListIPKN6Marble16GeoDataPlacemarkEE13detach_helperEi@Base 4:15.08.0
 (optional=templinst)_ZN5QListIPKN6Marble16GeoDataPlacemarkEE18detach_helper_growEii@Base 4:15.08.0
 (optional=templinst|arch=armhf)_ZN5QListIPKN6Marble16GeoDataPlacemarkEE6appendERKS3_@Base 4:15.08.0
 (optional=templinst|arch=powerpc ppc64el)_ZN5QListIPKN6Marble16GeoDataPlacemarkEE6detachEv@Base 4:15.08.0
 (optional=templinst|arch=amd64 armhf i386)_ZN5QListIPKN6Marble16GeoDataPlacemarkEE9removeAllERKS3_@Base 4:15.08.0
 (optional=templinst|arch=!ppc64el)_ZN5QListIPKN6Marble16GeoDataPlacemarkEEC1ERKS4_@Base 4:15.08.0
 (optional=templinst|arch=!ppc64el)_ZN5QListIPKN6Marble16GeoDataPlacemarkEEC2ERKS4_@Base 4:15.08.0
 (optional=templinst)_ZN5QListIPKN6Marble16GeoDataPlacemarkEED1Ev@Base 4:15.08.0
 (optional=templinst)_ZN5QListIPKN6Marble16GeoDataPlacemarkEED2Ev@Base 4:15.08.0
 (optional=templinst)_ZN5QListIPKN6Marble16GeoDataPlacemarkEEpLERKS4_@Base 4:15.08.0
 (optional=templinst|arch=!ppc64el)_ZN5QListIPKN6Marble17ParseRunnerPluginEE18detach_helper_growEii@Base 4:15.08.0
 (optional=templinst|arch=!ppc64el)_ZN5QListIPKN6Marble17ParseRunnerPluginEE6appendERKS3_@Base 4:15.08.0
 (optional=templinst|arch=amd64 armhf i386)_ZN5QListIPKN6Marble17ParseRunnerPluginEEC1ERKS4_@Base 4:15.08.0
 (optional=templinst|arch=amd64 armhf i386)_ZN5QListIPKN6Marble17ParseRunnerPluginEEC2ERKS4_@Base 4:15.08.0
 (optional=templinst)_ZN5QListIPKN6Marble17ParseRunnerPluginEED1Ev@Base 4:15.08.0
 (optional=templinst)_ZN5QListIPKN6Marble17ParseRunnerPluginEED2Ev@Base 4:15.08.0
 (optional=templinst)_ZN5QListIPKN6Marble18SearchRunnerPluginEE18detach_helper_growEii@Base 4:15.08.0
 (optional=templinst|arch=!ppc64el)_ZN5QListIPKN6Marble18SearchRunnerPluginEE6appendERKS3_@Base 4:15.08.0
 (optional=templinst|arch=!ppc64el)_ZN5QListIPKN6Marble18SearchRunnerPluginEEC1ERKS4_@Base 4:15.08.0
 (optional=templinst|arch=!ppc64el)_ZN5QListIPKN6Marble18SearchRunnerPluginEEC2ERKS4_@Base 4:15.08.0
 (optional=templinst)_ZN5QListIPKN6Marble18SearchRunnerPluginEED1Ev@Base 4:15.08.0
 (optional=templinst)_ZN5QListIPKN6Marble18SearchRunnerPluginEED2Ev@Base 4:15.08.0
 (optional=templinst|arch=!ppc64el)_ZN5QListIPKN6Marble20GeoDataGroundOverlayEE13detach_helperEi@Base 4:15.08.0
 (optional=templinst)_ZN5QListIPKN6Marble20GeoDataGroundOverlayEE18detach_helper_growEii@Base 4:15.08.0
 (optional=templinst)_ZN5QListIPKN6Marble20GeoDataGroundOverlayEED1Ev@Base 4:15.08.0
 (optional=templinst)_ZN5QListIPKN6Marble20GeoDataGroundOverlayEED2Ev@Base 4:15.08.0
 (optional=templinst|arch=amd64 armhf i386)_ZN5QListIPKN6Marble22PositionProviderPluginEE13detach_helperEi@Base 4:15.08.0
 (optional=templinst|arch=!ppc64el)_ZN5QListIPKN6Marble22PositionProviderPluginEE18detach_helper_growEii@Base 4:15.08.0
 (optional=templinst|arch=!ppc64el)_ZN5QListIPKN6Marble22PositionProviderPluginEE6appendERKS3_@Base 4:15.08.0
 (optional=templinst)_ZN5QListIPKN6Marble22PositionProviderPluginEED1Ev@Base 4:15.08.0
 (optional=templinst)_ZN5QListIPKN6Marble22PositionProviderPluginEED2Ev@Base 4:15.08.0
 (optional=templinst)_ZN5QListIPKN6Marble28ReverseGeocodingRunnerPluginEE18detach_helper_growEii@Base 4:15.08.0
 (optional=templinst|arch=!ppc64el)_ZN5QListIPKN6Marble28ReverseGeocodingRunnerPluginEE6appendERKS3_@Base 4:15.08.0
 (optional=templinst|arch=!ppc64el)_ZN5QListIPKN6Marble28ReverseGeocodingRunnerPluginEEC1ERKS4_@Base 4:15.08.0
 (optional=templinst|arch=!ppc64el)_ZN5QListIPKN6Marble28ReverseGeocodingRunnerPluginEEC2ERKS4_@Base 4:15.08.0
 (optional=templinst)_ZN5QListIPKN6Marble28ReverseGeocodingRunnerPluginEED1Ev@Base 4:15.08.0
 (optional=templinst)_ZN5QListIPKN6Marble28ReverseGeocodingRunnerPluginEED2Ev@Base 4:15.08.0
 (optional=templinst|arch=amd64 armhf i386)_ZN5QListIPN6Marble10FileLoaderEE13detach_helperEi@Base 4:15.08.0
 (optional=templinst)_ZN5QListIPN6Marble10FileLoaderEE18detach_helper_growEii@Base 4:15.08.0
 (optional=templinst|arch=!ppc64el)_ZN5QListIPN6Marble10FileLoaderEE6appendERKS2_@Base 4:15.08.0
 (optional=templinst)_ZN5QListIPN6Marble10FileLoaderEE9removeAllERKS2_@Base 4:15.08.0
 (optional=templinst)_ZN5QListIPN6Marble10FileLoaderEED1Ev@Base 4:15.08.0
 (optional=templinst)_ZN5QListIPN6Marble10FileLoaderEED2Ev@Base 4:15.08.0
 (optional=templinst|arch=amd64 armhf i386)_ZN5QListIPN6Marble10SearchTaskEE13detach_helperEi@Base 4:15.08.0
 (optional=templinst)_ZN5QListIPN6Marble10SearchTaskEE18detach_helper_growEii@Base 4:15.08.0
 (optional=templinst|arch=armhf)_ZN5QListIPN6Marble10SearchTaskEE6appendERKS2_@Base 4:15.08.0
 (optional=templinst)_ZN5QListIPN6Marble10SearchTaskEE9removeAllERKS2_@Base 4:15.08.0
 (optional=templinst)_ZN5QListIPN6Marble10SearchTaskEED1Ev@Base 4:15.08.0
 (optional=templinst)_ZN5QListIPN6Marble10SearchTaskEED2Ev@Base 4:15.08.0
 (optional=templinst)_ZN5QListIPN6Marble10SoundTrackEE18detach_helper_growEii@Base 4:15.08.0
 (optional=templinst|arch=!ppc64el)_ZN5QListIPN6Marble10SoundTrackEE6appendERKS2_@Base 4:15.08.0
 (optional=templinst)_ZN5QListIPN6Marble10SoundTrackEED1Ev@Base 4:15.08.0
 (optional=templinst)_ZN5QListIPN6Marble10SoundTrackEED2Ev@Base 4:15.08.0
 (optional=templinst|arch=amd64 armhf i386)_ZN5QListIPN6Marble11ParsingTaskEE13detach_helperEi@Base 4:15.08.0
 (optional=templinst)_ZN5QListIPN6Marble11ParsingTaskEE18detach_helper_growEii@Base 4:15.08.0
 (optional=templinst|arch=armhf)_ZN5QListIPN6Marble11ParsingTaskEE6appendERKS2_@Base 4:15.08.0
 (optional=templinst)_ZN5QListIPN6Marble11ParsingTaskEE9removeAllERKS2_@Base 4:15.08.0
 (optional=templinst|arch=amd64 armhf i386)_ZN5QListIPN6Marble11ParsingTaskEEC1ERKS3_@Base 4:15.08.0
 (optional=templinst|arch=amd64 armhf i386)_ZN5QListIPN6Marble11ParsingTaskEEC2ERKS3_@Base 4:15.08.0
 (optional=templinst)_ZN5QListIPN6Marble11ParsingTaskEED1Ev@Base 4:15.08.0
 (optional=templinst)_ZN5QListIPN6Marble11ParsingTaskEED2Ev@Base 4:15.08.0
 (optional=templinst|arch=amd64 armhf i386)_ZN5QListIPN6Marble11RoutingTaskEE13detach_helperEi@Base 4:15.08.0
 (optional=templinst)_ZN5QListIPN6Marble11RoutingTaskEE18detach_helper_growEii@Base 4:15.08.0
 (optional=templinst|arch=armhf)_ZN5QListIPN6Marble11RoutingTaskEE6appendERKS2_@Base 4:15.08.0
 (optional=templinst)_ZN5QListIPN6Marble11RoutingTaskEE9removeAllERKS2_@Base 4:15.08.0
 (optional=templinst|arch=amd64 armhf i386)_ZN5QListIPN6Marble11RoutingTaskEEC1ERKS3_@Base 4:15.08.0
 (optional=templinst|arch=amd64 armhf i386)_ZN5QListIPN6Marble11RoutingTaskEEC2ERKS3_@Base 4:15.08.0
 (optional=templinst)_ZN5QListIPN6Marble11RoutingTaskEED1Ev@Base 4:15.08.0
 (optional=templinst)_ZN5QListIPN6Marble11RoutingTaskEED2Ev@Base 4:15.08.0
 (optional=templinst|arch=!ppc64el)_ZN5QListIPN6Marble12PlaybackItemEE13detach_helperEi@Base 4:15.08.0
 (optional=templinst)_ZN5QListIPN6Marble12PlaybackItemEE18detach_helper_growEii@Base 4:15.08.0
 (optional=templinst|arch=!ppc64el)_ZN5QListIPN6Marble12PlaybackItemEE6appendERKS2_@Base 4:15.08.0
 (optional=templinst|arch=!ppc64el)_ZN5QListIPN6Marble12PlaybackItemEED1Ev@Base 4:15.08.0
 (optional=templinst|arch=!ppc64el)_ZN5QListIPN6Marble12PlaybackItemEED2Ev@Base 4:15.08.0
 (optional=templinst|arch=!ppc64el)_ZN5QListIPN6Marble12RenderPluginEE13detach_helperEi@Base 4:15.08.0
 (optional=templinst)_ZN5QListIPN6Marble12RenderPluginEE18detach_helper_growEii@Base 4:15.08.0
 (optional=templinst|arch=!ppc64el)_ZN5QListIPN6Marble12RenderPluginEE6appendERKS2_@Base 4:15.08.0
 (optional=templinst|arch=!ppc64el)_ZN5QListIPN6Marble12RenderPluginEEC1ERKS3_@Base 4:15.08.0
 (optional=templinst|arch=!ppc64el)_ZN5QListIPN6Marble12RenderPluginEEC2ERKS3_@Base 4:15.08.0
 (optional=templinst)_ZN5QListIPN6Marble12RenderPluginEED1Ev@Base 4:15.08.0
 (optional=templinst)_ZN5QListIPN6Marble12RenderPluginEED2Ev@Base 4:15.08.0
 (optional=templinst|arch=!ppc64el)_ZN5QListIPN6Marble13GeoDataObjectEE13detach_helperEi@Base 4:15.08.0
 (optional=templinst)_ZN5QListIPN6Marble13GeoDataObjectEE18detach_helper_growEii@Base 4:15.08.0
 (optional=templinst|arch=armhf)_ZN5QListIPN6Marble13GeoDataObjectEE6appendERKS2_@Base 4:15.08.0
 (optional=templinst|arch=!ppc64el)_ZN5QListIPN6Marble13GeoDataObjectEED1Ev@Base 4:15.08.0
 (optional=templinst|arch=!ppc64el)_ZN5QListIPN6Marble13GeoDataObjectEED2Ev@Base 4:15.08.0
 (optional=templinst)_ZN5QListIPN6Marble14GeoDataFeatureEE18detach_helper_growEii@Base 4:15.08.0
 (optional=templinst|arch=!ppc64el)_ZN5QListIPN6Marble14GeoDataFeatureEE6appendERKS2_@Base 4:15.08.0
 (optional=templinst)_ZN5QListIPN6Marble14GeoDataFeatureEED1Ev@Base 4:15.08.0
 (optional=templinst)_ZN5QListIPN6Marble14GeoDataFeatureEED2Ev@Base 4:15.08.0
 (optional=templinst|arch=!ppc64el)_ZN5QListIPN6Marble14LayerInterfaceEE13detach_helperEi@Base 4:15.08.0
 (optional=templinst|arch=!ppc64el)_ZN5QListIPN6Marble14LayerInterfaceEE18detach_helper_growEii@Base 4:15.08.0
 (optional=templinst|arch=!ppc64el)_ZN5QListIPN6Marble14LayerInterfaceEE6appendERKS2_@Base 4:15.08.0
 (optional=templinst|arch=!ppc64el)_ZN5QListIPN6Marble14LayerInterfaceEE9removeAllERKS2_@Base 4:15.08.0
 (optional=templinst|arch=!ppc64el)_ZN5QListIPN6Marble14LayerInterfaceEEC1ERKS3_@Base 4:15.08.0
 (optional=templinst|arch=!ppc64el)_ZN5QListIPN6Marble14LayerInterfaceEEC2ERKS3_@Base 4:15.08.0
 (optional=templinst|arch=!ppc64el)_ZN5QListIPN6Marble14LayerInterfaceEED1Ev@Base 4:15.08.0
 (optional=templinst|arch=!ppc64el)_ZN5QListIPN6Marble14LayerInterfaceEED2Ev@Base 4:15.08.0
 (optional=templinst|arch=!ppc64el)_ZN5QListIPN6Marble15GeoGraphicsItemEE13detach_helperEi@Base 4:15.08.0
 (optional=templinst)_ZN5QListIPN6Marble15GeoGraphicsItemEE18detach_helper_growEii@Base 4:15.08.0
 (optional=templinst|arch=!ppc64el)_ZN5QListIPN6Marble15GeoGraphicsItemEE6appendERKS2_@Base 4:15.08.0
 (optional=templinst|arch=amd64 armhf i386)_ZN5QListIPN6Marble15GeoGraphicsItemEE9removeAllERKS2_@Base 4:15.08.0
 (optional=templinst|arch=!ppc64el)_ZN5QListIPN6Marble15GeoGraphicsItemEEC1ERKS3_@Base 4:15.08.0
 (optional=templinst|arch=!ppc64el)_ZN5QListIPN6Marble15GeoGraphicsItemEEC2ERKS3_@Base 4:15.08.0
 (optional=templinst)_ZN5QListIPN6Marble15GeoGraphicsItemEED1Ev@Base 4:15.08.0
 (optional=templinst)_ZN5QListIPN6Marble15GeoGraphicsItemEED2Ev@Base 4:15.08.0
 (optional=templinst)_ZN5QListIPN6Marble17AbstractFloatItemEE18detach_helper_growEii@Base 4:15.08.0
 (optional=templinst|arch=!ppc64el)_ZN5QListIPN6Marble17AbstractFloatItemEE6appendERKS2_@Base 4:15.08.0
 (optional=templinst)_ZN5QListIPN6Marble17AbstractFloatItemEED1Ev@Base 4:15.08.0
 (optional=templinst)_ZN5QListIPN6Marble17AbstractFloatItemEED2Ev@Base 4:15.08.0
 (optional=templinst)_ZN5QListIPN6Marble18AbstractDataPluginEE18detach_helper_growEii@Base 4:15.08.0
 (optional=templinst|arch=!ppc64el)_ZN5QListIPN6Marble18AbstractDataPluginEE6appendERKS2_@Base 4:15.08.0
 (optional=templinst|arch=!ppc64el)_ZN5QListIPN6Marble18AbstractDataPluginEEC1ERKS3_@Base 4:15.08.0
 (optional=templinst|arch=!ppc64el)_ZN5QListIPN6Marble18AbstractDataPluginEEC2ERKS3_@Base 4:15.08.0
 (optional=templinst)_ZN5QListIPN6Marble18AbstractDataPluginEED1Ev@Base 4:15.08.0
 (optional=templinst)_ZN5QListIPN6Marble18AbstractDataPluginEED2Ev@Base 4:15.08.0
 (optional=templinst|arch=amd64 armhf i386)_ZN5QListIPN6Marble18MarbleGraphicsItemEE13detach_helperEi@Base 4:15.08.0
 (optional=templinst|arch=!ppc64el)_ZN5QListIPN6Marble18MarbleGraphicsItemEE18detach_helper_growEii@Base 4:15.08.0
 (optional=templinst|arch=armhf)_ZN5QListIPN6Marble18MarbleGraphicsItemEE6appendERKS2_@Base 4:15.08.0
 (optional=templinst|arch=!ppc64el)_ZN5QListIPN6Marble18MarbleGraphicsItemEED1Ev@Base 4:15.08.0
 (optional=templinst|arch=!ppc64el)_ZN5QListIPN6Marble18MarbleGraphicsItemEED2Ev@Base 4:15.08.0
 (optional=templinst|arch=!ppc64el)_ZN5QListIPN6Marble19AnimatedUpdateTrackEE13detach_helperEi@Base 4:15.08.0
 (optional=templinst)_ZN5QListIPN6Marble19AnimatedUpdateTrackEE18detach_helper_growEii@Base 4:15.08.0
 (optional=templinst|arch=!ppc64el)_ZN5QListIPN6Marble19AnimatedUpdateTrackEE6appendERKS2_@Base 4:15.08.0
 (optional=templinst)_ZN5QListIPN6Marble19AnimatedUpdateTrackEED1Ev@Base 4:15.08.0
 (optional=templinst)_ZN5QListIPN6Marble19AnimatedUpdateTrackEED2Ev@Base 4:15.08.0
 (optional=templinst|arch=!ppc64el)_ZN5QListIPN6Marble19RoutingRunnerPluginEE13detach_helperEi@Base 4:15.08.0
 (optional=templinst)_ZN5QListIPN6Marble19RoutingRunnerPluginEE18detach_helper_growEii@Base 4:15.08.0
 (optional=templinst|arch=!ppc64el)_ZN5QListIPN6Marble19RoutingRunnerPluginEE6appendERKS2_@Base 4:15.08.0
 (optional=templinst|arch=!ppc64el)_ZN5QListIPN6Marble19RoutingRunnerPluginEEC1ERKS3_@Base 4:15.08.0
 (optional=templinst|arch=!ppc64el)_ZN5QListIPN6Marble19RoutingRunnerPluginEEC2ERKS3_@Base 4:15.08.0
 (optional=templinst)_ZN5QListIPN6Marble19RoutingRunnerPluginEED1Ev@Base 4:15.08.0
 (optional=templinst)_ZN5QListIPN6Marble19RoutingRunnerPluginEED2Ev@Base 4:15.08.0
 (optional=templinst|arch=!ppc64el)_ZN5QListIPN6Marble20GeoDataTourPrimitiveEE13detach_helperEi@Base 4:15.08.0
 (optional=templinst)_ZN5QListIPN6Marble20GeoDataTourPrimitiveEE18detach_helper_growEii@Base 4:15.08.0
 (optional=templinst|arch=!ppc64el)_ZN5QListIPN6Marble20GeoDataTourPrimitiveEE6appendERKS2_@Base 4:15.08.0
 (optional=templinst|arch=!ppc64el)_ZN5QListIPN6Marble20GeoDataTourPrimitiveEED1Ev@Base 4:15.08.0
 (optional=templinst|arch=!ppc64el)_ZN5QListIPN6Marble20GeoDataTourPrimitiveEED2Ev@Base 4:15.08.0
 (optional=templinst|arch=amd64 armhf i386)_ZN5QListIPN6Marble20ReverseGeocodingTaskEE13detach_helperEi@Base 4:15.08.0
 (optional=templinst)_ZN5QListIPN6Marble20ReverseGeocodingTaskEE18detach_helper_growEii@Base 4:15.08.0
 (optional=templinst|arch=armhf)_ZN5QListIPN6Marble20ReverseGeocodingTaskEE6appendERKS2_@Base 4:15.08.0
 (optional=templinst)_ZN5QListIPN6Marble20ReverseGeocodingTaskEE9removeAllERKS2_@Base 4:15.08.0
 (optional=templinst|arch=amd64 armhf i386)_ZN5QListIPN6Marble20ReverseGeocodingTaskEEC1ERKS3_@Base 4:15.08.0
 (optional=templinst|arch=amd64 armhf i386)_ZN5QListIPN6Marble20ReverseGeocodingTaskEEC2ERKS3_@Base 4:15.08.0
 (optional=templinst)_ZN5QListIPN6Marble20ReverseGeocodingTaskEED1Ev@Base 4:15.08.0
 (optional=templinst)_ZN5QListIPN6Marble20ReverseGeocodingTaskEED2Ev@Base 4:15.08.0
 (optional=templinst|arch=!ppc64el)_ZN5QListIPN6Marble22AbstractDataPluginItemEE13detach_helperEi@Base 4:15.08.0
 (optional=templinst)_ZN5QListIPN6Marble22AbstractDataPluginItemEE18detach_helper_growEii@Base 4:15.08.0
 (optional=templinst|arch=!ppc64el)_ZN5QListIPN6Marble22AbstractDataPluginItemEE6appendERKS2_@Base 4:15.08.0
 (optional=templinst)_ZN5QListIPN6Marble22AbstractDataPluginItemEE9removeAllERKS2_@Base 4:15.08.0
 (optional=templinst)_ZN5QListIPN6Marble22AbstractDataPluginItemEE9removeOneERKS2_@Base 4:15.08.0
 (optional=templinst|arch=!ppc64el)_ZN5QListIPN6Marble22AbstractDataPluginItemEEC1ERKS3_@Base 4:15.08.0
 (optional=templinst|arch=!ppc64el)_ZN5QListIPN6Marble22AbstractDataPluginItemEEC2ERKS3_@Base 4:15.08.0
 (optional=templinst)_ZN5QListIPN6Marble22AbstractDataPluginItemEED1Ev@Base 4:15.08.0
 (optional=templinst)_ZN5QListIPN6Marble22AbstractDataPluginItemEED2Ev@Base 4:15.08.0
 (optional=templinst)_ZN5QListIPN6Marble22AbstractDataPluginItemEEpLERKS3_@Base 4:15.08.0
 (optional=templinst|arch=amd64 armhf i386)_ZN5QListIPN6Marble25ScreenOverlayGraphicsItemEE13detach_helperEi@Base 4:15.08.0
 (optional=templinst)_ZN5QListIPN6Marble25ScreenOverlayGraphicsItemEE18detach_helper_growEii@Base 4:15.08.0
 (optional=templinst|arch=!ppc64el)_ZN5QListIPN6Marble25ScreenOverlayGraphicsItemEE6appendERKS2_@Base 4:15.08.0
 (optional=templinst)_ZN5QListIPN6Marble25ScreenOverlayGraphicsItemEE9removeAllERKS2_@Base 4:15.08.0
 (optional=templinst)_ZN5QListIPN6Marble25ScreenOverlayGraphicsItemEED1Ev@Base 4:15.08.0
 (optional=templinst)_ZN5QListIPN6Marble25ScreenOverlayGraphicsItemEED2Ev@Base 4:15.08.0
 (optional=templinst|arch=!ppc64el)_ZN5QListIPN6Marble7HttpJobEE13detach_helperEi@Base 4:15.08.0
 (optional=templinst|arch=!ppc64el)_ZN5QListIPN6Marble7HttpJobEE18detach_helper_growEii@Base 4:15.08.0
 (optional=templinst|arch=!ppc64el)_ZN5QListIPN6Marble7HttpJobEE6appendERKS2_@Base 4:15.08.0
 (optional=templinst|arch=!ppc64el)_ZN5QListIPN6Marble7HttpJobEE9removeOneERKS2_@Base 4:15.08.0
 (optional=templinst|arch=!ppc64el)_ZN5QListIPN6Marble7HttpJobEED1Ev@Base 4:15.08.0
 (optional=templinst|arch=!ppc64el)_ZN5QListIPN6Marble7HttpJobEED2Ev@Base 4:15.08.0
 (optional=templinst)_ZN5QListIS_IPN6Marble15GeoGraphicsItemEEE13detach_helperEi@Base 4:15.08.0
 (optional=templinst|arch=!ppc64el)_ZN5QListIS_IPN6Marble15GeoGraphicsItemEEE18detach_helper_growEii@Base 4:15.08.0
 (optional=templinst)_ZN5QListIS_IPN6Marble15GeoGraphicsItemEEE6appendERKS3_@Base 4:15.08.0
 (optional=templinst)_ZN5QListIS_IPN6Marble15GeoGraphicsItemEEEC1ERKS4_@Base 4:15.08.0
 (optional=templinst)_ZN5QListIS_IPN6Marble15GeoGraphicsItemEEEC2ERKS4_@Base 4:15.08.0
 (optional=templinst)_ZN5QListIS_IPN6Marble15GeoGraphicsItemEEED1Ev@Base 4:15.08.0
 (optional=templinst)_ZN5QListIS_IPN6Marble15GeoGraphicsItemEEED2Ev@Base 4:15.08.0
 (optional=templinst|arch=!ppc64el)_ZN5QListIdE13detach_helperEi@Base 4:15.08.0
 (optional=templinst|arch=!ppc64el)_ZN5QListIdE18detach_helper_growEii@Base 4:15.08.0
 (optional=templinst)_ZN5QListIdE6appendERKd@Base 4:15.08.0
 (optional=templinst|arch=!ppc64el)_ZN5QListIdEC1ERKS0_@Base 4:15.08.0
 (optional=templinst|arch=!ppc64el)_ZN5QListIdEC2ERKS0_@Base 4:15.08.0
 (optional=templinst|arch=!ppc64el)_ZN5QListIdED1Ev@Base 4:15.08.0
 (optional=templinst|arch=!ppc64el)_ZN5QListIdED2Ev@Base 4:15.08.0
 (optional=templinst)_ZN5QListIiE18detach_helper_growEii@Base 4:15.08.0
 (optional=templinst|arch=!ppc64el)_ZN5QListIiE6appendERKi@Base 4:15.08.0
 (optional=templinst|arch=amd64 armhf i386)_ZN5QListIiEC1ERKS0_@Base 4:15.08.0
 (optional=templinst|arch=amd64 armhf i386)_ZN5QListIiEC2ERKS0_@Base 4:15.08.0
 (optional=templinst)_ZN5QListIiED1Ev@Base 4:15.08.0
 (optional=templinst)_ZN5QListIiED2Ev@Base 4:15.08.0
 (optional=templinst|arch=armhf)_ZN5QPairI7QStringS0_EC1ERKS0_S3_@Base 4:15.08.0
 _ZN6Marble10FileLoader11qt_metacallEN11QMetaObject4CallEiPPv@Base 4:15.08.0
 _ZN6Marble10FileLoader11qt_metacastEPKc@Base 4:15.08.0
 _ZN6Marble10FileLoader14loaderFinishedEPS0_@Base 4:15.08.0
 _ZN6Marble10FileLoader16staticMetaObjectE@Base 4:15.08.0
 _ZN6Marble10FileLoader23newGeoDataDocumentAddedEPNS_15GeoDataDocumentE@Base 4:15.08.0
 _ZN6Marble10FileLoader3runEv@Base 4:15.08.0
 _ZN6Marble10FileLoader8documentEv@Base 4:15.08.0
 _ZN6Marble10FileLoaderC1EP7QObjectPKNS_13PluginManagerERK7QStringS8_NS_12DocumentRoleE@Base 4:15.08.0
 _ZN6Marble10FileLoaderC1EP7QObjectPKNS_13PluginManagerEbRK7QStringS8_PKNS_12GeoDataStyleENS_12DocumentRoleE@Base 4:15.08.0
 _ZN6Marble10FileLoaderC2EP7QObjectPKNS_13PluginManagerERK7QStringS8_NS_12DocumentRoleE@Base 4:15.08.0
 _ZN6Marble10FileLoaderC2EP7QObjectPKNS_13PluginManagerEbRK7QStringS8_PKNS_12GeoDataStyleENS_12DocumentRoleE@Base 4:15.08.0
 _ZN6Marble10FileLoaderD0Ev@Base 4:15.08.0
 _ZN6Marble10FileLoaderD1Ev@Base 4:15.08.0
 _ZN6Marble10FileLoaderD2Ev@Base 4:15.08.0
 _ZN6Marble10GeoDataLod15setMaxLodPixelsEd@Base 4:15.08.0
 _ZN6Marble10GeoDataLod15setMinLodPixelsEd@Base 4:15.08.0
 _ZN6Marble10GeoDataLod16setMaxFadeExtentEd@Base 4:15.08.0
 _ZN6Marble10GeoDataLod16setMinFadeExtentEd@Base 4:15.08.0
 _ZN6Marble10GeoDataLod6unpackER11QDataStream@Base 4:15.08.0
 _ZN6Marble10GeoDataLodC1ERKS0_@Base 4:15.08.0
 _ZN6Marble10GeoDataLodC1Ev@Base 4:15.08.0
 _ZN6Marble10GeoDataLodC2ERKS0_@Base 4:15.08.0
 _ZN6Marble10GeoDataLodC2Ev@Base 4:15.08.0
 _ZN6Marble10GeoDataLodD0Ev@Base 4:15.08.0
 _ZN6Marble10GeoDataLodD1Ev@Base 4:15.08.0
 _ZN6Marble10GeoDataLodD2Ev@Base 4:15.08.0
 _ZN6Marble10GeoDataLodaSERKS0_@Base 4:15.08.0
 _ZN6Marble10GeoPainter10drawPixmapERKNS_18GeoDataCoordinatesERK7QPixmap@Base 4:15.08.0
 _ZN6Marble10GeoPainter11drawEllipseERKNS_18GeoDataCoordinatesEddb@Base 4:15.08.0
 _ZN6Marble10GeoPainter11drawPolygonERKNS_14GeoDataPolygonEN2Qt8FillRuleE@Base 4:15.08.0
 _ZN6Marble10GeoPainter11drawPolygonERKNS_17GeoDataLinearRingEN2Qt8FillRuleE@Base 4:15.08.0
 _ZN6Marble10GeoPainter12drawPolylineERKNS_17GeoDataLineStringERK7QString6QFlagsINS_17LabelPositionFlagEE@Base 4:15.08.0
 _ZN6Marble10GeoPainter13drawRoundRectERKNS_18GeoDataCoordinatesEiiii@Base 4:15.08.0
 _ZN6Marble10GeoPainter14drawAnnotationERKNS_18GeoDataCoordinatesERK7QString6QSizeFdddd@Base 4:15.08.0
 _ZN6Marble10GeoPainter8drawRectERKNS_18GeoDataCoordinatesEddb@Base 4:15.08.0
 _ZN6Marble10GeoPainter8drawTextERKNS_18GeoDataCoordinatesERK7QStringiiiiRK11QTextOption@Base 4:15.08.0
 _ZN6Marble10GeoPainter9drawImageERKNS_18GeoDataCoordinatesERK6QImage@Base 4:15.08.0
 _ZN6Marble10GeoPainter9drawPointERKNS_12GeoDataPointE@Base 4:15.08.0
 _ZN6Marble10GeoPainter9drawPointERKNS_18GeoDataCoordinatesE@Base 4:15.08.0
 _ZN6Marble10GeoPainterC1EP12QPaintDevicePKNS_14ViewportParamsENS_10MapQualityE@Base 4:15.08.0
 _ZN6Marble10GeoPainterC2EP12QPaintDevicePKNS_14ViewportParamsENS_10MapQualityE@Base 4:15.08.0
 _ZN6Marble10GeoPainterD1Ev@Base 4:15.08.0
 _ZN6Marble10GeoPainterD2Ev@Base 4:15.08.0
 _ZN6Marble10GoToDialog11qt_metacallEN11QMetaObject4CallEiPPv@Base 4:15.08.0
 _ZN6Marble10GoToDialog11qt_metacastEPKc@Base 4:15.08.0
 _ZN6Marble10GoToDialog16setSearchEnabledEb@Base 4:15.08.0
 _ZN6Marble10GoToDialog16staticMetaObjectE@Base 4:15.08.0
 _ZN6Marble10GoToDialog19setShowRoutingItemsEb@Base 4:15.08.0
 _ZN6Marble10GoToDialogC1EPNS_11MarbleModelEP7QWidget6QFlagsIN2Qt10WindowTypeEE@Base 4:15.08.0
 _ZN6Marble10GoToDialogC2EPNS_11MarbleModelEP7QWidget6QFlagsIN2Qt10WindowTypeEE@Base 4:15.08.0
 _ZN6Marble10GoToDialogD0Ev@Base 4:15.08.0
 _ZN6Marble10GoToDialogD1Ev@Base 4:15.08.0
 _ZN6Marble10GoToDialogD2Ev@Base 4:15.08.0
 _ZN6Marble10LatLonEdit11qt_metacallEN11QMetaObject4CallEiPPv@Base 4:15.08.0
 _ZN6Marble10LatLonEdit11qt_metacastEPKc@Base 4:15.08.0
 _ZN6Marble10LatLonEdit11recalculateEv@Base 4:15.08.0
 _ZN6Marble10LatLonEdit11setNotationENS_18GeoDataCoordinates8NotationE@Base 4:15.08.0
 _ZN6Marble10LatLonEdit12setDimensionENS_9DimensionE@Base 4:15.08.0
 _ZN6Marble10LatLonEdit12valueChangedEd@Base 4:15.08.0
 _ZN6Marble10LatLonEdit13onSignChangedEv@Base 4:15.08.0
 _ZN6Marble10LatLonEdit16staticMetaObjectE@Base 4:15.08.0
 _ZN6Marble10LatLonEdit21checkIntValueOverflowEv@Base 4:15.08.0
 _ZN6Marble10LatLonEdit22checkUIntValueOverflowEv@Base 4:15.08.0
 _ZN6Marble10LatLonEdit23checkFloatValueOverflowEv@Base 4:15.08.0
 _ZN6Marble10LatLonEdit8setValueEd@Base 4:15.08.0
 _ZN6Marble10LatLonEditC1EP7QWidgetNS_9DimensionENS_18GeoDataCoordinates8NotationE@Base 4:15.08.0
 _ZN6Marble10LatLonEditC2EP7QWidgetNS_9DimensionENS_18GeoDataCoordinates8NotationE@Base 4:15.08.0
 _ZN6Marble10LatLonEditD0Ev@Base 4:15.08.0
 _ZN6Marble10LatLonEditD1Ev@Base 4:15.08.0
 _ZN6Marble10LatLonEditD2Ev@Base 4:15.08.0
 _ZN6Marble10MarbleDirs10pluginPathERK7QString@Base 4:15.08.0
 _ZN6Marble10MarbleDirs10systemPathEv@Base 4:15.08.0
 _ZN6Marble10MarbleDirs13oldLocalPathsEv@Base 4:15.08.0
 _ZN6Marble10MarbleDirs14marbleDataPathEv@Base 4:15.08.0
 _ZN6Marble10MarbleDirs15pluginEntryListERK7QString6QFlagsIN4QDir6FilterEE@Base 4:15.08.0
 _ZN6Marble10MarbleDirs15pluginLocalPathEv@Base 4:15.08.0
 _ZN6Marble10MarbleDirs16marblePluginPathEv@Base 4:15.08.0
 _ZN6Marble10MarbleDirs16pluginSystemPathEv@Base 4:15.08.0
 _ZN6Marble10MarbleDirs17setMarbleDataPathERK7QString@Base 4:15.08.0
 _ZN6Marble10MarbleDirs19setMarblePluginPathERK7QString@Base 4:15.08.0
 _ZN6Marble10MarbleDirs4pathERK7QString@Base 4:15.08.0
 _ZN6Marble10MarbleDirs5debugEv@Base 4:15.08.0
 _ZN6Marble10MarbleDirs9entryListERK7QString6QFlagsIN4QDir6FilterEE@Base 4:15.08.0
 _ZN6Marble10MarbleDirs9localPathEv@Base 4:15.08.0
 _ZN6Marble10MarbleDirsC1Ev@Base 4:15.08.0
 _ZN6Marble10MarbleDirsC2Ev@Base 4:15.08.0
 _ZN6Marble10NullDevice8readDataEPcx@Base 4:15.08.0
 _ZN6Marble10NullDevice9writeDataEPKcx@Base 4:15.08.0
 _ZN6Marble10NullDeviceD0Ev@Base 4:15.08.0
 _ZN6Marble10NullDeviceD1Ev@Base 4:15.08.0
 _ZN6Marble10NullDeviceD2Ev@Base 4:15.08.0
 _ZN6Marble10PopupLayer10setContentERK7QStringRK4QUrl@Base 4:15.08.0
 _ZN6Marble10PopupLayer10setVisibleEb@Base 4:15.08.0
 _ZN6Marble10PopupLayer11eventFilterEP7QObjectP6QEvent@Base 4:15.08.0
 _ZN6Marble10PopupLayer11qt_metacallEN11QMetaObject4CallEiPPv@Base 4:15.08.0
 _ZN6Marble10PopupLayer11qt_metacastEPKc@Base 4:15.08.0
 _ZN6Marble10PopupLayer12setTextColorERK6QColor@Base 4:15.08.0
 _ZN6Marble10PopupLayer13hidePopupItemEv@Base 4:15.08.0
 _ZN6Marble10PopupLayer13repaintNeededEv@Base 4:15.08.0
 _ZN6Marble10PopupLayer14setCoordinatesERKNS_18GeoDataCoordinatesE6QFlagsIN2Qt13AlignmentFlagEE@Base 4:15.08.0
 _ZN6Marble10PopupLayer16staticMetaObjectE@Base 4:15.08.0
 _ZN6Marble10PopupLayer18setBackgroundColorERK6QColor@Base 4:15.08.0
 _ZN6Marble10PopupLayer5popupEv@Base 4:15.08.0
 _ZN6Marble10PopupLayer6renderEPNS_10GeoPainterEPNS_14ViewportParamsERK7QStringPNS_13GeoSceneLayerE@Base 4:15.08.0
 _ZN6Marble10PopupLayer6setUrlERK4QUrl@Base 4:15.08.0
 _ZN6Marble10PopupLayer7Private18setAppropriateSizeEPKNS_14ViewportParamsE@Base 4:15.08.0
 _ZN6Marble10PopupLayer7PrivateC1EPNS_12MarbleWidgetEPS0_@Base 4:15.08.0
 _ZN6Marble10PopupLayer7PrivateC2EPNS_12MarbleWidgetEPS0_@Base 4:15.08.0
 _ZN6Marble10PopupLayer7setSizeERK6QSizeF@Base 4:15.08.0
 _ZN6Marble10PopupLayerC1EPNS_12MarbleWidgetEP7QObject@Base 4:15.08.0
 _ZN6Marble10PopupLayerC2EPNS_12MarbleWidgetEP7QObject@Base 4:15.08.0
 _ZN6Marble10PopupLayerD0Ev@Base 4:15.08.0
 _ZN6Marble10PopupLayerD1Ev@Base 4:15.08.0
 _ZN6Marble10PopupLayerD2Ev@Base 4:15.08.0
 _ZN6Marble10Quaternion13fromSphericalEdd@Base 4:15.08.0
 _ZN6Marble10Quaternion16rotateAroundAxisERA3_A4_Kd@Base 4:15.08.0
 _ZN6Marble10Quaternion16rotateAroundAxisERKS0_@Base 4:15.08.0
 _ZN6Marble10Quaternion5nlerpERKS0_S2_d@Base 4:15.08.0
 _ZN6Marble10Quaternion5slerpERKS0_S2_d@Base 4:15.08.0
 _ZN6Marble10Quaternion9fromEulerEddd@Base 4:15.08.0
 _ZN6Marble10Quaternion9normalizeEv@Base 4:15.08.0
 _ZN6Marble10QuaternionC1Edddd@Base 4:15.08.0
 _ZN6Marble10QuaternionC1Ev@Base 4:15.08.0
 _ZN6Marble10QuaternionC2Edddd@Base 4:15.08.0
 _ZN6Marble10QuaternionC2Ev@Base 4:15.08.0
 _ZN6Marble10QuaternionmLERKS0_@Base 4:15.08.0
 _ZN6Marble10QuaternionmLEd@Base 4:15.08.0
 _ZN6Marble10SearchTask11qt_metacallEN11QMetaObject4CallEiPPv@Base 4:15.08.0
 _ZN6Marble10SearchTask11qt_metacastEPKc@Base 4:15.08.0
 _ZN6Marble10SearchTask16staticMetaObjectE@Base 4:15.08.0
 _ZN6Marble10SearchTask3runEv@Base 4:15.08.0
 _ZN6Marble10SearchTask8finishedEPS0_@Base 4:15.08.0
 _ZN6Marble10SearchTaskC1EPNS_12SearchRunnerEPNS_19SearchRunnerManagerEPKNS_11MarbleModelERK7QStringRKNS_16GeoDataLatLonBoxE@Base 4:15.08.0
 _ZN6Marble10SearchTaskC2EPNS_12SearchRunnerEPNS_19SearchRunnerManagerEPKNS_11MarbleModelERK7QStringRKNS_16GeoDataLatLonBoxE@Base 4:15.08.0
 _ZN6Marble10SearchTaskD0Ev@Base 4:15.08.0
 _ZN6Marble10SearchTaskD1Ev@Base 4:15.08.0
 _ZN6Marble10SearchTaskD2Ev@Base 4:15.08.0
 _ZN6Marble10SoundTrack11qt_metacallEN11QMetaObject4CallEiPPv@Base 4:15.08.0
 _ZN6Marble10SoundTrack11qt_metacastEPKc@Base 4:15.08.0
 _ZN6Marble10SoundTrack16staticMetaObjectE@Base 4:15.08.0
 _ZN6Marble10SoundTrack25setDelayBeforeTrackStartsEd@Base 4:15.08.0
 _ZN6Marble10SoundTrack4playEv@Base 4:15.08.0
 _ZN6Marble10SoundTrack4seekEd@Base 4:15.08.0
 _ZN6Marble10SoundTrack4stopEv@Base 4:15.08.0
 _ZN6Marble10SoundTrack5pauseEv@Base 4:15.08.0
 _ZN6Marble10SoundTrack8playSlotEv@Base 4:15.08.0
 _ZN6Marble10SoundTrack9setPausedEb@Base 4:15.08.0
 _ZN6Marble10SoundTrackC1EPNS_20PlaybackSoundCueItemE@Base 4:15.08.0
 _ZN6Marble10SoundTrackC2EPNS_20PlaybackSoundCueItemE@Base 4:15.08.0
 _ZN6Marble10SoundTrackD0Ev@Base 4:15.08.0
 _ZN6Marble10SoundTrackD1Ev@Base 4:15.08.0
 _ZN6Marble10SoundTrackD2Ev@Base 4:15.08.0
 _ZN6Marble10SunLocator11qt_metacallEN11QMetaObject4CallEiPPv@Base 4:15.08.0
 _ZN6Marble10SunLocator11qt_metacastEPKc@Base 4:15.08.0
 _ZN6Marble10SunLocator14updatePositionEv@Base 4:15.08.0
 _ZN6Marble10SunLocator15positionChangedEdd@Base 4:15.08.0
 _ZN6Marble10SunLocator16staticMetaObjectE@Base 4:15.08.0
 _ZN6Marble10SunLocator6updateEv@Base 4:15.08.0
 _ZN6Marble10SunLocator9setPlanetEPKNS_6PlanetE@Base 4:15.08.0
 _ZN6Marble10SunLocatorC1EPKNS_11MarbleClockEPKNS_6PlanetE@Base 4:15.08.0
 _ZN6Marble10SunLocatorC2EPKNS_11MarbleClockEPKNS_6PlanetE@Base 4:15.08.0
 _ZN6Marble10SunLocatorD0Ev@Base 4:15.08.0
 _ZN6Marble10SunLocatorD1Ev@Base 4:15.08.0
 _ZN6Marble10SunLocatorD2Ev@Base 4:15.08.0
 _ZN6Marble10TileLoader10tileStatusEPKNS_13GeoSceneTiledERKNS_6TileIdE@Base 4:15.08.0
 _ZN6Marble10TileLoader10updateTileERK10QByteArrayRK7QString@Base 4:15.08.0
 _ZN6Marble10TileLoader11qt_metacallEN11QMetaObject4CallEiPPv@Base 4:15.08.0
 _ZN6Marble10TileLoader11qt_metacastEPKc@Base 4:15.08.0
 _ZN6Marble10TileLoader12downloadTileEPKNS_13GeoSceneTiledERKNS_6TileIdENS_13DownloadUsageE@Base 4:15.08.0
 _ZN6Marble10TileLoader12downloadTileERK4QUrlRK7QStringS6_NS_13DownloadUsageE@Base 4:15.08.0
 _ZN6Marble10TileLoader12tileFileNameEPKNS_13GeoSceneTiledERKNS_6TileIdE@Base 4:15.08.0
 _ZN6Marble10TileLoader13loadTileImageEPKNS_19GeoSceneTextureTileERKNS_6TileIdENS_13DownloadUsageE@Base 4:15.08.0
 _ZN6Marble10TileLoader13tileCompletedERKNS_6TileIdEPNS_15GeoDataDocumentERK7QString@Base 4:15.08.0
 _ZN6Marble10TileLoader13tileCompletedERKNS_6TileIdERK6QImage@Base 4:15.08.0
 _ZN6Marble10TileLoader15triggerDownloadEPKNS_13GeoSceneTiledERKNS_6TileIdENS_13DownloadUsageE@Base 4:15.08.0
 _ZN6Marble10TileLoader16maximumTileLevelERKNS_13GeoSceneTiledE@Base 4:15.08.0
 _ZN6Marble10TileLoader16staticMetaObjectE@Base 4:15.08.0
 _ZN6Marble10TileLoader18baseTilesAvailableERKNS_13GeoSceneTiledE@Base 4:15.08.0
 _ZN6Marble10TileLoader18loadTileVectorDataEPKNS_18GeoSceneVectorTileERKNS_6TileIdENS_13DownloadUsageE@Base 4:15.08.0
 _ZN6Marble10TileLoader20scaledLowerLevelTileEPKNS_19GeoSceneTextureTileERKNS_6TileIdE@Base 4:15.08.0
 _ZN6Marble10TileLoaderC1EPNS_19HttpDownloadManagerEPKNS_13PluginManagerE@Base 4:15.08.0
 _ZN6Marble10TileLoaderC2EPNS_19HttpDownloadManagerEPKNS_13PluginManagerE@Base 4:15.08.0
 _ZN6Marble10TileLoaderD0Ev@Base 4:15.08.0
 _ZN6Marble10TileLoaderD1Ev@Base 4:15.08.0
 _ZN6Marble10TileLoaderD2Ev@Base 4:15.08.0
 _ZN6Marble10TileRunner11qt_metacallEN11QMetaObject4CallEiPPv@Base 4:15.08.0
 _ZN6Marble10TileRunner11qt_metacastEPKc@Base 4:15.08.0
 _ZN6Marble10TileRunner14documentLoadedERKNS_6TileIdEPNS_15GeoDataDocumentE@Base 4:15.08.0
 _ZN6Marble10TileRunner16staticMetaObjectE@Base 4:15.08.0
 _ZN6Marble10TileRunner3runEv@Base 4:15.08.0
 _ZN6Marble10TileRunnerC1EPNS_10TileLoaderEPKNS_18GeoSceneVectorTileERKNS_6TileIdE@Base 4:15.08.0
 _ZN6Marble10TileRunnerC2EPNS_10TileLoaderEPKNS_18GeoSceneVectorTileERKNS_6TileIdE@Base 4:15.08.0
 _ZN6Marble10TileRunnerD0Ev@Base 4:15.08.0
 _ZN6Marble10TileRunnerD1Ev@Base 4:15.08.0
 _ZN6Marble10TileRunnerD2Ev@Base 4:15.08.0
 _ZN6Marble10TourWidget10closeEventEP11QCloseEvent@Base 4:15.08.0
 _ZN6Marble10TourWidget11addSoundCueEv@Base 4:15.08.0
 _ZN6Marble10TourWidget11eventFilterEP7QObjectP6QEvent@Base 4:15.08.0
 _ZN6Marble10TourWidget11qt_metacallEN11QMetaObject4CallEiPPv@Base 4:15.08.0
 _ZN6Marble10TourWidget11qt_metacastEPKc@Base 4:15.08.0
 _ZN6Marble10TourWidget11stopLoopingEv@Base 4:15.08.0
 _ZN6Marble10TourWidget11stopPlayingEv@Base 4:15.08.0
 _ZN6Marble10TourWidget12addPlacemarkEv@Base 4:15.08.0
 _ZN6Marble10TourWidget12featureAddedEPNS_16GeoDataContainerEPNS_14GeoDataFeatureEi@Base 4:15.08.0
 _ZN6Marble10TourWidget12pausePlayingEv@Base 4:15.08.0
 _ZN6Marble10TourWidget12startPlayingEv@Base 4:15.08.0
 _ZN6Marble10TourWidget13togglePlayingEv@Base 4:15.08.0
 _ZN6Marble10TourWidget14deleteSelectedEv@Base 4:15.08.0
 _ZN6Marble10TourWidget14featureRemovedEPKNS_14GeoDataFeatureE@Base 4:15.08.0
 _ZN6Marble10TourWidget14featureUpdatedEPNS_14GeoDataFeatureE@Base 4:15.08.0
 _ZN6Marble10TourWidget14updateDurationEv@Base 4:15.08.0
 _ZN6Marble10TourWidget15removeHighlightEv@Base 4:15.08.0
 _ZN6Marble10TourWidget15setMarbleWidgetEPNS_12MarbleWidgetE@Base 4:15.08.0
 _ZN6Marble10TourWidget16finishAddingItemEv@Base 4:15.08.0
 _ZN6Marble10TourWidget16handleSliderMoveEi@Base 4:15.08.0
 _ZN6Marble10TourWidget16staticMetaObjectE@Base 4:15.08.0
 _ZN6Marble10TourWidget18addChangePlacemarkEv@Base 4:15.08.0
 _ZN6Marble10TourWidget18addRemovePlacemarkEv@Base 4:15.08.0
 _ZN6Marble10TourWidget23setHighlightedItemIndexEi@Base 4:15.08.0
 _ZN6Marble10TourWidget6moveUpEv@Base 4:15.08.0
 _ZN6Marble10TourWidget7addWaitEv@Base 4:15.08.0
 _ZN6Marble10TourWidget8addFlyToEv@Base 4:15.08.0
 _ZN6Marble10TourWidget8moveDownEv@Base 4:15.08.0
 _ZN6Marble10TourWidget8openTourERK7QString@Base 4:15.08.0
 _ZN6Marble10TourWidgetC1EP7QWidget6QFlagsIN2Qt10WindowTypeEE@Base 4:15.08.0
 _ZN6Marble10TourWidgetC2EP7QWidget6QFlagsIN2Qt10WindowTypeEE@Base 4:15.08.0
 _ZN6Marble10TourWidgetD0Ev@Base 4:15.08.0
 _ZN6Marble10TourWidgetD1Ev@Base 4:15.08.0
 _ZN6Marble10TourWidgetD2Ev@Base 4:15.08.0
 _ZN6Marble10ViewParams13setShowCloudsEb@Base 4:15.08.0
 _ZN6Marble10ViewParams14setViewContextENS_11ViewContextE@Base 4:15.08.0
 _ZN6Marble10ViewParams17setShowAtmosphereEb@Base 4:15.08.0
 _ZN6Marble10ViewParams27setMapQualityForViewContextENS_10MapQualityENS_11ViewContextE@Base 4:15.08.0
 _ZN6Marble10ViewParamsC1Ev@Base 4:15.08.0
 _ZN6Marble10ViewParamsC2Ev@Base 4:15.08.0
 _ZN6Marble10ViewParamsD1Ev@Base 4:15.08.0
 _ZN6Marble10ViewParamsD2Ev@Base 4:15.08.0
 _ZN6Marble10geoDataDocERNS_9GeoParserE@Base 4:15.08.0
 _ZN6Marble11ClipPainter11drawPolygonERK9QPolygonFN2Qt8FillRuleE@Base 4:15.08.0
 _ZN6Marble11ClipPainter12drawPolylineERK9QPolygonF@Base 4:15.08.0
 _ZN6Marble11ClipPainter12drawPolylineERK9QPolygonFR7QVectorI7QPointFE6QFlagsINS_17LabelPositionFlagEE@Base 4:15.08.0
 _ZN6Marble11ClipPainter13setScreenClipEb@Base 4:15.08.0
 _ZN6Marble11ClipPainterC1EP12QPaintDeviceb@Base 4:15.08.0
 _ZN6Marble11ClipPainterC1Ev@Base 4:15.08.0
 _ZN6Marble11ClipPainterC2EP12QPaintDeviceb@Base 4:15.08.0
 _ZN6Marble11ClipPainterC2Ev@Base 4:15.08.0
 _ZN6Marble11ClipPainterD1Ev@Base 4:15.08.0
 _ZN6Marble11ClipPainterD2Ev@Base 4:15.08.0
 _ZN6Marble11FileManager10removeFileERK7QString@Base 4:15.08.0
 _ZN6Marble11FileManager11fileRemovedERK7QString@Base 4:15.08.0
 _ZN6Marble11FileManager11qt_metacallEN11QMetaObject4CallEiPPv@Base 4:15.08.0
 _ZN6Marble11FileManager11qt_metacastEPKc@Base 4:15.08.0
 _ZN6Marble11FileManager16centeredDocumentERKNS_16GeoDataLatLonBoxE@Base 4:15.08.0
 _ZN6Marble11FileManager16staticMetaObjectE@Base 4:15.08.0
 _ZN6Marble11FileManager2atERK7QString@Base 4:15.08.0
 _ZN6Marble11FileManager7addDataERK7QStringS3_NS_12DocumentRoleE@Base 4:15.08.0
 _ZN6Marble11FileManager7addFileERK7QStringS3_PKNS_12GeoDataStyleENS_12DocumentRoleEb@Base 4:15.08.0
 _ZN6Marble11FileManager8saveFileERK7QStringPKNS_15GeoDataDocumentE@Base 4:15.08.0
 _ZN6Marble11FileManager9closeFileEPKNS_15GeoDataDocumentE@Base 4:15.08.0
 _ZN6Marble11FileManager9fileAddedERK7QString@Base 4:15.08.0
 _ZN6Marble11FileManagerC1EPNS_16GeoDataTreeModelEPKNS_13PluginManagerEP7QObject@Base 4:15.08.0
 _ZN6Marble11FileManagerC2EPNS_16GeoDataTreeModelEPKNS_13PluginManagerEP7QObject@Base 4:15.08.0
 _ZN6Marble11FileManagerD0Ev@Base 4:15.08.0
 _ZN6Marble11FileManagerD1Ev@Base 4:15.08.0
 _ZN6Marble11FileManagerD2Ev@Base 4:15.08.0
 _ZN6Marble11GeoDataData14setDisplayNameERK7QString@Base 4:15.08.0
 _ZN6Marble11GeoDataData6unpackER11QDataStream@Base 4:15.08.0
 _ZN6Marble11GeoDataData7setNameERK7QString@Base 4:15.08.0
 _ZN6Marble11GeoDataData8setValueERK8QVariant@Base 4:15.08.0
 _ZN6Marble11GeoDataData8valueRefEv@Base 4:15.08.0
 _ZN6Marble11GeoDataDataC1ERK7QStringRK8QVariant@Base 4:15.08.0
 _ZN6Marble11GeoDataDataC1ERKS0_@Base 4:15.08.0
 _ZN6Marble11GeoDataDataC1Ev@Base 4:15.08.0
 _ZN6Marble11GeoDataDataC2ERK7QStringRK8QVariant@Base 4:15.08.0
 _ZN6Marble11GeoDataDataC2ERKS0_@Base 4:15.08.0
 _ZN6Marble11GeoDataDataC2Ev@Base 4:15.08.0
 _ZN6Marble11GeoDataDataD0Ev@Base 4:15.08.0
 _ZN6Marble11GeoDataDataD1Ev@Base 4:15.08.0
 _ZN6Marble11GeoDataDataD2Ev@Base 4:15.08.0
 _ZN6Marble11GeoDataDataaSERKS0_@Base 4:15.08.0
 _ZN6Marble11GeoDataLink12setHttpQueryERK7QString@Base 4:15.08.0
 _ZN6Marble11GeoDataLink13setViewFormatERK7QString@Base 4:15.08.0
 _ZN6Marble11GeoDataLink14setRefreshModeENS0_11RefreshModeE@Base 4:15.08.0
 _ZN6Marble11GeoDataLink17setViewBoundScaleEd@Base 4:15.08.0
 _ZN6Marble11GeoDataLink18setRefreshIntervalEd@Base 4:15.08.0
 _ZN6Marble11GeoDataLink18setViewRefreshModeENS0_15ViewRefreshModeE@Base 4:15.08.0
 _ZN6Marble11GeoDataLink18setViewRefreshTimeEd@Base 4:15.08.0
 _ZN6Marble11GeoDataLink7setHrefE7QString@Base 4:15.08.0
 _ZN6Marble11GeoDataLinkC1ERKS0_@Base 4:15.08.0
 _ZN6Marble11GeoDataLinkC1Ev@Base 4:15.08.0
 _ZN6Marble11GeoDataLinkC2ERKS0_@Base 4:15.08.0
 _ZN6Marble11GeoDataLinkC2Ev@Base 4:15.08.0
 _ZN6Marble11GeoDataLinkD0Ev@Base 4:15.08.0
 _ZN6Marble11GeoDataLinkD1Ev@Base 4:15.08.0
 _ZN6Marble11GeoDataLinkD2Ev@Base 4:15.08.0
 _ZN6Marble11GeoDataLinkaSERKS0_@Base 4:15.08.0
 _ZN6Marble11GeoDataTour11setPlaylistEPNS_15GeoDataPlaylistE@Base 4:15.08.0
 _ZN6Marble11GeoDataTour1pEv@Base 4:15.08.0
 _ZN6Marble11GeoDataTour4nullE@Base 4:15.08.0
 _ZN6Marble11GeoDataTour8playlistEv@Base 4:15.08.0
 _ZN6Marble11GeoDataTourC1Ev@Base 4:15.08.0
 _ZN6Marble11GeoDataTourC2Ev@Base 4:15.08.0
 _ZN6Marble11GeoDataTourD0Ev@Base 4:15.08.0
 _ZN6Marble11GeoDataTourD1Ev@Base 4:15.08.0
 _ZN6Marble11GeoDataTourD2Ev@Base 4:15.08.0
 _ZN6Marble11GeoDataVec29setXunitsENS0_4UnitE@Base 4:15.08.0
 _ZN6Marble11GeoDataVec29setYunitsENS0_4UnitE@Base 4:15.08.0
 _ZN6Marble11GeoDataVec2C1ERKS0_@Base 4:15.08.0
 _ZN6Marble11GeoDataVec2C1ERKdS2_RK7QStringS5_@Base 4:15.08.0
 _ZN6Marble11GeoDataVec2C1Ev@Base 4:15.08.0
 _ZN6Marble11GeoDataVec2C2ERKS0_@Base 4:15.08.0
 _ZN6Marble11GeoDataVec2C2ERKdS2_RK7QStringS5_@Base 4:15.08.0
 _ZN6Marble11GeoDataVec2C2Ev@Base 4:15.08.0
 _ZN6Marble11GeoDataVec2D1Ev@Base 4:15.08.0
 _ZN6Marble11GeoDataVec2D2Ev@Base 4:15.08.0
 _ZN6Marble11GeoDataVec2aSERKS0_@Base 4:15.08.0
 _ZN6Marble11GeoDataWait11setDurationEd@Base 4:15.08.0
 _ZN6Marble11GeoDataWaitC1Ev@Base 4:15.08.0
 _ZN6Marble11GeoDataWaitC2Ev@Base 4:15.08.0
 _ZN6Marble11GeoDataWaitD0Ev@Base 4:15.08.0
 _ZN6Marble11GeoDataWaitD1Ev@Base 4:15.08.0
 _ZN6Marble11GeoDataWaitD2Ev@Base 4:15.08.0
 _ZN6Marble11GeoDocumentC1Ev@Base 4:15.08.0
 _ZN6Marble11GeoDocumentC2Ev@Base 4:15.08.0
 _ZN6Marble11GeoDocumentD0Ev@Base 4:15.08.0
 _ZN6Marble11GeoDocumentD1Ev@Base 4:15.08.0
 _ZN6Marble11GeoDocumentD2Ev@Base 4:15.08.0
 _ZN6Marble11GeoSceneMap13setLabelColorERK6QColor@Base 4:15.08.0
 _ZN6Marble11GeoSceneMap18setBackgroundColorERK6QColor@Base 4:15.08.0
 _ZN6Marble11GeoSceneMap20setHighlightPenColorERK6QColor@Base 4:15.08.0
 _ZN6Marble11GeoSceneMap22setHighlightBrushColorERK6QColor@Base 4:15.08.0
 _ZN6Marble11GeoSceneMap5layerERK7QString@Base 4:15.08.0
 _ZN6Marble11GeoSceneMap6filterERK7QString@Base 4:15.08.0
 _ZN6Marble11GeoSceneMap8addLayerEPNS_13GeoSceneLayerE@Base 4:15.08.0
 _ZN6Marble11GeoSceneMap9addFilterEPNS_14GeoSceneFilterE@Base 4:15.08.0
 _ZN6Marble11GeoSceneMapC1Ev@Base 4:15.08.0
 _ZN6Marble11GeoSceneMapC2Ev@Base 4:15.08.0
 _ZN6Marble11GeoSceneMapD0Ev@Base 4:15.08.0
 _ZN6Marble11GeoSceneMapD1Ev@Base 4:15.08.0
 _ZN6Marble11GeoSceneMapD2Ev@Base 4:15.08.0
 _ZN6Marble11GroundLayer6renderEPNS_10GeoPainterEPNS_14ViewportParamsERK7QStringPNS_13GeoSceneLayerE@Base 4:15.08.0
 _ZN6Marble11GroundLayer8setColorERK6QColor@Base 4:15.08.0
 _ZN6Marble11GroundLayerC1Ev@Base 4:15.08.0
 _ZN6Marble11GroundLayerC2Ev@Base 4:15.08.0
 _ZN6Marble11GroundLayerD0Ev@Base 4:15.08.0
 _ZN6Marble11GroundLayerD1Ev@Base 4:15.08.0
 _ZN6Marble11GroundLayerD2Ev@Base 4:15.08.0
 _ZN6Marble11MarbleClock11qt_metacallEN11QMetaObject4CallEiPPv@Base 4:15.08.0
 _ZN6Marble11MarbleClock11qt_metacastEPKc@Base 4:15.08.0
 _ZN6Marble11MarbleClock11setDateTimeERK9QDateTime@Base 4:15.08.0
 _ZN6Marble11MarbleClock11setTimezoneEi@Base 4:15.08.0
 _ZN6Marble11MarbleClock11timeChangedEv@Base 4:15.08.0
 _ZN6Marble11MarbleClock16staticMetaObjectE@Base 4:15.08.0
 _ZN6Marble11MarbleClock17setUpdateIntervalEi@Base 4:15.08.0
 _ZN6Marble11MarbleClock21updateIntervalChangedEi@Base 4:15.08.0
 _ZN6Marble11MarbleClock8setSpeedEi@Base 4:15.08.0
 _ZN6Marble11MarbleClockC1EP7QObject@Base 4:15.08.0
 _ZN6Marble11MarbleClockC2EP7QObject@Base 4:15.08.0
 _ZN6Marble11MarbleClockD0Ev@Base 4:15.08.0
 _ZN6Marble11MarbleClockD1Ev@Base 4:15.08.0
 _ZN6Marble11MarbleClockD2Ev@Base 4:15.08.0
 _ZN6Marble11MarbleDebug10setEnabledEb@Base 4:15.08.0
 _ZN6Marble11MarbleDebug9isEnabledEv@Base 4:15.08.0
 _ZN6Marble11MarbleDebug9m_enabledE@Base 4:15.08.0
 _ZN6Marble11MarbleModel10sunLocatorEv@Base 4:15.08.0
 _ZN6Marble11MarbleModel11fileManagerEv@Base 4:15.08.0
 _ZN6Marble11MarbleModel11homeChangedERKNS_18GeoDataCoordinatesE@Base 4:15.08.0
 _ZN6Marble11MarbleModel11qt_metacallEN11QMetaObject4CallEiPPv@Base 4:15.08.0
 _ZN6Marble11MarbleModel11qt_metacastEPKc@Base 4:15.08.0
 _ZN6Marble11MarbleModel11setMapThemeEPNS_16GeoSceneDocumentE@Base 4:15.08.0
 _ZN6Marble11MarbleModel12themeChangedE7QString@Base 4:15.08.0
 _ZN6Marble11MarbleModel13pluginManagerEv@Base 4:15.08.0
 _ZN6Marble11MarbleModel13removeGeoDataERK7QString@Base 4:15.08.0
 _ZN6Marble11MarbleModel13setClockSpeedEi@Base 4:15.08.0
 _ZN6Marble11MarbleModel13setMapThemeIdERK7QString@Base 4:15.08.0
 _ZN6Marble11MarbleModel14addGeoDataFileERK7QString@Base 4:15.08.0
 _ZN6Marble11MarbleModel14elevationModelEv@Base 4:15.08.0
 _ZN6Marble11MarbleModel14placemarkModelEv@Base 4:15.08.0
 _ZN6Marble11MarbleModel14routingManagerEv@Base 4:15.08.0
 _ZN6Marble11MarbleModel14setWorkOfflineEb@Base 4:15.08.0
 _ZN6Marble11MarbleModel14updatePropertyERK7QStringb@Base 4:15.08.0
 _ZN6Marble11MarbleModel15bookmarkManagerEv@Base 4:15.08.0
 _ZN6Marble11MarbleModel15downloadManagerEv@Base 4:15.08.0
 _ZN6Marble11MarbleModel16addGeoDataStringERK7QStringS3_@Base 4:15.08.0
 _ZN6Marble11MarbleModel16setClockDateTimeERK9QDateTime@Base 4:15.08.0
 _ZN6Marble11MarbleModel16setClockTimezoneEi@Base 4:15.08.0
 _ZN6Marble11MarbleModel16staticMetaObjectE@Base 4:15.08.0
 _ZN6Marble11MarbleModel18creatingTilesStartEPNS_11TileCreatorERK7QStringS5_@Base 4:15.08.0
 _ZN6Marble11MarbleModel18groundOverlayModelEv@Base 4:15.08.0
 _ZN6Marble11MarbleModel18workOfflineChangedEv@Base 4:15.08.0
 _ZN6Marble11MarbleModel19addDownloadPoliciesEPKNS_16GeoSceneDocumentE@Base 4:15.08.0
 _ZN6Marble11MarbleModel19setTrackedPlacemarkEPKNS_16GeoDataPlacemarkE@Base 4:15.08.0
 _ZN6Marble11MarbleModel23placemarkSelectionModelEv@Base 4:15.08.0
 _ZN6Marble11MarbleModel23trackedPlacemarkChangedEPKNS_16GeoDataPlacemarkE@Base 4:15.08.0
 _ZN6Marble11MarbleModel24clearPersistentTileCacheEv@Base 4:15.08.0
 _ZN6Marble11MarbleModel27setPersistentTileCacheLimitEy@Base 4:15.08.0
 _ZN6Marble11MarbleModel5clockEv@Base 4:15.08.0
 _ZN6Marble11MarbleModel6legendEv@Base 4:15.08.0
 _ZN6Marble11MarbleModel7setHomeERKNS_18GeoDataCoordinatesEi@Base 4:15.08.0
 _ZN6Marble11MarbleModel7setHomeEddi@Base 4:15.08.0
 _ZN6Marble11MarbleModel8mapThemeEv@Base 4:15.08.0
 _ZN6Marble11MarbleModel9setLegendEP13QTextDocument@Base 4:15.08.0
 _ZN6Marble11MarbleModel9treeModelEv@Base 4:15.08.0
 _ZN6Marble11MarbleModelC1EP7QObject@Base 4:15.08.0
 _ZN6Marble11MarbleModelC2EP7QObject@Base 4:15.08.0
 _ZN6Marble11MarbleModelD0Ev@Base 4:15.08.0
 _ZN6Marble11MarbleModelD1Ev@Base 4:15.08.0
 _ZN6Marble11MarbleModelD2Ev@Base 4:15.08.0
 _ZN6Marble11MovieFormatD1Ev@Base 4:15.08.0
 _ZN6Marble11MovieFormatD2Ev@Base 4:15.08.0
 _ZN6Marble11ParsingTask11qt_metacallEN11QMetaObject4CallEiPPv@Base 4:15.08.0
 _ZN6Marble11ParsingTask11qt_metacastEPKc@Base 4:15.08.0
 _ZN6Marble11ParsingTask16staticMetaObjectE@Base 4:15.08.0
 _ZN6Marble11ParsingTask3runEv@Base 4:15.08.0
 _ZN6Marble11ParsingTask8finishedEPS0_@Base 4:15.08.0
 _ZN6Marble11ParsingTaskC1EPNS_13ParsingRunnerEPNS_20ParsingRunnerManagerERK7QStringNS_12DocumentRoleE@Base 4:15.08.0
 _ZN6Marble11ParsingTaskC2EPNS_13ParsingRunnerEPNS_20ParsingRunnerManagerERK7QStringNS_12DocumentRoleE@Base 4:15.08.0
 _ZN6Marble11ParsingTaskD0Ev@Base 4:15.08.0
 _ZN6Marble11ParsingTaskD1Ev@Base 4:15.08.0
 _ZN6Marble11ParsingTaskD2Ev@Base 4:15.08.0
 _ZN6Marble11RenderState7PrivateC1ERK7QStringNS_12RenderStatusE@Base 4:15.08.0
 _ZN6Marble11RenderState7PrivateC2ERK7QStringNS_12RenderStatusE@Base 4:15.08.0
 _ZN6Marble11RenderState8addChildERKS0_@Base 4:15.08.0
 _ZN6Marble11RenderStateC1ERK7QStringNS_12RenderStatusE@Base 4:15.08.0
 _ZN6Marble11RenderStateC1ERKS0_@Base 4:15.08.0
 _ZN6Marble11RenderStateC2ERK7QStringNS_12RenderStatusE@Base 4:15.08.0
 _ZN6Marble11RenderStateC2ERKS0_@Base 4:15.08.0
 _ZN6Marble11RenderStateD1Ev@Base 4:15.08.0
 _ZN6Marble11RenderStateD2Ev@Base 4:15.08.0
 _ZN6Marble11RenderStateaSERKS0_@Base 4:15.08.0
 _ZN6Marble11RoutingTask11qt_metacallEN11QMetaObject4CallEiPPv@Base 4:15.08.0
 _ZN6Marble11RoutingTask11qt_metacastEPKc@Base 4:15.08.0
 _ZN6Marble11RoutingTask16staticMetaObjectE@Base 4:15.08.0
 _ZN6Marble11RoutingTask3runEv@Base 4:15.08.0
 _ZN6Marble11RoutingTask8finishedEPS0_@Base 4:15.08.0
 _ZN6Marble11RoutingTaskC1EPNS_13RoutingRunnerEPNS_20RoutingRunnerManagerEPKNS_12RouteRequestE@Base 4:15.08.0
 _ZN6Marble11RoutingTaskC2EPNS_13RoutingRunnerEPNS_20RoutingRunnerManagerEPKNS_12RouteRequestE@Base 4:15.08.0
 _ZN6Marble11RoutingTaskD0Ev@Base 4:15.08.0
 _ZN6Marble11RoutingTaskD1Ev@Base 4:15.08.0
 _ZN6Marble11RoutingTaskD2Ev@Base 4:15.08.0
 _ZN6Marble11SerialTrack11qt_metacallEN11QMetaObject4CallEiPPv@Base 4:15.08.0
 _ZN6Marble11SerialTrack11qt_metacastEPKc@Base 4:15.08.0
 _ZN6Marble11SerialTrack12itemFinishedEi@Base 4:15.08.0
 _ZN6Marble11SerialTrack14changeProgressEd@Base 4:15.08.0
 _ZN6Marble11SerialTrack15currentPositionEv@Base 4:15.08.0
 _ZN6Marble11SerialTrack15progressChangedEd@Base 4:15.08.0
 _ZN6Marble11SerialTrack16staticMetaObjectE@Base 4:15.08.0
 _ZN6Marble11SerialTrack18handleFinishedItemEv@Base 4:15.08.0
 _ZN6Marble11SerialTrack2atEi@Base 4:15.08.0
 _ZN6Marble11SerialTrack4playEv@Base 4:15.08.0
 _ZN6Marble11SerialTrack4seekEd@Base 4:15.08.0
 _ZN6Marble11SerialTrack4stopEv@Base 4:15.08.0
 _ZN6Marble11SerialTrack5clearEv@Base 4:15.08.0
 _ZN6Marble11SerialTrack5pauseEv@Base 4:15.08.0
 _ZN6Marble11SerialTrack6appendEPNS_12PlaybackItemE@Base 4:15.08.0
 _ZN6Marble11SerialTrack6pausedEv@Base 4:15.08.0
 _ZN6Marble11SerialTrack8centerOnERKNS_18GeoDataCoordinatesE@Base 4:15.08.0
 _ZN6Marble11SerialTrack8finishedEv@Base 4:15.08.0
 _ZN6Marble11SerialTrackC1Ev@Base 4:15.08.0
 _ZN6Marble11SerialTrackC2Ev@Base 4:15.08.0
 _ZN6Marble11SerialTrackD0Ev@Base 4:15.08.0
 _ZN6Marble11SerialTrackD1Ev@Base 4:15.08.0
 _ZN6Marble11SerialTrackD2Ev@Base 4:15.08.0
 _ZN6Marble11StackedTile13calcByteCountERK6QImageRK7QVectorI14QSharedPointerINS_11TextureTileEEE@Base 4:15.08.0
 _ZN6Marble11StackedTile7setUsedEb@Base 4:15.08.0
 _ZN6Marble11StackedTileC1ERKNS_6TileIdERK6QImageRK7QVectorI14QSharedPointerINS_11TextureTileEEE@Base 4:15.08.0
 _ZN6Marble11StackedTileC2ERKNS_6TileIdERK6QImageRK7QVectorI14QSharedPointerINS_11TextureTileEEE@Base 4:15.08.0
 _ZN6Marble11StackedTileD0Ev@Base 4:15.08.0
 _ZN6Marble11StackedTileD1Ev@Base 4:15.08.0
 _ZN6Marble11StackedTileD2Ev@Base 4:15.08.0
 _ZN6Marble11TargetModel19setShowRoutingItemsEb@Base 4:15.08.0
 _ZN6Marble11TargetModelC1EPNS_11MarbleModelEP7QObject@Base 4:15.08.0
 _ZN6Marble11TargetModelC2EPNS_11MarbleModelEP7QObject@Base 4:15.08.0
 _ZN6Marble11TargetModelD0Ev@Base 4:15.08.0
 _ZN6Marble11TargetModelD1Ev@Base 4:15.08.0
 _ZN6Marble11TargetModelD2Ev@Base 4:15.08.0
 _ZN6Marble11TextureTileC1ERKNS_6TileIdERK6QImagePKNS_8BlendingE@Base 4:15.08.0
 _ZN6Marble11TextureTileC2ERKNS_6TileIdERK6QImagePKNS_8BlendingE@Base 4:15.08.0
 _ZN6Marble11TextureTileD0Ev@Base 4:15.08.0
 _ZN6Marble11TextureTileD1Ev@Base 4:15.08.0
 _ZN6Marble11TextureTileD2Ev@Base 4:15.08.0
 _ZN6Marble11TileCreator11qt_metacallEN11QMetaObject4CallEiPPv@Base 4:15.08.0
 _ZN6Marble11TileCreator11qt_metacastEPKc@Base 4:15.08.0
 _ZN6Marble11TileCreator13setTileFormatERK7QString@Base 4:15.08.0
 _ZN6Marble11TileCreator14setTileQualityEi@Base 4:15.08.0
 _ZN6Marble11TileCreator16staticMetaObjectE@Base 4:15.08.0
 _ZN6Marble11TileCreator18cancelTileCreationEv@Base 4:15.08.0
 _ZN6Marble11TileCreator20setVerifyExactResultEb@Base 4:15.08.0
 _ZN6Marble11TileCreator3runEv@Base 4:15.08.0
 _ZN6Marble11TileCreator8progressEi@Base 4:15.08.0
 _ZN6Marble11TileCreator9setResumeEb@Base 4:15.08.0
 _ZN6Marble11TileCreatorC1EPNS_17TileCreatorSourceERK7QStringS5_@Base 4:15.08.0
 _ZN6Marble11TileCreatorC1ERK7QStringS3_S3_S3_@Base 4:15.08.0
 _ZN6Marble11TileCreatorC2EPNS_17TileCreatorSourceERK7QStringS5_@Base 4:15.08.0
 _ZN6Marble11TileCreatorC2ERK7QStringS3_S3_S3_@Base 4:15.08.0
 _ZN6Marble11TileCreatorD0Ev@Base 4:15.08.0
 _ZN6Marble11TileCreatorD1Ev@Base 4:15.08.0
 _ZN6Marble11TileCreatorD2Ev@Base 4:15.08.0
 _ZN6Marble11geoSceneDocERNS_9GeoParserE@Base 4:15.08.0
 _ZN6Marble12DarkBlendingD0Ev@Base 4:15.08.0
 _ZN6Marble12DarkBlendingD1Ev@Base 4:15.08.0
 _ZN6Marble12DarkBlendingD2Ev@Base 4:15.08.0
 _ZN6Marble12DeferredFlag11qt_metacallEN11QMetaObject4CallEiPPv@Base 4:15.08.0
 _ZN6Marble12DeferredFlag11qt_metacastEPKc@Base 4:15.08.0
 _ZN6Marble12DeferredFlag12slotDrawFlagEv@Base 4:15.08.0
 _ZN6Marble12DeferredFlag16staticMetaObjectE@Base 4:15.08.0
 _ZN6Marble12DeferredFlag7setFlagERK7QStringRK5QSize@Base 4:15.08.0
 _ZN6Marble12DeferredFlag8flagDoneEv@Base 4:15.08.0
 _ZN6Marble12DeferredFlagC1EP7QObject@Base 4:15.08.0
 _ZN6Marble12DeferredFlagC2EP7QObject@Base 4:15.08.0
 _ZN6Marble12DeferredFlagD0Ev@Base 4:15.08.0
 _ZN6Marble12DeferredFlagD1Ev@Base 4:15.08.0
 _ZN6Marble12DeferredFlagD2Ev@Base 4:15.08.0
 _ZN6Marble12GeoDataAlias13setSourceHrefERK7QString@Base 4:15.08.0
 _ZN6Marble12GeoDataAlias13setTargetHrefERK7QString@Base 4:15.08.0
 _ZN6Marble12GeoDataAliasC1ERKS0_@Base 4:15.08.0
 _ZN6Marble12GeoDataAliasC1Ev@Base 4:15.08.0
 _ZN6Marble12GeoDataAliasC2ERKS0_@Base 4:15.08.0
 _ZN6Marble12GeoDataAliasC2Ev@Base 4:15.08.0
 _ZN6Marble12GeoDataAliasD0Ev@Base 4:15.08.0
 _ZN6Marble12GeoDataAliasD1Ev@Base 4:15.08.0
 _ZN6Marble12GeoDataAliasD2Ev@Base 4:15.08.0
 _ZN6Marble12GeoDataAliasaSERKS0_@Base 4:15.08.0
 _ZN6Marble12GeoDataFlyTo11setDurationEd@Base 4:15.08.0
 _ZN6Marble12GeoDataFlyTo12setFlyToModeENS0_9FlyToModeE@Base 4:15.08.0
 _ZN6Marble12GeoDataFlyTo4viewEv@Base 4:15.08.0
 _ZN6Marble12GeoDataFlyTo7setViewEPNS_19GeoDataAbstractViewE@Base 4:15.08.0
 _ZN6Marble12GeoDataFlyToC1ERKS0_@Base 4:15.08.0
 _ZN6Marble12GeoDataFlyToC1Ev@Base 4:15.08.0
 _ZN6Marble12GeoDataFlyToC2ERKS0_@Base 4:15.08.0
 _ZN6Marble12GeoDataFlyToC2Ev@Base 4:15.08.0
 _ZN6Marble12GeoDataFlyToD0Ev@Base 4:15.08.0
 _ZN6Marble12GeoDataFlyToD1Ev@Base 4:15.08.0
 _ZN6Marble12GeoDataFlyToD2Ev@Base 4:15.08.0
 _ZN6Marble12GeoDataFlyToaSERKS0_@Base 4:15.08.0
 _ZN6Marble12GeoDataModel11coordinatesEv@Base 4:15.08.0
 _ZN6Marble12GeoDataModel11orientationEv@Base 4:15.08.0
 _ZN6Marble12GeoDataModel11resourceMapEv@Base 4:15.08.0
 _ZN6Marble12GeoDataModel11setLocationERKNS_15GeoDataLocationE@Base 4:15.08.0
 _ZN6Marble12GeoDataModel13setSourceHrefERK7QString@Base 4:15.08.0
 _ZN6Marble12GeoDataModel13setTargetHrefERK7QString@Base 4:15.08.0
 _ZN6Marble12GeoDataModel14setCoordinatesERKNS_18GeoDataCoordinatesE@Base 4:15.08.0
 _ZN6Marble12GeoDataModel14setOrientationERKNS_18GeoDataOrientationE@Base 4:15.08.0
 _ZN6Marble12GeoDataModel14setResourceMapERKNS_18GeoDataResourceMapE@Base 4:15.08.0
 _ZN6Marble12GeoDataModel4linkEv@Base 4:15.08.0
 _ZN6Marble12GeoDataModel5scaleEv@Base 4:15.08.0
 _ZN6Marble12GeoDataModel7setLinkERKNS_11GeoDataLinkE@Base 4:15.08.0
 _ZN6Marble12GeoDataModel8locationEv@Base 4:15.08.0
 _ZN6Marble12GeoDataModel8setScaleERKNS_12GeoDataScaleE@Base 4:15.08.0
 _ZN6Marble12GeoDataModelC1ERKS0_@Base 4:15.08.0
 _ZN6Marble12GeoDataModelC1Ev@Base 4:15.08.0
 _ZN6Marble12GeoDataModelC2ERKS0_@Base 4:15.08.0
 _ZN6Marble12GeoDataModelC2Ev@Base 4:15.08.0
 _ZN6Marble12GeoDataModelD0Ev@Base 4:15.08.0
 _ZN6Marble12GeoDataModelD1Ev@Base 4:15.08.0
 _ZN6Marble12GeoDataModelD2Ev@Base 4:15.08.0
 _ZN6Marble12GeoDataModelaSERKS0_@Base 4:15.08.0
 _ZN6Marble12GeoDataPoint14setCoordinatesERKNS_18GeoDataCoordinatesE@Base 4:15.08.0
 _ZN6Marble12GeoDataPoint1pEv@Base 4:15.08.0
 _ZN6Marble12GeoDataPoint6detachEv@Base 4:15.08.0
 _ZN6Marble12GeoDataPoint6unpackER11QDataStream@Base 4:15.08.0
 _ZN6Marble12GeoDataPointC1ERKNS_18GeoDataCoordinatesE@Base 4:15.08.0
 _ZN6Marble12GeoDataPointC1ERKS0_@Base 4:15.08.0
 _ZN6Marble12GeoDataPointC1EdddNS_18GeoDataCoordinates4UnitE@Base 4:15.08.0
 _ZN6Marble12GeoDataPointC1Ev@Base 4:15.08.0
 _ZN6Marble12GeoDataPointC2ERKNS_18GeoDataCoordinatesE@Base 4:15.08.0
 _ZN6Marble12GeoDataPointC2ERKS0_@Base 4:15.08.0
 _ZN6Marble12GeoDataPointC2EdddNS_18GeoDataCoordinates4UnitE@Base 4:15.08.0
 _ZN6Marble12GeoDataPointC2Ev@Base 4:15.08.0
 _ZN6Marble12GeoDataPointD0Ev@Base 4:15.08.0
 _ZN6Marble12GeoDataPointD1Ev@Base 4:15.08.0
 _ZN6Marble12GeoDataPointD2Ev@Base 4:15.08.0
 _ZN6Marble12GeoDataScale4setXEd@Base 4:15.08.0
 _ZN6Marble12GeoDataScale4setYEd@Base 4:15.08.0
 _ZN6Marble12GeoDataScale4setZEd@Base 4:15.08.0
 _ZN6Marble12GeoDataScaleC1ERKS0_@Base 4:15.08.0
 _ZN6Marble12GeoDataScaleC1Ev@Base 4:15.08.0
 _ZN6Marble12GeoDataScaleC2ERKS0_@Base 4:15.08.0
 _ZN6Marble12GeoDataScaleC2Ev@Base 4:15.08.0
 _ZN6Marble12GeoDataScaleD0Ev@Base 4:15.08.0
 _ZN6Marble12GeoDataScaleD1Ev@Base 4:15.08.0
 _ZN6Marble12GeoDataScaleD2Ev@Base 4:15.08.0
 _ZN6Marble12GeoDataScaleaSERKS0_@Base 4:15.08.0
 _ZN6Marble12GeoDataStyle10labelStyleEv@Base 4:15.08.0
 _ZN6Marble12GeoDataStyle12balloonStyleEv@Base 4:15.08.0
 _ZN6Marble12GeoDataStyle12setIconStyleERKNS_16GeoDataIconStyleE@Base 4:15.08.0
 _ZN6Marble12GeoDataStyle12setLineStyleERKNS_16GeoDataLineStyleE@Base 4:15.08.0
 _ZN6Marble12GeoDataStyle12setListStyleERKNS_16GeoDataListStyleE@Base 4:15.08.0
 _ZN6Marble12GeoDataStyle12setPolyStyleERKNS_16GeoDataPolyStyleE@Base 4:15.08.0
 _ZN6Marble12GeoDataStyle13setLabelStyleERKNS_17GeoDataLabelStyleE@Base 4:15.08.0
 _ZN6Marble12GeoDataStyle15setBalloonStyleERKNS_19GeoDataBalloonStyleE@Base 4:15.08.0
 _ZN6Marble12GeoDataStyle6unpackER11QDataStream@Base 4:15.08.0
 _ZN6Marble12GeoDataStyle9iconStyleEv@Base 4:15.08.0
 _ZN6Marble12GeoDataStyle9lineStyleEv@Base 4:15.08.0
 _ZN6Marble12GeoDataStyle9listStyleEv@Base 4:15.08.0
 _ZN6Marble12GeoDataStyle9polyStyleEv@Base 4:15.08.0
 _ZN6Marble12GeoDataStyleC1ERK6QImageRK5QFontRK6QColor@Base 4:15.08.0
 _ZN6Marble12GeoDataStyleC1ERKS0_@Base 4:15.08.0
 _ZN6Marble12GeoDataStyleC1Ev@Base 4:15.08.0
 _ZN6Marble12GeoDataStyleC2ERK6QImageRK5QFontRK6QColor@Base 4:15.08.0
 _ZN6Marble12GeoDataStyleC2ERKS0_@Base 4:15.08.0
 _ZN6Marble12GeoDataStyleC2Ev@Base 4:15.08.0
 _ZN6Marble12GeoDataStyleD0Ev@Base 4:15.08.0
 _ZN6Marble12GeoDataStyleD1Ev@Base 4:15.08.0
 _ZN6Marble12GeoDataStyleD2Ev@Base 4:15.08.0
 _ZN6Marble12GeoDataStyleaSERKS0_@Base 4:15.08.0
 _ZN6Marble12GeoDataTrack10appendWhenERK9QDateTime@Base 4:15.08.0
 _ZN6Marble12GeoDataTrack11removeAfterERK9QDateTime@Base 4:15.08.0
 _ZN6Marble12GeoDataTrack12removeBeforeERK9QDateTime@Base 4:15.08.0
 _ZN6Marble12GeoDataTrack14appendAltitudeEd@Base 4:15.08.0
 _ZN6Marble12GeoDataTrack14setInterpolateEb@Base 4:15.08.0
 _ZN6Marble12GeoDataTrack15setExtendedDataERKNS_19GeoDataExtendedDataE@Base 4:15.08.0
 _ZN6Marble12GeoDataTrack17appendCoordinatesERKNS_18GeoDataCoordinatesE@Base 4:15.08.0
 _ZN6Marble12GeoDataTrack5clearEv@Base 4:15.08.0
 _ZN6Marble12GeoDataTrack6unpackER11QDataStream@Base 4:15.08.0
 _ZN6Marble12GeoDataTrack8addPointERK9QDateTimeRKNS_18GeoDataCoordinatesE@Base 4:15.08.0
 _ZN6Marble12GeoDataTrackC1ERKS0_@Base 4:15.08.0
 _ZN6Marble12GeoDataTrackC1Ev@Base 4:15.08.0
 _ZN6Marble12GeoDataTrackC2ERKS0_@Base 4:15.08.0
 _ZN6Marble12GeoDataTrackC2Ev@Base 4:15.08.0
 _ZN6Marble12GeoDataTrackD0Ev@Base 4:15.08.0
 _ZN6Marble12GeoDataTrackD1Ev@Base 4:15.08.0
 _ZN6Marble12GeoDataTrackD2Ev@Base 4:15.08.0
 _ZN6Marble12GeoDataTrackaSERKS0_@Base 4:15.08.0
 _ZN6Marble12GeoDataTypes14GeoDataLodTypeE@Base 4:15.08.0
 _ZN6Marble12GeoDataTypes15GeoDataDataTypeE@Base 4:15.08.0
 _ZN6Marble12GeoDataTypes15GeoDataLinkTypeE@Base 4:15.08.0
 _ZN6Marble12GeoDataTypes15GeoDataTourTypeE@Base 4:15.08.0
 _ZN6Marble12GeoDataTypes15GeoDataWaitTypeE@Base 4:15.08.0
 _ZN6Marble12GeoDataTypes16GeoDataAliasTypeE@Base 4:15.08.0
 _ZN6Marble12GeoDataTypes16GeoDataFlyToTypeE@Base 4:15.08.0
 _ZN6Marble12GeoDataTypes16GeoDataModelTypeE@Base 4:15.08.0
 _ZN6Marble12GeoDataTypes16GeoDataPointTypeE@Base 4:15.08.0
 _ZN6Marble12GeoDataTypes16GeoDataScaleTypeE@Base 4:15.08.0
 _ZN6Marble12GeoDataTypes16GeoDataStyleTypeE@Base 4:15.08.0
 _ZN6Marble12GeoDataTypes16GeoDataTrackTypeE@Base 4:15.08.0
 _ZN6Marble12GeoDataTypes17GeoDataCameraTypeE@Base 4:15.08.0
 _ZN6Marble12GeoDataTypes17GeoDataChangeTypeE@Base 4:15.08.0
 _ZN6Marble12GeoDataTypes17GeoDataCreateTypeE@Base 4:15.08.0
 _ZN6Marble12GeoDataTypes17GeoDataDeleteTypeE@Base 4:15.08.0
 _ZN6Marble12GeoDataTypes17GeoDataFolderTypeE@Base 4:15.08.0
 _ZN6Marble12GeoDataTypes17GeoDataLookAtTypeE@Base 4:15.08.0
 _ZN6Marble12GeoDataTypes17GeoDataRegionTypeE@Base 4:15.08.0
 _ZN6Marble12GeoDataTypes17GeoDataSchemaTypeE@Base 4:15.08.0
 _ZN6Marble12GeoDataTypes17GeoDataUpdateTypeE@Base 4:15.08.0
 _ZN6Marble12GeoDataTypes18GeoDataFeatureTypeE@Base 4:15.08.0
 _ZN6Marble12GeoDataTypes18GeoDataHotspotTypeE@Base 4:15.08.0
 _ZN6Marble12GeoDataTypes18GeoDataPolygonTypeE@Base 4:15.08.0
 _ZN6Marble12GeoDataTypes19GeoDataDocumentTypeE@Base 4:15.08.0
 _ZN6Marble12GeoDataTypes19GeoDataGeometryTypeE@Base 4:15.08.0
 _ZN6Marble12GeoDataTypes19GeoDataItemIconTypeE@Base 4:15.08.0
 _ZN6Marble12GeoDataTypes19GeoDataLocationTypeE@Base 4:15.08.0
 _ZN6Marble12GeoDataTypes19GeoDataPlaylistTypeE@Base 4:15.08.0
 _ZN6Marble12GeoDataTypes19GeoDataSoundCueTypeE@Base 4:15.08.0
 _ZN6Marble12GeoDataTypes19GeoDataStyleMapTypeE@Base 4:15.08.0
 _ZN6Marble12GeoDataTypes19GeoDataTimeSpanTypeE@Base 4:15.08.0
 _ZN6Marble12GeoDataTypes20GeoDataContainerTypeE@Base 4:15.08.0
 _ZN6Marble12GeoDataTypes20GeoDataIconStyleTypeE@Base 4:15.08.0
 _ZN6Marble12GeoDataTypes20GeoDataLatLonBoxTypeE@Base 4:15.08.0
 _ZN6Marble12GeoDataTypes20GeoDataLineStyleTypeE@Base 4:15.08.0
 _ZN6Marble12GeoDataTypes20GeoDataListStyleTypeE@Base 4:15.08.0
 _ZN6Marble12GeoDataTypes20GeoDataPlacemarkTypeE@Base 4:15.08.0
 _ZN6Marble12GeoDataTypes20GeoDataPolyStyleTypeE@Base 4:15.08.0
 _ZN6Marble12GeoDataTypes20GeoDataTimeStampTypeE@Base 4:15.08.0
 _ZN6Marble12GeoDataTypes21GeoDataColorStyleTypeE@Base 4:15.08.0
 _ZN6Marble12GeoDataTypes21GeoDataLabelStyleTypeE@Base 4:15.08.0
 _ZN6Marble12GeoDataTypes21GeoDataLatLonQuadTypeE@Base 4:15.08.0
 _ZN6Marble12GeoDataTypes21GeoDataLineStringTypeE@Base 4:15.08.0
 _ZN6Marble12GeoDataTypes21GeoDataLinearRingTypeE@Base 4:15.08.0
 _ZN6Marble12GeoDataTypes21GeoDataMultiTrackTypeE@Base 4:15.08.0
 _ZN6Marble12GeoDataTypes21GeoDataSchemaDataTypeE@Base 4:15.08.0
 _ZN6Marble12GeoDataTypes21GeoDataSimpleDataTypeE@Base 4:15.08.0
 _ZN6Marble12GeoDataTypes21GeoDataViewVolumeTypeE@Base 4:15.08.0
 _ZN6Marble12GeoDataTypes22GeoDataNetworkLinkTypeE@Base 4:15.08.0
 _ZN6Marble12GeoDataTypes22GeoDataOrientationTypeE@Base 4:15.08.0
 _ZN6Marble12GeoDataTypes22GeoDataResourceMapTypeE@Base 4:15.08.0
 _ZN6Marble12GeoDataTypes22GeoDataSimpleFieldTypeE@Base 4:15.08.0
 _ZN6Marble12GeoDataTypes22GeoDataTourControlTypeE@Base 4:15.08.0
 _ZN6Marble12GeoDataTypes23GeoDataBalloonStyleTypeE@Base 4:15.08.0
 _ZN6Marble12GeoDataTypes23GeoDataExtendedDataTypeE@Base 4:15.08.0
 _ZN6Marble12GeoDataTypes23GeoDataImagePyramidTypeE@Base 4:15.08.0
 _ZN6Marble12GeoDataTypes23GeoDataLatLonAltBoxTypeE@Base 4:15.08.0
 _ZN6Marble12GeoDataTypes23GeoDataPhotoOverlayTypeE@Base 4:15.08.0
 _ZN6Marble12GeoDataTypes24GeoDataGroundOverlayTypeE@Base 4:15.08.0
 _ZN6Marble12GeoDataTypes24GeoDataInnerBoundaryTypeE@Base 4:15.08.0
 _ZN6Marble12GeoDataTypes24GeoDataMultiGeometryTypeE@Base 4:15.08.0
 _ZN6Marble12GeoDataTypes24GeoDataOuterBoundaryTypeE@Base 4:15.08.0
 _ZN6Marble12GeoDataTypes24GeoDataScreenOverlayTypeE@Base 4:15.08.0
 _ZN6Marble12GeoDataTypes24GeoDataTimePrimitiveTypeE@Base 4:15.08.0
 _ZN6Marble12GeoDataTypes25GeoDataAnimatedUpdateTypeE@Base 4:15.08.0
 _ZN6Marble12GeoDataTypes26GeoDataSimpleArrayDataTypeE@Base 4:15.08.0
 _ZN6Marble12GeoDataTypes29GeoDataNetworkLinkControlTypeE@Base 4:15.08.0
 _ZN6Marble12GeoSceneHead10setVisibleEb@Base 4:15.08.0
 _ZN6Marble12GeoSceneHead14setDescriptionERK7QString@Base 4:15.08.0
 _ZN6Marble12GeoSceneHead4iconEv@Base 4:15.08.0
 _ZN6Marble12GeoSceneHead4zoomEv@Base 4:15.08.0
 _ZN6Marble12GeoSceneHead7licenseEv@Base 4:15.08.0
 _ZN6Marble12GeoSceneHead7setNameERK7QString@Base 4:15.08.0
 _ZN6Marble12GeoSceneHead8setThemeERK7QString@Base 4:15.08.0
 _ZN6Marble12GeoSceneHead9setRadiusEd@Base 4:15.08.0
 _ZN6Marble12GeoSceneHead9setTargetERK7QString@Base 4:15.08.0
 _ZN6Marble12GeoSceneHeadC1Ev@Base 4:15.08.0
 _ZN6Marble12GeoSceneHeadC2Ev@Base 4:15.08.0
 _ZN6Marble12GeoSceneHeadD0Ev@Base 4:15.08.0
 _ZN6Marble12GeoSceneHeadD1Ev@Base 4:15.08.0
 _ZN6Marble12GeoSceneHeadD2Ev@Base 4:15.08.0
 _ZN6Marble12GeoSceneIcon8setColorERK6QColor@Base 4:15.08.0
 _ZN6Marble12GeoSceneIcon9setPixmapERK7QString@Base 4:15.08.0
 _ZN6Marble12GeoSceneIconC1Ev@Base 4:15.08.0
 _ZN6Marble12GeoSceneIconC2Ev@Base 4:15.08.0
 _ZN6Marble12GeoSceneIconD0Ev@Base 4:15.08.0
 _ZN6Marble12GeoSceneIconD1Ev@Base 4:15.08.0
 _ZN6Marble12GeoSceneIconD2Ev@Base 4:15.08.0
 _ZN6Marble12GeoSceneItem10setSpacingEi@Base 4:15.08.0
 _ZN6Marble12GeoSceneItem12setCheckableEb@Base 4:15.08.0
 _ZN6Marble12GeoSceneItem12setConnectToERK7QString@Base 4:15.08.0
 _ZN6Marble12GeoSceneItem4iconEv@Base 4:15.08.0
 _ZN6Marble12GeoSceneItem7setTextERK7QString@Base 4:15.08.0
 _ZN6Marble12GeoSceneItemC1ERK7QString@Base 4:15.08.0
 _ZN6Marble12GeoSceneItemC2ERK7QString@Base 4:15.08.0
 _ZN6Marble12GeoSceneItemD0Ev@Base 4:15.08.0
 _ZN6Marble12GeoSceneItemD1Ev@Base 4:15.08.0
 _ZN6Marble12GeoSceneItemD2Ev@Base 4:15.08.0
 _ZN6Marble12GeoSceneZoom10setMaximumEi@Base 4:15.08.0
 _ZN6Marble12GeoSceneZoom10setMinimumEi@Base 4:15.08.0
 _ZN6Marble12GeoSceneZoom11setDiscreteEb@Base 4:15.08.0
 _ZN6Marble12GeoSceneZoomC1Ev@Base 4:15.08.0
 _ZN6Marble12GeoSceneZoomC2Ev@Base 4:15.08.0
 _ZN6Marble12GeoSceneZoomD0Ev@Base 4:15.08.0
 _ZN6Marble12GeoSceneZoomD1Ev@Base 4:15.08.0
 _ZN6Marble12GeoSceneZoomD2Ev@Base 4:15.08.0
 _ZN6Marble12GeoTagWriter10recognizesERK5QPairI7QStringS2_E@Base 4:15.08.0
 _ZN6Marble12GeoTagWriter13tagWriterHashEv@Base 4:15.08.0
 _ZN6Marble12GeoTagWriter14registerWriterERK5QPairI7QStringS2_EPKS0_@Base 4:15.08.0
 _ZN6Marble12GeoTagWriterC1Ev@Base 4:15.08.0
 _ZN6Marble12GeoTagWriterC2Ev@Base 4:15.08.0
 _ZN6Marble12GeoTagWriterD0Ev@Base 4:15.08.0
 _ZN6Marble12GeoTagWriterD1Ev@Base 4:15.08.0
 _ZN6Marble12GeoTagWriterD2Ev@Base 4:15.08.0
 _ZN6Marble12GeoUriParser10queryValueERK4QUrlRK7QStringS6_@Base 4:15.08.0
 _ZN6Marble12GeoUriParser5parseEv@Base 4:15.08.0
 _ZN6Marble12GeoUriParser9setGeoUriERK7QString@Base 4:15.08.0
 _ZN6Marble12GeoUriParserC1ERK7QString@Base 4:15.08.0
 _ZN6Marble12GeoUriParserC2ERK7QString@Base 4:15.08.0
 _ZN6Marble12KmlTagWriterD0Ev@Base 4:15.08.0
 _ZN6Marble12KmlTagWriterD1Ev@Base 4:15.08.0
 _ZN6Marble12KmlTagWriterD2Ev@Base 4:15.08.0
 _ZN6Marble12LayerManager11qt_metacallEN11QMetaObject4CallEiPPv@Base 4:15.08.0
 _ZN6Marble12LayerManager11qt_metacastEPKc@Base 4:15.08.0
 _ZN6Marble12LayerManager11removeLayerEPNS_14LayerInterfaceE@Base 4:15.08.0
 _ZN6Marble12LayerManager12renderLayersEPNS_10GeoPainterEPNS_14ViewportParamsE@Base 4:15.08.0
 _ZN6Marble12LayerManager13repaintNeededERK7QRegion@Base 4:15.08.0
 _ZN6Marble12LayerManager16staticMetaObjectE@Base 4:15.08.0
 _ZN6Marble12LayerManager17setShowBackgroundEb@Base 4:15.08.0
 _ZN6Marble12LayerManager17visibilityChangedERK7QStringb@Base 4:15.08.0
 _ZN6Marble12LayerManager19setShowRuntimeTraceEb@Base 4:15.08.0
 _ZN6Marble12LayerManager21pluginSettingsChangedEv@Base 4:15.08.0
 _ZN6Marble12LayerManager23renderPluginInitializedEPNS_12RenderPluginE@Base 4:15.08.0
 _ZN6Marble12LayerManager7Private10addPluginsEv@Base 4:15.08.0
 _ZN6Marble12LayerManager7Private16updateVisibilityEbRK7QString@Base 4:15.08.0
 _ZN6Marble12LayerManager7PrivateC1EPKNS_11MarbleModelEPS0_@Base 4:15.08.0
 _ZN6Marble12LayerManager7PrivateC2EPKNS_11MarbleModelEPS0_@Base 4:15.08.0
 _ZN6Marble12LayerManager7PrivateD1Ev@Base 4:15.08.0
 _ZN6Marble12LayerManager7PrivateD2Ev@Base 4:15.08.0
 _ZN6Marble12LayerManager8addLayerEPNS_14LayerInterfaceE@Base 4:15.08.0
 _ZN6Marble12LayerManagerC1EPKNS_11MarbleModelEP7QObject@Base 4:15.08.0
 _ZN6Marble12LayerManagerC2EPKNS_11MarbleModelEP7QObject@Base 4:15.08.0
 _ZN6Marble12LayerManagerD0Ev@Base 4:15.08.0
 _ZN6Marble12LayerManagerD1Ev@Base 4:15.08.0
 _ZN6Marble12LayerManagerD2Ev@Base 4:15.08.0
 _ZN6Marble12LegendWidget11qt_metacallEN11QMetaObject4CallEiPPv@Base 4:15.08.0
 _ZN6Marble12LegendWidget11qt_metacastEPKc@Base 4:15.08.0
 _ZN6Marble12LegendWidget14setMarbleModelEPNS_11MarbleModelE@Base 4:15.08.0
 _ZN6Marble12LegendWidget15tourLinkClickedERK7QString@Base 4:15.08.0
 _ZN6Marble12LegendWidget16staticMetaObjectE@Base 4:15.08.0
 _ZN6Marble12LegendWidget20propertyValueChangedERK7QStringb@Base 4:15.08.0
 _ZN6Marble12LegendWidgetC1EP7QWidget6QFlagsIN2Qt10WindowTypeEE@Base 4:15.08.0
 _ZN6Marble12LegendWidgetC2EP7QWidget6QFlagsIN2Qt10WindowTypeEE@Base 4:15.08.0
 _ZN6Marble12LegendWidgetD0Ev@Base 4:15.08.0
 _ZN6Marble12LegendWidgetD1Ev@Base 4:15.08.0
 _ZN6Marble12LegendWidgetD2Ev@Base 4:15.08.0
 _ZN6Marble12LonLatParser11isDirectionERK7QStringRK11QStringList@Base 4:15.08.0
 _ZN6Marble12LonLatParser11isDirectionERK7QStringS3_@Base 4:15.08.0
 _ZN6Marble12LonLatParser13getLocaleListER11QStringListRK7QStringRK13QLatin1StringS5_@Base 4:15.08.0
 _ZN6Marble12LonLatParser13tryMatchFromDERK7QStringNS0_11DirPositionE@Base 4:15.08.0
 _ZN6Marble12LonLatParser14tryMatchFromDmERK7QStringNS0_11DirPositionE@Base 4:15.08.0
 _ZN6Marble12LonLatParser15tryMatchFromDmsERK7QStringNS0_11DirPositionE@Base 4:15.08.0
 _ZN6Marble12LonLatParser16degreeValueFromDERK7QRegExpib@Base 4:15.08.0
 _ZN6Marble12LonLatParser17degreeValueFromDMERK7QRegExpib@Base 4:15.08.0
 _ZN6Marble12LonLatParser17isOneOfDirectionsERK7QStringRK11QStringListS6_Rb@Base 4:15.08.0
 _ZN6Marble12LonLatParser17isOneOfDirectionsERK7QStringS3_S3_Rb@Base 4:15.08.0
 _ZN6Marble12LonLatParser18degreeValueFromDMSERK7QRegExpib@Base 4:15.08.0
 _ZN6Marble12LonLatParser21createDecimalPointExpEv@Base 4:15.08.0
 _ZN6Marble12LonLatParser5parseERK7QString@Base 4:15.08.0
 _ZN6Marble12LonLatParser6regExpERK7QString@Base 4:15.08.0
 _ZN6Marble12LonLatParser7initAllEv@Base 4:15.08.0
 _ZN6Marble12LonLatParserC1Ev@Base 4:15.08.0
 _ZN6Marble12LonLatParserC2Ev@Base 4:15.08.0
 _ZN6Marble12LonLatParserD1Ev@Base 4:15.08.0
 _ZN6Marble12LonLatParserD2Ev@Base 4:15.08.0
 _ZN6Marble12MarbleGlobal11getInstanceEv@Base 4:15.08.0
 _ZN6Marble12MarbleGlobal11setProfilesE6QFlagsINS0_7ProfileEE@Base 4:15.08.0
 _ZN6Marble12MarbleGlobal14detectProfilesEv@Base 4:15.08.0
 _ZN6Marble12MarbleGlobalC1Ev@Base 4:15.08.0
 _ZN6Marble12MarbleGlobalC2Ev@Base 4:15.08.0
 _ZN6Marble12MarbleGlobalD1Ev@Base 4:15.08.0
 _ZN6Marble12MarbleGlobalD2Ev@Base 4:15.08.0
 _ZN6Marble12MarbleLocale12languageCodeEv@Base 4:15.08.0
 _ZN6Marble12MarbleLocale16unitAbbreviationENS0_11MeasureUnitE@Base 4:15.08.0
 _ZN6Marble12MarbleLocale17meterToTargetUnitEdNS0_17MeasurementSystemERdRNS0_11MeasureUnitE@Base 4:15.08.0
 _ZN6Marble12MarbleLocale20setMeasurementSystemENS0_17MeasurementSystemE@Base 4:15.08.0
 _ZN6Marble12MarbleLocaleC1Ev@Base 4:15.08.0
 _ZN6Marble12MarbleLocaleC2Ev@Base 4:15.08.0
 _ZN6Marble12MarbleLocaleD1Ev@Base 4:15.08.0
 _ZN6Marble12MarbleLocaleD2Ev@Base 4:15.08.0
 _ZN6Marble12MarbleWidget10leaveEventEP6QEvent@Base 4:15.08.0
 _ZN6Marble12MarbleWidget10paintEventEP11QPaintEvent@Base 4:15.08.0
 _ZN6Marble12MarbleWidget10popupLayerEv@Base 4:15.08.0
 _ZN6Marble12MarbleWidget10zoomViewByEiNS_9FlyToModeE@Base 4:15.08.0
 _ZN6Marble12MarbleWidget11changeEventEP6QEvent@Base 4:15.08.0
 _ZN6Marble12MarbleWidget11customPaintEPNS_10GeoPainterE@Base 4:15.08.0
 _ZN6Marble12MarbleWidget11qt_metacallEN11QMetaObject4CallEiPPv@Base 4:15.08.0
 _ZN6Marble12MarbleWidget11qt_metacastEPKc@Base 4:15.08.0
 _ZN6Marble12MarbleWidget11removeLayerEPNS_14LayerInterfaceE@Base 4:15.08.0
 _ZN6Marble12MarbleWidget11resizeEventEP12QResizeEvent@Base 4:15.08.0
 _ZN6Marble12MarbleWidget11setDistanceEd@Base 4:15.08.0
 _ZN6Marble12MarbleWidget11setShowGridEb@Base 4:15.08.0
 _ZN6Marble12MarbleWidget11zoomChangedEi@Base 4:15.08.0
 _ZN6Marble12MarbleWidget12routingLayerEv@Base 4:15.08.0
 _ZN6Marble12MarbleWidget12setSelectionERK5QRect@Base 4:15.08.0
 _ZN6Marble12MarbleWidget12setShowLakesEb@Base 4:15.08.0
 _ZN6Marble12MarbleWidget12themeChangedERK7QString@Base 4:15.08.0
 _ZN6Marble12MarbleWidget13connectNotifyERK11QMetaMethod@Base 4:15.08.0
 _ZN6Marble12MarbleWidget13mapScreenShotEv@Base 4:15.08.0
 _ZN6Marble12MarbleWidget13setFocusPointERKNS_18GeoDataCoordinatesE@Base 4:15.08.0
 _ZN6Marble12MarbleWidget13setMapThemeIdERK7QString@Base 4:15.08.0
 _ZN6Marble12MarbleWidget13setProjectionENS_10ProjectionE@Base 4:15.08.0
 _ZN6Marble12MarbleWidget13setProjectionEi@Base 4:15.08.0
 _ZN6Marble12MarbleWidget13setShowCitiesEb@Base 4:15.08.0
 _ZN6Marble12MarbleWidget13setShowCloudsEb@Base 4:15.08.0
 _ZN6Marble12MarbleWidget13setShowPlacesEb@Base 4:15.08.0
 _ZN6Marble12MarbleWidget13setShowReliefEb@Base 4:15.08.0
 _ZN6Marble12MarbleWidget13setShowRiversEb@Base 4:15.08.0
 _ZN6Marble12MarbleWidget13setShowTileIdEb@Base 4:15.08.0
 _ZN6Marble12MarbleWidget14downloadRegionERK7QVectorINS_17TileCoordsPyramidEE@Base 4:15.08.0
 _ZN6Marble12MarbleWidget14regionSelectedERK5QListIdE@Base 4:15.08.0
 _ZN6Marble12MarbleWidget14setDefaultFontERK5QFont@Base 4:15.08.0
 _ZN6Marble12MarbleWidget14setShowBordersEb@Base 4:15.08.0
 _ZN6Marble12MarbleWidget14setShowCompassEb@Base 4:15.08.0
 _ZN6Marble12MarbleWidget14setShowTerrainEb@Base 4:15.08.0
 _ZN6Marble12MarbleWidget14setViewContextENS_11ViewContextE@Base 4:15.08.0
 _ZN6Marble12MarbleWidget15distanceChangedERK7QString@Base 4:15.08.0
 _ZN6Marble12MarbleWidget15framesPerSecondEd@Base 4:15.08.0
 _ZN6Marble12MarbleWidget15resetFocusPointEv@Base 4:15.08.0
 _ZN6Marble12MarbleWidget15setInputEnabledEb@Base 4:15.08.0
 _ZN6Marble12MarbleWidget15setInputHandlerEPNS_24MarbleWidgetInputHandlerE@Base 4:15.08.0
 _ZN6Marble12MarbleWidget15setShowIceLayerEb@Base 4:15.08.0
 _ZN6Marble12MarbleWidget15setShowScaleBarEb@Base 4:15.08.0
 _ZN6Marble12MarbleWidget16CustomPaintLayer6renderEPNS_10GeoPainterEPNS_14ViewportParamsERK7QStringPNS_13GeoSceneLayerE@Base 4:15.08.0
 _ZN6Marble12MarbleWidget16CustomPaintLayerD0Ev@Base 4:15.08.0
 _ZN6Marble12MarbleWidget16CustomPaintLayerD1Ev@Base 4:15.08.0
 _ZN6Marble12MarbleWidget16CustomPaintLayerD2Ev@Base 4:15.08.0
 _ZN6Marble12MarbleWidget16disconnectNotifyERK11QMetaMethod@Base 4:15.08.0
 _ZN6Marble12MarbleWidget16notifyMouseClickEii@Base 4:15.08.0
 _ZN6Marble12MarbleWidget16setPropertyValueERK7QStringb@Base 4:15.08.0
 _ZN6Marble12MarbleWidget16setShowFrameRateEb@Base 4:15.08.0
 _ZN6Marble12MarbleWidget16staticMetaObjectE@Base 4:15.08.0
 _ZN6Marble12MarbleWidget16tileLevelChangedEi@Base 4:15.08.0
 _ZN6Marble12MarbleWidget17projectionChangedENS_10ProjectionE@Base 4:15.08.0
 _ZN6Marble12MarbleWidget17setCenterLatitudeEdNS_9FlyToModeE@Base 4:15.08.0
 _ZN6Marble12MarbleWidget17setShowAtmosphereEb@Base 4:15.08.0
 _ZN6Marble12MarbleWidget17setShowBackgroundEb@Base 4:15.08.0
 _ZN6Marble12MarbleWidget17setShowCityLightsEb@Base 4:15.08.0
 _ZN6Marble12MarbleWidget17setShowCrosshairsEb@Base 4:15.08.0
 _ZN6Marble12MarbleWidget17setShowSunShadingEb@Base 4:15.08.0
 _ZN6Marble12MarbleWidget18creatingTilesStartEPNS_11TileCreatorERK7QStringS5_@Base 4:15.08.0
 _ZN6Marble12MarbleWidget18readPluginSettingsER9QSettings@Base 4:15.08.0
 _ZN6Marble12MarbleWidget18renderStateChangedERKNS_11RenderStateE@Base 4:15.08.0
 _ZN6Marble12MarbleWidget18setCenterLongitudeEdNS_9FlyToModeE@Base 4:15.08.0
 _ZN6Marble12MarbleWidget18setShowOtherPlacesEb@Base 4:15.08.0
 _ZN6Marble12MarbleWidget18setShowOverviewMapEb@Base 4:15.08.0
 _ZN6Marble12MarbleWidget19renderStatusChangedENS_12RenderStatusE@Base 4:15.08.0
 _ZN6Marble12MarbleWidget19setDefaultAngleUnitENS_9AngleUnitE@Base 4:15.08.0
 _ZN6Marble12MarbleWidget19setHighlightEnabledEb@Base 4:15.08.0
 _ZN6Marble12MarbleWidget19setShowRuntimeTraceEb@Base 4:15.08.0
 _ZN6Marble12MarbleWidget20mouseMoveGeoPositionERK7QString@Base 4:15.08.0
 _ZN6Marble12MarbleWidget20setAnimationsEnabledEb@Base 4:15.08.0
 _ZN6Marble12MarbleWidget21mouseClickGeoPositionEddNS_18GeoDataCoordinates4UnitE@Base 4:15.08.0
 _ZN6Marble12MarbleWidget21pluginSettingsChangedEv@Base 4:15.08.0
 _ZN6Marble12MarbleWidget22clearVolatileTileCacheEv@Base 4:15.08.0
 _ZN6Marble12MarbleWidget22setLockToSubSolarPointEb@Base 4:15.08.0
 _ZN6Marble12MarbleWidget23renderPluginInitializedEPNS_12RenderPluginE@Base 4:15.08.0
 _ZN6Marble12MarbleWidget25setVolatileTileCacheLimitEy@Base 4:15.08.0
 _ZN6Marble12MarbleWidget26visibleLatLonAltBoxChangedERKNS_19GeoDataLatLonAltBoxE@Base 4:15.08.0
 _ZN6Marble12MarbleWidget27setMapQualityForViewContextENS_10MapQualityENS_11ViewContextE@Base 4:15.08.0
 _ZN6Marble12MarbleWidget27setSubSolarPointIconVisibleEb@Base 4:15.08.0
 _ZN6Marble12MarbleWidget28highlightedPlacemarksChangedEddNS_18GeoDataCoordinates4UnitE@Base 4:15.08.0
 _ZN6Marble12MarbleWidget5flyToERKNS_13GeoDataLookAtENS_9FlyToModeE@Base 4:15.08.0
 _ZN6Marble12MarbleWidget5modelEv@Base 4:15.08.0
 _ZN6Marble12MarbleWidget6goHomeENS_9FlyToModeE@Base 4:15.08.0
 _ZN6Marble12MarbleWidget6moveUpENS_9FlyToModeE@Base 4:15.08.0
 _ZN6Marble12MarbleWidget6zoomInENS_9FlyToModeE@Base 4:15.08.0
 _ZN6Marble12MarbleWidget7setZoomEiNS_9FlyToModeE@Base 4:15.08.0
 _ZN6Marble12MarbleWidget7zoomOutENS_9FlyToModeE@Base 4:15.08.0
 _ZN6Marble12MarbleWidget8addLayerEPNS_14LayerInterfaceE@Base 4:15.08.0
 _ZN6Marble12MarbleWidget8centerOnERKNS_16GeoDataLatLonBoxEb@Base 4:15.08.0
 _ZN6Marble12MarbleWidget8centerOnERKNS_16GeoDataPlacemarkEb@Base 4:15.08.0
 _ZN6Marble12MarbleWidget8centerOnERKNS_18GeoDataCoordinatesEb@Base 4:15.08.0
 _ZN6Marble12MarbleWidget8centerOnEddb@Base 4:15.08.0
 _ZN6Marble12MarbleWidget8moveDownENS_9FlyToModeE@Base 4:15.08.0
 _ZN6Marble12MarbleWidget8moveLeftENS_9FlyToModeE@Base 4:15.08.0
 _ZN6Marble12MarbleWidget8rotateByEddNS_9FlyToModeE@Base 4:15.08.0
 _ZN6Marble12MarbleWidget8viewportEv@Base 4:15.08.0
 _ZN6Marble12MarbleWidget8zoomViewEiNS_9FlyToModeE@Base 4:15.08.0
 _ZN6Marble12MarbleWidget9moveRightENS_9FlyToModeE@Base 4:15.08.0
 _ZN6Marble12MarbleWidget9popupMenuEv@Base 4:15.08.0
 _ZN6Marble12MarbleWidget9reloadMapEv@Base 4:15.08.0
 _ZN6Marble12MarbleWidget9setRadiusEi@Base 4:15.08.0
 _ZN6Marble12MarbleWidgetC1EP7QWidget@Base 4:15.08.0
 _ZN6Marble12MarbleWidgetC2EP7QWidget@Base 4:15.08.0
 _ZN6Marble12MarbleWidgetD0Ev@Base 4:15.08.0
 _ZN6Marble12MarbleWidgetD1Ev@Base 4:15.08.0
 _ZN6Marble12MarbleWidgetD2Ev@Base 4:15.08.0
 _ZN6Marble12MovieCapture11qt_metacallEN11QMetaObject4CallEiPPv@Base 4:15.08.0
 _ZN6Marble12MovieCapture11qt_metacastEPKc@Base 4:15.08.0
 _ZN6Marble12MovieCapture11recordFrameEv@Base 4:15.08.0
 _ZN6Marble12MovieCapture11setFilenameERK7QString@Base 4:15.08.0
 _ZN6Marble12MovieCapture12errorOccuredEv@Base 4:15.08.0
 _ZN6Marble12MovieCapture13stopRecordingEv@Base 4:15.08.0
 _ZN6Marble12MovieCapture14rateCalculatedEd@Base 4:15.08.0
 _ZN6Marble12MovieCapture14startRecordingEv@Base 4:15.08.0
 _ZN6Marble12MovieCapture15cancelRecordingEv@Base 4:15.08.0
 _ZN6Marble12MovieCapture16availableFormatsEv@Base 4:15.08.0
 _ZN6Marble12MovieCapture16staticMetaObjectE@Base 4:15.08.0
 _ZN6Marble12MovieCapture17setSnapshotMethodENS0_14SnapshotMethodE@Base 4:15.08.0
 _ZN6Marble12MovieCapture19processWrittenMovieEi@Base 4:15.08.0
 _ZN6Marble12MovieCapture22checkToolsAvailabilityEv@Base 4:15.08.0
 _ZN6Marble12MovieCapture6setFpsEi@Base 4:15.08.0
 _ZN6Marble12MovieCaptureC1EPNS_12MarbleWidgetEP7QObject@Base 4:15.08.0
 _ZN6Marble12MovieCaptureC2EPNS_12MarbleWidgetEP7QObject@Base 4:15.08.0
 _ZN6Marble12MovieCaptureD0Ev@Base 4:15.08.0
 _ZN6Marble12MovieCaptureD1Ev@Base 4:15.08.0
 _ZN6Marble12MovieCaptureD2Ev@Base 4:15.08.0
 _ZN6Marble12NewstuffItem10deeperThanERK7QStringS3_@Base 4:15.08.0
 _ZN6Marble12NewstuffItemC1ERKS0_@Base 4:15.08.0
 _ZN6Marble12NewstuffItemC1Ev@Base 4:15.08.0
 _ZN6Marble12NewstuffItemC2ERKS0_@Base 4:15.08.0
 _ZN6Marble12NewstuffItemC2Ev@Base 4:15.08.0
 _ZN6Marble12NewstuffItemD1Ev@Base 4:15.08.0
 _ZN6Marble12NewstuffItemD2Ev@Base 4:15.08.0
 _ZN6Marble12PlaybackItem11qt_metacallEN11QMetaObject4CallEiPPv@Base 4:15.08.0
 _ZN6Marble12PlaybackItem11qt_metacastEPKc@Base 4:15.08.0
 _ZN6Marble12PlaybackItem12balloonShownEPNS_16GeoDataPlacemarkE@Base 4:15.08.0
 _ZN6Marble12PlaybackItem13balloonHiddenEv@Base 4:15.08.0
 _ZN6Marble12PlaybackItem15progressChangedEd@Base 4:15.08.0
 _ZN6Marble12PlaybackItem16staticMetaObjectE@Base 4:15.08.0
 _ZN6Marble12PlaybackItem5addedEPNS_16GeoDataContainerEPNS_14GeoDataFeatureEi@Base 4:15.08.0
 _ZN6Marble12PlaybackItem6pausedEv@Base 4:15.08.0
 _ZN6Marble12PlaybackItem7removedEPKNS_14GeoDataFeatureE@Base 4:15.08.0
 _ZN6Marble12PlaybackItem7updatedEPNS_14GeoDataFeatureE@Base 4:15.08.0
 _ZN6Marble12PlaybackItem8centerOnERKNS_18GeoDataCoordinatesE@Base 4:15.08.0
 _ZN6Marble12PlaybackItem8finishedEv@Base 4:15.08.0
 _ZN6Marble12PlaybackItemD0Ev@Base 4:15.08.0
 _ZN6Marble12PlaybackItemD1Ev@Base 4:15.08.0
 _ZN6Marble12PlaybackItemD2Ev@Base 4:15.08.0
 _ZN6Marble12PluginAuthorD1Ev@Base 4:15.08.0
 _ZN6Marble12PluginAuthorD2Ev@Base 4:15.08.0
 _ZN6Marble12RenderPlugin10setEnabledEb@Base 4:15.08.0
 _ZN6Marble12RenderPlugin10setSettingERK7QStringRK8QVariant@Base 4:15.08.0
 _ZN6Marble12RenderPlugin10setVisibleEb@Base 4:15.08.0
 _ZN6Marble12RenderPlugin11eventFilterEP7QObjectP6QEvent@Base 4:15.08.0
 _ZN6Marble12RenderPlugin11qt_metacallEN11QMetaObject4CallEiPPv@Base 4:15.08.0
 _ZN6Marble12RenderPlugin11qt_metacastEPKc@Base 4:15.08.0
 _ZN6Marble12RenderPlugin11setSettingsERK5QHashI7QString8QVariantE@Base 4:15.08.0
 _ZN6Marble12RenderPlugin13repaintNeededE7QRegion@Base 4:15.08.0
 _ZN6Marble12RenderPlugin14applyItemStateEv@Base 4:15.08.0
 _ZN6Marble12RenderPlugin14enabledChangedEb@Base 4:15.08.0
 _ZN6Marble12RenderPlugin15settingsChangedE7QString@Base 4:15.08.0
 _ZN6Marble12RenderPlugin16setUserCheckableEb@Base 4:15.08.0
 _ZN6Marble12RenderPlugin16staticMetaObjectE@Base 4:15.08.0
 _ZN6Marble12RenderPlugin17retrieveItemStateEv@Base 4:15.08.0
 _ZN6Marble12RenderPlugin17visibilityChangedEbRK7QString@Base 4:15.08.0
 _ZN6Marble12RenderPlugin19actionGroupsChangedEv@Base 4:15.08.0
 _ZN6Marble12RenderPlugin20userCheckableChangedEb@Base 4:15.08.0
 _ZN6Marble12RenderPlugin22restoreDefaultSettingsEv@Base 4:15.08.0
 _ZN6Marble12RenderPlugin4itemEv@Base 4:15.08.0
 _ZN6Marble12RenderPluginC1EPKNS_11MarbleModelE@Base 4:15.08.0
 _ZN6Marble12RenderPluginC2EPKNS_11MarbleModelE@Base 4:15.08.0
 _ZN6Marble12RenderPluginD0Ev@Base 4:15.08.0
 _ZN6Marble12RenderPluginD1Ev@Base 4:15.08.0
 _ZN6Marble12RenderPluginD2Ev@Base 4:15.08.0
 _ZN6Marble12RouteRequest10setVisitedEib@Base 4:15.08.0
 _ZN6Marble12RouteRequest11qt_metacallEN11QMetaObject4CallEiPPv@Base 4:15.08.0
 _ZN6Marble12RouteRequest11qt_metacastEPKc@Base 4:15.08.0
 _ZN6Marble12RouteRequest11setPositionEiRKNS_18GeoDataCoordinatesERK7QString@Base 4:15.08.0
 _ZN6Marble12RouteRequest13positionAddedEi@Base 4:15.08.0
 _ZN6Marble12RouteRequest15positionChangedEiRKNS_18GeoDataCoordinatesE@Base 4:15.08.0
 _ZN6Marble12RouteRequest15positionRemovedEi@Base 4:15.08.0
 _ZN6Marble12RouteRequest16staticMetaObjectE@Base 4:15.08.0
 _ZN6Marble12RouteRequest17setRoutingProfileERKNS_14RoutingProfileE@Base 4:15.08.0
 _ZN6Marble12RouteRequest21routingProfileChangedEv@Base 4:15.08.0
 _ZN6Marble12RouteRequest5clearEv@Base 4:15.08.0
 _ZN6Marble12RouteRequest6addViaERKNS_18GeoDataCoordinatesE@Base 4:15.08.0
 _ZN6Marble12RouteRequest6appendERKNS_16GeoDataPlacemarkE@Base 4:15.08.0
 _ZN6Marble12RouteRequest6appendERKNS_18GeoDataCoordinatesERK7QString@Base 4:15.08.0
 _ZN6Marble12RouteRequest6insertEiRKNS_18GeoDataCoordinatesERK7QString@Base 4:15.08.0
 _ZN6Marble12RouteRequest6removeEi@Base 4:15.08.0
 _ZN6Marble12RouteRequest7reverseEv@Base 4:15.08.0
 _ZN6Marble12RouteRequest7setNameEiRK7QString@Base 4:15.08.0
 _ZN6Marble12RouteRequestC1EP7QObject@Base 4:15.08.0
 _ZN6Marble12RouteRequestC2EP7QObject@Base 4:15.08.0
 _ZN6Marble12RouteRequestD0Ev@Base 4:15.08.0
 _ZN6Marble12RouteRequestD1Ev@Base 4:15.08.0
 _ZN6Marble12RouteRequestD2Ev@Base 4:15.08.0
 _ZN6Marble12RouteRequestixEi@Base 4:15.08.0
 _ZN6Marble12RouteSegment11setManeuverERKNS_8ManeuverE@Base 4:15.08.0
 _ZN6Marble12RouteSegment13setTravelTimeEi@Base 4:15.08.0
 _ZN6Marble12RouteSegment19distancePointToLineERKNS_18GeoDataCoordinatesES3_S3_@Base 4:15.08.0
 _ZN6Marble12RouteSegment19setNextRouteSegmentEPKS0_@Base 4:15.08.0
 _ZN6Marble12RouteSegment7setPathERKNS_17GeoDataLineStringE@Base 4:15.08.0
 _ZN6Marble12RouteSegment9projectedERKNS_18GeoDataCoordinatesES3_S3_@Base 4:15.08.0
 _ZN6Marble12RouteSegmentC1Ev@Base 4:15.08.0
 _ZN6Marble12RouteSegmentC2Ev@Base 4:15.08.0
 _ZN6Marble12RouteSegmentD1Ev@Base 4:15.08.0
 _ZN6Marble12RouteSegmentD2Ev@Base 4:15.08.0
 _ZN6Marble12RoutingLayer11eventFilterEP7QObjectP6QEvent@Base 4:15.08.0
 _ZN6Marble12RoutingLayer11exportRouteEv@Base 4:15.08.0
 _ZN6Marble12RoutingLayer11qt_metacallEN11QMetaObject4CallEiPPv@Base 4:15.08.0
 _ZN6Marble12RoutingLayer11qt_metacastEPKc@Base 4:15.08.0
 _ZN6Marble12RoutingLayer13repaintNeededERK5QRect@Base 4:15.08.0
 _ZN6Marble12RoutingLayer14removeViaPointEv@Base 4:15.08.0
 _ZN6Marble12RoutingLayer14setInteractiveEb@Base 4:15.08.0
 _ZN6Marble12RoutingLayer14setViewContextENS_11ViewContextE@Base 4:15.08.0
 _ZN6Marble12RoutingLayer15synchronizeWithEP19QItemSelectionModel@Base 4:15.08.0
 _ZN6Marble12RoutingLayer16staticMetaObjectE@Base 4:15.08.0
 _ZN6Marble12RoutingLayer16updateRouteStateEv@Base 4:15.08.0
 _ZN6Marble12RoutingLayer17placemarkSelectedERK11QModelIndex@Base 4:15.08.0
 _ZN6Marble12RoutingLayer17setPlacemarkModelEPNS_20MarblePlacemarkModelE@Base 4:15.08.0
 _ZN6Marble12RoutingLayer18setViewportChangedEv@Base 4:15.08.0
 _ZN6Marble12RoutingLayer21showAlternativeRoutesEv@Base 4:15.08.0
 _ZN6Marble12RoutingLayer6renderEPNS_10GeoPainterEPNS_14ViewportParamsERK7QStringPNS_13GeoSceneLayerE@Base 4:15.08.0
 _ZN6Marble12RoutingLayerC1EPNS_12MarbleWidgetEP7QWidget@Base 4:15.08.0
 _ZN6Marble12RoutingLayerC2EPNS_12MarbleWidgetEP7QWidget@Base 4:15.08.0
 _ZN6Marble12RoutingLayerD0Ev@Base 4:15.08.0
 _ZN6Marble12RoutingLayerD1Ev@Base 4:15.08.0
 _ZN6Marble12RoutingLayerD2Ev@Base 4:15.08.0
 _ZN6Marble12RoutingModel11qt_metacallEN11QMetaObject4CallEiPPv@Base 4:15.08.0
 _ZN6Marble12RoutingModel11qt_metacastEPKc@Base 4:15.08.0
 _ZN6Marble12RoutingModel14updatePositionENS_18GeoDataCoordinatesEd@Base 4:15.08.0
 _ZN6Marble12RoutingModel15positionChangedEv@Base 4:15.08.0
 _ZN6Marble12RoutingModel16staticMetaObjectE@Base 4:15.08.0
 _ZN6Marble12RoutingModel17deviatedFromRouteEb@Base 4:15.08.0
 _ZN6Marble12RoutingModel19currentRouteChangedEv@Base 4:15.08.0
 _ZN6Marble12RoutingModel5clearEv@Base 4:15.08.0
 _ZN6Marble12RoutingModel8setRouteERKNS_5RouteE@Base 4:15.08.0
 _ZN6Marble12RoutingModelC1EPNS_12RouteRequestEPNS_11MarbleModelEP7QObject@Base 4:15.08.0
 _ZN6Marble12RoutingModelC2EPNS_12RouteRequestEPNS_11MarbleModelEP7QObject@Base 4:15.08.0
 _ZN6Marble12RoutingModelD0Ev@Base 4:15.08.0
 _ZN6Marble12RoutingModelD1Ev@Base 4:15.08.0
 _ZN6Marble12RoutingModelD2Ev@Base 4:15.08.0
 _ZN6Marble12RoutingPointC1Edd@Base 4:15.08.0
 _ZN6Marble12RoutingPointC2Edd@Base 4:15.08.0
 _ZN6Marble12SearchRunner11qt_metacallEN11QMetaObject4CallEiPPv@Base 4:15.08.0
 _ZN6Marble12SearchRunner11qt_metacastEPKc@Base 4:15.08.0
 _ZN6Marble12SearchRunner14searchFinishedE7QVectorIPNS_16GeoDataPlacemarkEE@Base 4:15.08.0
 _ZN6Marble12SearchRunner16staticMetaObjectE@Base 4:15.08.0
 _ZN6Marble12SearchRunner8setModelEPKNS_11MarbleModelE@Base 4:15.08.0
 _ZN6Marble12SearchRunnerC1EP7QObject@Base 4:15.08.0
 _ZN6Marble12SearchRunnerC2EP7QObject@Base 4:15.08.0
 _ZN6Marble12SearchWidget11qt_metacallEN11QMetaObject4CallEiPPv@Base 4:15.08.0
 _ZN6Marble12SearchWidget11qt_metacastEPKc@Base 4:15.08.0
 _ZN6Marble12SearchWidget15setMarbleWidgetEPNS_12MarbleWidgetE@Base 4:15.08.0
 _ZN6Marble12SearchWidget16staticMetaObjectE@Base 4:15.08.0
 _ZN6Marble12SearchWidgetC1EP7QWidget6QFlagsIN2Qt10WindowTypeEE@Base 4:15.08.0
 _ZN6Marble12SearchWidgetC2EP7QWidget6QFlagsIN2Qt10WindowTypeEE@Base 4:15.08.0
 _ZN6Marble12SearchWidgetD0Ev@Base 4:15.08.0
 _ZN6Marble12SearchWidgetD1Ev@Base 4:15.08.0
 _ZN6Marble12SearchWidgetD2Ev@Base 4:15.08.0
 _ZN6Marble12ServerLayoutC1EPNS_13GeoSceneTiledE@Base 4:15.08.0
 _ZN6Marble12ServerLayoutC2EPNS_13GeoSceneTiledE@Base 4:15.08.0
 _ZN6Marble12ServerLayoutD0Ev@Base 4:15.08.0
 _ZN6Marble12ServerLayoutD1Ev@Base 4:15.08.0
 _ZN6Marble12ServerLayoutD2Ev@Base 4:15.08.0
 _ZN6Marble12TextureLayer11qt_metacallEN11QMetaObject4CallEiPPv@Base 4:15.08.0
 _ZN6Marble12TextureLayer11qt_metacastEPKc@Base 4:15.08.0
 _ZN6Marble12TextureLayer11setMapThemeERK7QVectorIPKNS_19GeoSceneTextureTileEEPKNS_13GeoSceneGroupERK7QStringSD_@Base 4:15.08.0
 _ZN6Marble12TextureLayer13repaintNeededEv@Base 4:15.08.0
 _ZN6Marble12TextureLayer13setProjectionENS_10ProjectionE@Base 4:15.08.0
 _ZN6Marble12TextureLayer13setShowReliefEb@Base 4:15.08.0
 _ZN6Marble12TextureLayer13setShowTileIdEb@Base 4:15.08.0
 _ZN6Marble12TextureLayer14addSeaDocumentEPKNS_15GeoDataDocumentE@Base 4:15.08.0
 _ZN6Marble12TextureLayer14setNeedsUpdateEv@Base 4:15.08.0
 _ZN6Marble12TextureLayer15addLandDocumentEPKNS_15GeoDataDocumentE@Base 4:15.08.0
 _ZN6Marble12TextureLayer15addTextureLayerEPNS_19GeoSceneTextureTileE@Base 4:15.08.0
 _ZN6Marble12TextureLayer16staticMetaObjectE@Base 4:15.08.0
 _ZN6Marble12TextureLayer16tileLevelChangedEi@Base 4:15.08.0
 _ZN6Marble12TextureLayer17setShowCityLightsEb@Base 4:15.08.0
 _ZN6Marble12TextureLayer17setShowSunShadingEb@Base 4:15.08.0
 _ZN6Marble12TextureLayer18removeTextureLayerERK7QString@Base 4:15.08.0
 _ZN6Marble12TextureLayer19downloadStackedTileERKNS_6TileIdE@Base 4:15.08.0
 _ZN6Marble12TextureLayer21setVolatileCacheLimitEy@Base 4:15.08.0
 _ZN6Marble12TextureLayer5resetEv@Base 4:15.08.0
 _ZN6Marble12TextureLayer6reloadEv@Base 4:15.08.0
 _ZN6Marble12TextureLayer6renderEPNS_10GeoPainterEPNS_14ViewportParamsERK7QStringPNS_13GeoSceneLayerE@Base 4:15.08.0
 _ZN6Marble12TextureLayer7Private10updateTileERKNS_6TileIdERK6QImage@Base 4:15.08.0
 _ZN6Marble12TextureLayer7Private17addCustomTexturesEv@Base 4:15.08.0
 _ZN6Marble12TextureLayer7Private17addGroundOverlaysE11QModelIndexii@Base 4:15.08.0
 _ZN6Marble12TextureLayer7Private17drawOrderLessThanEPKNS_20GeoDataGroundOverlayES4_@Base 4:15.08.0
 _ZN6Marble12TextureLayer7Private19updateTextureLayersEv@Base 4:15.08.0
 _ZN6Marble12TextureLayer7Private20removeGroundOverlaysE11QModelIndexii@Base 4:15.08.0
 _ZN6Marble12TextureLayer7Private20updateGroundOverlaysEv@Base 4:15.08.0
 _ZN6Marble12TextureLayer7Private21requestDelayedRepaintEv@Base 4:15.08.0
 _ZN6Marble12TextureLayer7Private24resetGroundOverlaysCacheEv@Base 4:15.08.0
 _ZN6Marble12TextureLayer7PrivateC1EPNS_19HttpDownloadManagerEPKNS_10SunLocatorEP18QAbstractItemModelPS0_@Base 4:15.08.0
 _ZN6Marble12TextureLayer7PrivateC2EPNS_19HttpDownloadManagerEPKNS_10SunLocatorEP18QAbstractItemModelPS0_@Base 4:15.08.0
 _ZN6Marble12TextureLayerC1EPNS_19HttpDownloadManagerEPKNS_10SunLocatorEP18QAbstractItemModel@Base 4:15.08.0
 _ZN6Marble12TextureLayerC2EPNS_19HttpDownloadManagerEPKNS_10SunLocatorEP18QAbstractItemModel@Base 4:15.08.0
 _ZN6Marble12TextureLayerD0Ev@Base 4:15.08.0
 _ZN6Marble12TextureLayerD1Ev@Base 4:15.08.0
 _ZN6Marble12TextureLayerD2Ev@Base 4:15.08.0
 _ZN6Marble12TourPlayback10setBaseUrlERK4QUrl@Base 4:15.08.0
 _ZN6Marble12TourPlayback11clearTracksEv@Base 4:15.08.0
 _ZN6Marble12TourPlayback11hideBalloonEv@Base 4:15.08.0
 _ZN6Marble12TourPlayback11qt_metacallEN11QMetaObject4CallEiPPv@Base 4:15.08.0
 _ZN6Marble12TourPlayback11qt_metacastEPKc@Base 4:15.08.0
 _ZN6Marble12TourPlayback11showBalloonEPNS_16GeoDataPlacemarkE@Base 4:15.08.0
 _ZN6Marble12TourPlayback12itemFinishedEi@Base 4:15.08.0
 _ZN6Marble12TourPlayback12updateTracksEv@Base 4:15.08.0
 _ZN6Marble12TourPlayback13mainTrackSizeEv@Base 4:15.08.0
 _ZN6Marble12TourPlayback15mainTrackItemAtEi@Base 4:15.08.0
 _ZN6Marble12TourPlayback15progressChangedEd@Base 4:15.08.0
 _ZN6Marble12TourPlayback15setMarbleWidgetEPNS_12MarbleWidgetE@Base 4:15.08.0
 _ZN6Marble12TourPlayback16staticMetaObjectE@Base 4:15.08.0
 _ZN6Marble12TourPlayback18handleFinishedItemEi@Base 4:15.08.0
 _ZN6Marble12TourPlayback4playEv@Base 4:15.08.0
 _ZN6Marble12TourPlayback4seekEd@Base 4:15.08.0
 _ZN6Marble12TourPlayback4stopEv@Base 4:15.08.0
 _ZN6Marble12TourPlayback5addedEPNS_16GeoDataContainerEPNS_14GeoDataFeatureEi@Base 4:15.08.0
 _ZN6Marble12TourPlayback5pauseEv@Base 4:15.08.0
 _ZN6Marble12TourPlayback6pausedEv@Base 4:15.08.0
 _ZN6Marble12TourPlayback7removedEPKNS_14GeoDataFeatureE@Base 4:15.08.0
 _ZN6Marble12TourPlayback7setTourEPNS_11GeoDataTourE@Base 4:15.08.0
 _ZN6Marble12TourPlayback7stoppedEv@Base 4:15.08.0
 _ZN6Marble12TourPlayback7updatedEPNS_14GeoDataFeatureE@Base 4:15.08.0
 _ZN6Marble12TourPlayback8centerOnERKNS_18GeoDataCoordinatesE@Base 4:15.08.0
 _ZN6Marble12TourPlayback8finishedEv@Base 4:15.08.0
 _ZN6Marble12TourPlayback8stopTourEv@Base 4:15.08.0
 _ZN6Marble12TourPlaybackC1EP7QObject@Base 4:15.08.0
 _ZN6Marble12TourPlaybackC2EP7QObject@Base 4:15.08.0
 _ZN6Marble12TourPlaybackD0Ev@Base 4:15.08.0
 _ZN6Marble12TourPlaybackD1Ev@Base 4:15.08.0
 _ZN6Marble12TourPlaybackD2Ev@Base 4:15.08.0
 _ZN6Marble12WaypointInfoD1Ev@Base 4:15.08.0
 _ZN6Marble12WaypointInfoD2Ev@Base 4:15.08.0
 (optional=templinst)_ZN6Marble12appendPluginINS_12RenderPluginENS_21RenderPluginInterfaceEEEbP7QObjectRP13QPluginLoaderR5QListIPKT_E@Base 4:15.08.0
 (optional=templinst)_ZN6Marble12appendPluginINS_17ParseRunnerPluginES1_EEbP7QObjectRP13QPluginLoaderR5QListIPKT_E@Base 4:15.08.0
 (optional=templinst)_ZN6Marble12appendPluginINS_18SearchRunnerPluginES1_EEbP7QObjectRP13QPluginLoaderR5QListIPKT_E@Base 4:15.08.0
 (optional=templinst)_ZN6Marble12appendPluginINS_19RoutingRunnerPluginES1_EEbP7QObjectRP13QPluginLoaderR5QListIPT_E@Base 4:15.08.0
 (optional=templinst)_ZN6Marble12appendPluginINS_22PositionProviderPluginENS_31PositionProviderPluginInterfaceEEEbP7QObjectRP13QPluginLoaderR5QListIPKT_E@Base 4:15.08.0
 (optional=templinst)_ZN6Marble12appendPluginINS_28ReverseGeocodingRunnerPluginES1_EEbP7QObjectRP13QPluginLoaderR5QListIPKT_E@Base 4:15.08.0
 _ZN6Marble12dataTabIndexE@Base 4:15.08.0
 _ZN6Marble12templateNameENS_20RoutingProfilesModel15ProfileTemplateE@Base 4:15.08.0
 _ZN6Marble13AddLinkDialog11checkFieldsEv@Base 4:15.08.0
 _ZN6Marble13AddLinkDialog11qt_metacallEN11QMetaObject4CallEiPPv@Base 4:15.08.0
 _ZN6Marble13AddLinkDialog11qt_metacastEPKc@Base 4:15.08.0
 _ZN6Marble13AddLinkDialog16staticMetaObjectE@Base 4:15.08.0
 _ZN6Marble13AddLinkDialog7PrivateC1Ev@Base 4:15.08.0
 _ZN6Marble13AddLinkDialog7PrivateC2Ev@Base 4:15.08.0
 _ZN6Marble13AddLinkDialog7PrivateD1Ev@Base 4:15.08.0
 _ZN6Marble13AddLinkDialog7PrivateD2Ev@Base 4:15.08.0
 _ZN6Marble13AddLinkDialogC1EP7QWidget@Base 4:15.08.0
 _ZN6Marble13AddLinkDialogC2EP7QWidget@Base 4:15.08.0
 _ZN6Marble13AddLinkDialogD0Ev@Base 4:15.08.0
 _ZN6Marble13AddLinkDialogD1Ev@Base 4:15.08.0
 _ZN6Marble13AddLinkDialogD2Ev@Base 4:15.08.0
 _ZN6Marble13DataMigration11qt_metacallEN11QMetaObject4CallEiPPv@Base 4:15.08.0
 _ZN6Marble13DataMigration11qt_metacastEPKc@Base 4:15.08.0
 _ZN6Marble13DataMigration16staticMetaObjectE@Base 4:15.08.0
 _ZN6Marble13DataMigration4execEv@Base 4:15.08.0
 _ZN6Marble13DataMigration9moveFilesERK7QStringS3_@Base 4:15.08.0
 _ZN6Marble13DataMigrationC1EP7QObject@Base 4:15.08.0
 _ZN6Marble13DataMigrationC2EP7QObject@Base 4:15.08.0
 _ZN6Marble13DataMigrationD0Ev@Base 4:15.08.0
 _ZN6Marble13DataMigrationD1Ev@Base 4:15.08.0
 _ZN6Marble13DataMigrationD2Ev@Base 4:15.08.0
 _ZN6Marble13DgmlTagWriterD0Ev@Base 4:15.08.0
 _ZN6Marble13DgmlTagWriterD1Ev@Base 4:15.08.0
 _ZN6Marble13DgmlTagWriterD2Ev@Base 4:15.08.0
 _ZN6Marble13GeoDataCamera10setHeadingEd@Base 4:15.08.0
 _ZN6Marble13GeoDataCamera11setAltitudeEd@Base 4:15.08.0
 _ZN6Marble13GeoDataCamera11setLatitudeEdNS_18GeoDataCoordinates4UnitE@Base 4:15.08.0
 _ZN6Marble13GeoDataCamera12setLongitudeEdNS_18GeoDataCoordinates4UnitE@Base 4:15.08.0
 _ZN6Marble13GeoDataCamera14setCoordinatesERKNS_18GeoDataCoordinatesE@Base 4:15.08.0
 _ZN6Marble13GeoDataCamera6detachEv@Base 4:15.08.0
 _ZN6Marble13GeoDataCamera7setRollEd@Base 4:15.08.0
 _ZN6Marble13GeoDataCamera7setTiltEd@Base 4:15.08.0
 _ZN6Marble13GeoDataCameraC1ERKS0_@Base 4:15.08.0
 _ZN6Marble13GeoDataCameraC1Ev@Base 4:15.08.0
 _ZN6Marble13GeoDataCameraC2ERKS0_@Base 4:15.08.0
 _ZN6Marble13GeoDataCameraC2Ev@Base 4:15.08.0
 _ZN6Marble13GeoDataCameraD0Ev@Base 4:15.08.0
 _ZN6Marble13GeoDataCameraD1Ev@Base 4:15.08.0
 _ZN6Marble13GeoDataCameraD2Ev@Base 4:15.08.0
 _ZN6Marble13GeoDataCameraaSERKS0_@Base 4:15.08.0
 _ZN6Marble13GeoDataChangeC1ERKS0_@Base 4:15.08.0
 _ZN6Marble13GeoDataChangeC1Ev@Base 4:15.08.0
 _ZN6Marble13GeoDataChangeC2ERKS0_@Base 4:15.08.0
 _ZN6Marble13GeoDataChangeC2Ev@Base 4:15.08.0
 _ZN6Marble13GeoDataChangeD0Ev@Base 4:15.08.0
 _ZN6Marble13GeoDataChangeD1Ev@Base 4:15.08.0
 _ZN6Marble13GeoDataChangeD2Ev@Base 4:15.08.0
 _ZN6Marble13GeoDataChangeaSERKS0_@Base 4:15.08.0
 _ZN6Marble13GeoDataCreateC1ERKS0_@Base 4:15.08.0
 _ZN6Marble13GeoDataCreateC1Ev@Base 4:15.08.0
 _ZN6Marble13GeoDataCreateC2ERKS0_@Base 4:15.08.0
 _ZN6Marble13GeoDataCreateC2Ev@Base 4:15.08.0
 _ZN6Marble13GeoDataCreateD0Ev@Base 4:15.08.0
 _ZN6Marble13GeoDataCreateD1Ev@Base 4:15.08.0
 _ZN6Marble13GeoDataCreateD2Ev@Base 4:15.08.0
 _ZN6Marble13GeoDataCreateaSERKS0_@Base 4:15.08.0
 _ZN6Marble13GeoDataDeleteC1ERKS0_@Base 4:15.08.0
 _ZN6Marble13GeoDataDeleteC1Ev@Base 4:15.08.0
 _ZN6Marble13GeoDataDeleteC2ERKS0_@Base 4:15.08.0
 _ZN6Marble13GeoDataDeleteC2Ev@Base 4:15.08.0
 _ZN6Marble13GeoDataDeleteD0Ev@Base 4:15.08.0
 _ZN6Marble13GeoDataDeleteD1Ev@Base 4:15.08.0
 _ZN6Marble13GeoDataDeleteD2Ev@Base 4:15.08.0
 _ZN6Marble13GeoDataDeleteaSERKS0_@Base 4:15.08.0
 _ZN6Marble13GeoDataFolderC1ERKS0_@Base 4:15.08.0
 _ZN6Marble13GeoDataFolderC1Ev@Base 4:15.08.0
 _ZN6Marble13GeoDataFolderC2ERKS0_@Base 4:15.08.0
 _ZN6Marble13GeoDataFolderC2Ev@Base 4:15.08.0
 _ZN6Marble13GeoDataFolderD0Ev@Base 4:15.08.0
 _ZN6Marble13GeoDataFolderD1Ev@Base 4:15.08.0
 _ZN6Marble13GeoDataFolderD2Ev@Base 4:15.08.0
 _ZN6Marble13GeoDataLookAt11setAltitudeEd@Base 4:15.08.0
 _ZN6Marble13GeoDataLookAt11setLatitudeEdNS_18GeoDataCoordinates4UnitE@Base 4:15.08.0
 _ZN6Marble13GeoDataLookAt12setLongitudeEdNS_18GeoDataCoordinates4UnitE@Base 4:15.08.0
 _ZN6Marble13GeoDataLookAt14setCoordinatesERKNS_18GeoDataCoordinatesE@Base 4:15.08.0
 _ZN6Marble13GeoDataLookAt6detachEv@Base 4:15.08.0
 _ZN6Marble13GeoDataLookAt8setRangeEd@Base 4:15.08.0
 _ZN6Marble13GeoDataLookAtC1ERKS0_@Base 4:15.08.0
 _ZN6Marble13GeoDataLookAtC1Ev@Base 4:15.08.0
 _ZN6Marble13GeoDataLookAtC2ERKS0_@Base 4:15.08.0
 _ZN6Marble13GeoDataLookAtC2Ev@Base 4:15.08.0
 _ZN6Marble13GeoDataLookAtD0Ev@Base 4:15.08.0
 _ZN6Marble13GeoDataLookAtD1Ev@Base 4:15.08.0
 _ZN6Marble13GeoDataLookAtD2Ev@Base 4:15.08.0
 _ZN6Marble13GeoDataLookAtaSERKS0_@Base 4:15.08.0
 _ZN6Marble13GeoDataObject11setTargetIdERK7QString@Base 4:15.08.0
 _ZN6Marble13GeoDataObject5setIdERK7QString@Base 4:15.08.0
 _ZN6Marble13GeoDataObject6unpackER11QDataStream@Base 4:15.08.0
 _ZN6Marble13GeoDataObject9setParentEPS0_@Base 4:15.08.0
 _ZN6Marble13GeoDataObjectC1ERKS0_@Base 4:15.08.0
 _ZN6Marble13GeoDataObjectC1Ev@Base 4:15.08.0
 _ZN6Marble13GeoDataObjectC2ERKS0_@Base 4:15.08.0
 _ZN6Marble13GeoDataObjectC2Ev@Base 4:15.08.0
 _ZN6Marble13GeoDataObjectD0Ev@Base 4:15.08.0
 _ZN6Marble13GeoDataObjectD1Ev@Base 4:15.08.0
 _ZN6Marble13GeoDataObjectD2Ev@Base 4:15.08.0
 _ZN6Marble13GeoDataObjectaSERKS0_@Base 4:15.08.0
 _ZN6Marble13GeoDataParser18isValidRootElementEv@Base 4:15.08.0
 _ZN6Marble13GeoDataParserC1ENS_17GeoDataSourceTypeE@Base 4:15.08.0
 _ZN6Marble13GeoDataParserC2ENS_17GeoDataSourceTypeE@Base 4:15.08.0
 _ZN6Marble13GeoDataParserD0Ev@Base 4:15.08.0
 _ZN6Marble13GeoDataParserD1Ev@Base 4:15.08.0
 _ZN6Marble13GeoDataParserD2Ev@Base 4:15.08.0
 _ZN6Marble13GeoDataRegion15setLatLonAltBoxERKNS_19GeoDataLatLonAltBoxE@Base 4:15.08.0
 _ZN6Marble13GeoDataRegion4swapERS0_@Base 4:15.08.0
 _ZN6Marble13GeoDataRegion6setLodERKNS_10GeoDataLodE@Base 4:15.08.0
 _ZN6Marble13GeoDataRegion6unpackER11QDataStream@Base 4:15.08.0
 _ZN6Marble13GeoDataRegionC1EPNS_14GeoDataFeatureE@Base 4:15.08.0
 _ZN6Marble13GeoDataRegionC1ERKS0_@Base 4:15.08.0
 _ZN6Marble13GeoDataRegionC1Ev@Base 4:15.08.0
 _ZN6Marble13GeoDataRegionC2EPNS_14GeoDataFeatureE@Base 4:15.08.0
 _ZN6Marble13GeoDataRegionC2ERKS0_@Base 4:15.08.0
 _ZN6Marble13GeoDataRegionC2Ev@Base 4:15.08.0
 _ZN6Marble13GeoDataRegionD0Ev@Base 4:15.08.0
 _ZN6Marble13GeoDataRegionD1Ev@Base 4:15.08.0
 _ZN6Marble13GeoDataRegionD2Ev@Base 4:15.08.0
 _ZN6Marble13GeoDataRegionaSERKS0_@Base 4:15.08.0
 _ZN6Marble13GeoDataSchema13setSchemaNameERK7QString@Base 4:15.08.0
 _ZN6Marble13GeoDataSchema14addSimpleFieldERKNS_18GeoDataSimpleFieldE@Base 4:15.08.0
 _ZN6Marble13GeoDataSchema6unpackER11QDataStream@Base 4:15.08.0
 _ZN6Marble13GeoDataSchemaC1ERK5QHashI7QStringNS_18GeoDataSimpleFieldEE@Base 4:15.08.0
 _ZN6Marble13GeoDataSchemaC1ERKS0_@Base 4:15.08.0
 _ZN6Marble13GeoDataSchemaC1Ev@Base 4:15.08.0
 _ZN6Marble13GeoDataSchemaC2ERK5QHashI7QStringNS_18GeoDataSimpleFieldEE@Base 4:15.08.0
 _ZN6Marble13GeoDataSchemaC2ERKS0_@Base 4:15.08.0
 _ZN6Marble13GeoDataSchemaC2Ev@Base 4:15.08.0
 _ZN6Marble13GeoDataSchemaD0Ev@Base 4:15.08.0
 _ZN6Marble13GeoDataSchemaD1Ev@Base 4:15.08.0
 _ZN6Marble13GeoDataSchemaD2Ev@Base 4:15.08.0
 _ZN6Marble13GeoDataSchemaaSERKS0_@Base 4:15.08.0
 _ZN6Marble13GeoDataUpdate13setTargetHrefERK7QString@Base 4:15.08.0
 _ZN6Marble13GeoDataUpdate9setChangeEPNS_13GeoDataChangeE@Base 4:15.08.0
 _ZN6Marble13GeoDataUpdate9setCreateEPNS_13GeoDataCreateE@Base 4:15.08.0
 _ZN6Marble13GeoDataUpdate9setDeleteEPNS_13GeoDataDeleteE@Base 4:15.08.0
 _ZN6Marble13GeoDataUpdateC1ERKS0_@Base 4:15.08.0
 _ZN6Marble13GeoDataUpdateC1Ev@Base 4:15.08.0
 _ZN6Marble13GeoDataUpdateC2ERKS0_@Base 4:15.08.0
 _ZN6Marble13GeoDataUpdateC2Ev@Base 4:15.08.0
 _ZN6Marble13GeoDataUpdateD0Ev@Base 4:15.08.0
 _ZN6Marble13GeoDataUpdateD1Ev@Base 4:15.08.0
 _ZN6Marble13GeoDataUpdateD2Ev@Base 4:15.08.0
 _ZN6Marble13GeoDataUpdateaSERKS0_@Base 4:15.08.0
 _ZN6Marble13GeoSceneGroup10propertiesEv@Base 4:15.08.0
 _ZN6Marble13GeoSceneGroup11addPropertyEPNS_16GeoScenePropertyE@Base 4:15.08.0
 _ZN6Marble13GeoSceneGroup11qt_metacallEN11QMetaObject4CallEiPPv@Base 4:15.08.0
 _ZN6Marble13GeoSceneGroup11qt_metacastEPKc@Base 4:15.08.0
 _ZN6Marble13GeoSceneGroup12valueChangedE7QStringb@Base 4:15.08.0
 _ZN6Marble13GeoSceneGroup16setPropertyValueERK7QStringb@Base 4:15.08.0
 _ZN6Marble13GeoSceneGroup16staticMetaObjectE@Base 4:15.08.0
 _ZN6Marble13GeoSceneGroup8propertyERK7QString@Base 4:15.08.0
 _ZN6Marble13GeoSceneGroupC1ERK7QString@Base 4:15.08.0
 _ZN6Marble13GeoSceneGroupC2ERK7QString@Base 4:15.08.0
 _ZN6Marble13GeoSceneGroupD0Ev@Base 4:15.08.0
 _ZN6Marble13GeoSceneGroupD1Ev@Base 4:15.08.0
 _ZN6Marble13GeoSceneGroupD2Ev@Base 4:15.08.0
 _ZN6Marble13GeoSceneLayer10addDatasetEPNS_23GeoSceneAbstractDatasetE@Base 4:15.08.0
 _ZN6Marble13GeoSceneLayer10setBackendERK7QString@Base 4:15.08.0
 _ZN6Marble13GeoSceneLayer12removeFilterEPNS_14GeoSceneFilterE@Base 4:15.08.0
 _ZN6Marble13GeoSceneLayer13groundDatasetEv@Base 4:15.08.0
 _ZN6Marble13GeoSceneLayer6filterEv@Base 4:15.08.0
 _ZN6Marble13GeoSceneLayer7datasetERK7QString@Base 4:15.08.0
 _ZN6Marble13GeoSceneLayer7setRoleERK7QString@Base 4:15.08.0
 _ZN6Marble13GeoSceneLayer8setTiledEb@Base 4:15.08.0
 _ZN6Marble13GeoSceneLayer9addFilterEPNS_14GeoSceneFilterE@Base 4:15.08.0
 _ZN6Marble13GeoSceneLayerC1ERK7QString@Base 4:15.08.0
 _ZN6Marble13GeoSceneLayerC2ERK7QString@Base 4:15.08.0
 _ZN6Marble13GeoSceneLayerD0Ev@Base 4:15.08.0
 _ZN6Marble13GeoSceneLayerD1Ev@Base 4:15.08.0
 _ZN6Marble13GeoSceneLayerD2Ev@Base 4:15.08.0
 _ZN6Marble13GeoSceneTiled11setTileSizeERK5QSize@Base 4:15.08.0
 _ZN6Marble13GeoSceneTiled12setSourceDirERK7QString@Base 4:15.08.0
 _ZN6Marble13GeoSceneTiled13setInstallMapERK7QString@Base 4:15.08.0
 _ZN6Marble13GeoSceneTiled13setProjectionENS0_10ProjectionE@Base 4:15.08.0
 _ZN6Marble13GeoSceneTiled14addDownloadUrlERK4QUrl@Base 4:15.08.0
 _ZN6Marble13GeoSceneTiled15setServerLayoutEPKNS_12ServerLayoutE@Base 4:15.08.0
 _ZN6Marble13GeoSceneTiled16setLevelZeroRowsEi@Base 4:15.08.0
 _ZN6Marble13GeoSceneTiled16setStorageLayoutENS0_13StorageLayoutE@Base 4:15.08.0
 _ZN6Marble13GeoSceneTiled17addDownloadPolicyENS_13DownloadUsageEi@Base 4:15.08.0
 _ZN6Marble13GeoSceneTiled19setLevelZeroColumnsEi@Base 4:15.08.0
 _ZN6Marble13GeoSceneTiled19setMaximumTileLevelEi@Base 4:15.08.0
 _ZN6Marble13GeoSceneTiledC1ERK7QString@Base 4:15.08.0
 _ZN6Marble13GeoSceneTiledC2ERK7QString@Base 4:15.08.0
 _ZN6Marble13GeoSceneTiledD0Ev@Base 4:15.08.0
 _ZN6Marble13GeoSceneTiledD1Ev@Base 4:15.08.0
 _ZN6Marble13GeoSceneTiledD2Ev@Base 4:15.08.0
 _ZN6Marble13GeoSceneTypes15GeoSceneMapTypeE@Base 4:15.08.0
 _ZN6Marble13GeoSceneTypes16GeoSceneHeadTypeE@Base 4:15.08.0
 _ZN6Marble13GeoSceneTypes16GeoSceneIconTypeE@Base 4:15.08.0
 _ZN6Marble13GeoSceneTypes16GeoSceneItemTypeE@Base 4:15.08.0
 _ZN6Marble13GeoSceneTypes16GeoSceneZoomTypeE@Base 4:15.08.0
 _ZN6Marble13GeoSceneTypes17GeoSceneGroupTypeE@Base 4:15.08.0
 _ZN6Marble13GeoSceneTypes17GeoSceneLayerTypeE@Base 4:15.08.0
 _ZN6Marble13GeoSceneTypes17GeoSceneTiledTypeE@Base 4:15.08.0
 _ZN6Marble13GeoSceneTypes18GeoSceneFilterTypeE@Base 4:15.08.0
 _ZN6Marble13GeoSceneTypes18GeoSceneLegendTypeE@Base 4:15.08.0
 _ZN6Marble13GeoSceneTypes18GeoSceneVectorTypeE@Base 4:15.08.0
 _ZN6Marble13GeoSceneTypes19GeoSceneGeodataTypeE@Base 4:15.08.0
 _ZN6Marble13GeoSceneTypes19GeoScenePaletteTypeE@Base 4:15.08.0
 _ZN6Marble13GeoSceneTypes19GeoSceneSectionTypeE@Base 4:15.08.0
 _ZN6Marble13GeoSceneTypes20GeoSceneDocumentTypeE@Base 4:15.08.0
 _ZN6Marble13GeoSceneTypes20GeoScenePropertyTypeE@Base 4:15.08.0
 _ZN6Marble13GeoSceneTypes20GeoSceneSettingsTypeE@Base 4:15.08.0
 _ZN6Marble13GeoSceneTypes22GeoSceneVectorTileTypeE@Base 4:15.08.0
 _ZN6Marble13GeoSceneTypes23GeoSceneTextureTileTypeE@Base 4:15.08.0
 _ZN6Marble13GeoSceneTypes25GeoSceneXmlDataSourceTypeE@Base 4:15.08.0
 _ZN6Marble13GeoTagHandler10recognizesERK5QPairI7QStringS2_E@Base 4:15.08.0
 _ZN6Marble13GeoTagHandler14tagHandlerHashEv@Base 4:15.08.0
 _ZN6Marble13GeoTagHandler15registerHandlerERK5QPairI7QStringS2_EPKS0_@Base 4:15.08.0
 _ZN6Marble13GeoTagHandler16s_tagHandlerHashE@Base 4:15.08.0
 _ZN6Marble13GeoTagHandler17unregisterHandlerERK5QPairI7QStringS2_E@Base 4:15.08.0
 _ZN6Marble13GeoTagHandlerC1Ev@Base 4:15.08.0
 _ZN6Marble13GeoTagHandlerC2Ev@Base 4:15.08.0
 _ZN6Marble13GeoTagHandlerD0Ev@Base 4:15.08.0
 _ZN6Marble13GeoTagHandlerD1Ev@Base 4:15.08.0
 _ZN6Marble13GeoTagHandlerD2Ev@Base 4:15.08.0
 _ZN6Marble13GeometryLayer11qt_metacallEN11QMetaObject4CallEiPPv@Base 4:15.08.0
 _ZN6Marble13GeometryLayer11qt_metacastEPKc@Base 4:15.08.0
 _ZN6Marble13GeometryLayer13addPlacemarksE11QModelIndexii@Base 4:15.08.0
 _ZN6Marble13GeometryLayer13repaintNeededEv@Base 4:15.08.0
 _ZN6Marble13GeometryLayer14resetCacheDataEv@Base 4:15.08.0
 _ZN6Marble13GeometryLayer14whichFeatureAtERK6QPointPKNS_14ViewportParamsE@Base 4:15.08.0
 _ZN6Marble13GeometryLayer15handleHighlightEddNS_18GeoDataCoordinates4UnitE@Base 4:15.08.0
 _ZN6Marble13GeometryLayer16removePlacemarksE11QModelIndexii@Base 4:15.08.0
 _ZN6Marble13GeometryLayer16staticMetaObjectE@Base 4:15.08.0
 _ZN6Marble13GeometryLayer28highlightedPlacemarksChangedERK7QVectorIPNS_16GeoDataPlacemarkEE@Base 4:15.08.0
 _ZN6Marble13GeometryLayer6renderEPNS_10GeoPainterEPNS_14ViewportParamsERK7QStringPNS_13GeoSceneLayerE@Base 4:15.08.0
 _ZN6Marble13GeometryLayerC1EPK18QAbstractItemModel@Base 4:15.08.0
 _ZN6Marble13GeometryLayerC2EPK18QAbstractItemModel@Base 4:15.08.0
 _ZN6Marble13GeometryLayerD0Ev@Base 4:15.08.0
 _ZN6Marble13GeometryLayerD1Ev@Base 4:15.08.0
 _ZN6Marble13GeometryLayerD2Ev@Base 4:15.08.0
 _ZN6Marble13LightBlendingD0Ev@Base 4:15.08.0
 _ZN6Marble13LightBlendingD1Ev@Base 4:15.08.0
 _ZN6Marble13LightBlendingD2Ev@Base 4:15.08.0
 _ZN6Marble13MapViewWidget11qt_metacallEN11QMetaObject4CallEiPPv@Base 4:15.08.0
 _ZN6Marble13MapViewWidget11qt_metacastEPKc@Base 4:15.08.0
 _ZN6Marble13MapViewWidget11resizeEventEP12QResizeEvent@Base 4:15.08.0
 _ZN6Marble13MapViewWidget13setMapThemeIdERK7QString@Base 4:15.08.0
 _ZN6Marble13MapViewWidget13setProjectionENS_10ProjectionE@Base 4:15.08.0
 _ZN6Marble13MapViewWidget13showMapWizardEv@Base 4:15.08.0
 _ZN6Marble13MapViewWidget15mapThemeDeletedEv@Base 4:15.08.0
 _ZN6Marble13MapViewWidget15setMarbleWidgetEPNS_12MarbleWidgetEPNS_15MapThemeManagerE@Base 4:15.08.0
 _ZN6Marble13MapViewWidget16showUploadDialogEv@Base 4:15.08.0
 _ZN6Marble13MapViewWidget16staticMetaObjectE@Base 4:15.08.0
 _ZN6Marble13MapViewWidget17flatViewRequestedEv@Base 4:15.08.0
 _ZN6Marble13MapViewWidget17mapThemeIdChangedERK7QString@Base 4:15.08.0
 _ZN6Marble13MapViewWidget17projectionChangedENS_10ProjectionE@Base 4:15.08.0
 _ZN6Marble13MapViewWidget18globeViewRequestedEv@Base 4:15.08.0
 _ZN6Marble13MapViewWidget20celestialBodyChangedERK7QString@Base 4:15.08.0
 _ZN6Marble13MapViewWidget21gnomonicViewRequestedEv@Base 4:15.08.0
 _ZN6Marble13MapViewWidget21mercatorViewRequestedEv@Base 4:15.08.0
 _ZN6Marble13MapViewWidget26stereographicViewRequestedEv@Base 4:15.08.0
 _ZN6Marble13MapViewWidget29lambertAzimuthalViewRequestedEv@Base 4:15.08.0
 _ZN6Marble13MapViewWidget32verticalPerspectiveViewRequestedEv@Base 4:15.08.0
 _ZN6Marble13MapViewWidget33azimuthalEquidistantViewRequestedEv@Base 4:15.08.0
 _ZN6Marble13MapViewWidget7Private12setupToolBarEv@Base 4:15.08.0
 _ZN6Marble13MapViewWidget7Private14toggleFavoriteEv@Base 4:15.08.0
 _ZN6Marble13MapViewWidget7Private14toggleIconSizeEv@Base 4:15.08.0
 _ZN6Marble13MapViewWidget7Private15showContextMenuERK6QPoint@Base 4:15.08.0
 _ZN6Marble13MapViewWidget7Private16mapThemeSelectedE11QModelIndex@Base 4:15.08.0
 _ZN6Marble13MapViewWidget7Private16mapThemeSelectedEi@Base 4:15.08.0
 _ZN6Marble13MapViewWidget7Private17isCurrentFavoriteEv@Base 4:15.08.0
 _ZN6Marble13MapViewWidget7Private18projectionSelectedEi@Base 4:15.08.0
 _ZN6Marble13MapViewWidget7Private21celestialBodySelectedEi@Base 4:15.08.0
 _ZN6Marble13MapViewWidget7Private9deleteMapEv@Base 4:15.08.0
 _ZN6Marble13MapViewWidgetC1EP7QWidget6QFlagsIN2Qt10WindowTypeEE@Base 4:15.08.0
 _ZN6Marble13MapViewWidgetC2EP7QWidget6QFlagsIN2Qt10WindowTypeEE@Base 4:15.08.0
 _ZN6Marble13MapViewWidgetD0Ev@Base 4:15.08.0
 _ZN6Marble13MapViewWidgetD1Ev@Base 4:15.08.0
 _ZN6Marble13MapViewWidgetD2Ev@Base 4:15.08.0
 _ZN6Marble13MarblePhysics11qt_metacallEN11QMetaObject4CallEiPPv@Base 4:15.08.0
 _ZN6Marble13MarblePhysics11qt_metacastEPKc@Base 4:15.08.0
 _ZN6Marble13MarblePhysics14startStillModeEv@Base 4:15.08.0
 _ZN6Marble13MarblePhysics14updateProgressEd@Base 4:15.08.0
 _ZN6Marble13MarblePhysics16staticMetaObjectE@Base 4:15.08.0
 _ZN6Marble13MarblePhysics5flyToERKNS_13GeoDataLookAtENS_9FlyToModeE@Base 4:15.08.0
 _ZN6Marble13MarblePhysicsC1EPNS_23MarbleAbstractPresenterE@Base 4:15.08.0
 _ZN6Marble13MarblePhysicsC2EPNS_23MarbleAbstractPresenterE@Base 4:15.08.0
 _ZN6Marble13MarblePhysicsD0Ev@Base 4:15.08.0
 _ZN6Marble13MarblePhysicsD1Ev@Base 4:15.08.0
 _ZN6Marble13MarblePhysicsD2Ev@Base 4:15.08.0
 _ZN6Marble13NewstuffModel11qt_metacallEN11QMetaObject4CallEiPPv@Base 4:15.08.0
 _ZN6Marble13NewstuffModel11qt_metacastEPKc@Base 4:15.08.0
 _ZN6Marble13NewstuffModel11setProviderERK7QString@Base 4:15.08.0
 _ZN6Marble13NewstuffModel12countChangedEv@Base 4:15.08.0
 _ZN6Marble13NewstuffModel12mapInstalledEi@Base 4:15.08.0
 _ZN6Marble13NewstuffModel12retrieveDataEv@Base 4:15.08.0
 _ZN6Marble13NewstuffModel14contentsListedEi@Base 4:15.08.0
 _ZN6Marble13NewstuffModel14mapUninstalledEv@Base 4:15.08.0
 _ZN6Marble13NewstuffModel14updateProgressExx@Base 4:15.08.0
 _ZN6Marble13NewstuffModel15providerChangedEv@Base 4:15.08.0
 _ZN6Marble13NewstuffModel15setRegistryFileERK7QStringNS0_5IdTagE@Base 4:15.08.0
 _ZN6Marble13NewstuffModel16staticMetaObjectE@Base 4:15.08.0
 _ZN6Marble13NewstuffModel18installationFailedEiRK7QString@Base 4:15.08.0
 _ZN6Marble13NewstuffModel18setTargetDirectoryERK7QString@Base 4:15.08.0
 _ZN6Marble13NewstuffModel19registryFileChangedEv@Base 4:15.08.0
 _ZN6Marble13NewstuffModel20installationFinishedEi@Base 4:15.08.0
 _ZN6Marble13NewstuffModel22installationProgressedEid@Base 4:15.08.0
 _ZN6Marble13NewstuffModel22targetDirectoryChangedEv@Base 4:15.08.0
 _ZN6Marble13NewstuffModel22uninstallationFinishedEi@Base 4:15.08.0
 _ZN6Marble13NewstuffModel6cancelEi@Base 4:15.08.0
 _ZN6Marble13NewstuffModel7installEi@Base 4:15.08.0
 _ZN6Marble13NewstuffModel9uninstallEi@Base 4:15.08.0
 _ZN6Marble13NewstuffModelC1EP7QObject@Base 4:15.08.0
 _ZN6Marble13NewstuffModelC2EP7QObject@Base 4:15.08.0
 _ZN6Marble13NewstuffModelD0Ev@Base 4:15.08.0
 _ZN6Marble13NewstuffModelD1Ev@Base 4:15.08.0
 _ZN6Marble13NewstuffModelD2Ev@Base 4:15.08.0
 _ZN6Marble13ParsingRunner11qt_metacallEN11QMetaObject4CallEiPPv@Base 4:15.08.0
 _ZN6Marble13ParsingRunner11qt_metacastEPKc@Base 4:15.08.0
 _ZN6Marble13ParsingRunner15parsingFinishedEPNS_15GeoDataDocumentERK7QString@Base 4:15.08.0
 _ZN6Marble13ParsingRunner16staticMetaObjectE@Base 4:15.08.0
 _ZN6Marble13ParsingRunnerC1EP7QObject@Base 4:15.08.0
 _ZN6Marble13ParsingRunnerC2EP7QObject@Base 4:15.08.0
 _ZN6Marble13PixmapElementC1Eii@Base 4:15.08.0
 _ZN6Marble13PixmapElementC2Eii@Base 4:15.08.0
 _ZN6Marble13PlanetFactory10planetListEv@Base 4:15.08.0
 _ZN6Marble13PlanetFactory13localizedNameERK7QString@Base 4:15.08.0
 _ZN6Marble13PlanetFactory9constructERK7QString@Base 4:15.08.0
 _ZN6Marble13PluginManager11qt_metacallEN11QMetaObject4CallEiPPv@Base 4:15.08.0
 _ZN6Marble13PluginManager11qt_metacastEPKc@Base 4:15.08.0
 _ZN6Marble13PluginManager15addRenderPluginEPKNS_12RenderPluginE@Base 4:15.08.0
 _ZN6Marble13PluginManager16staticMetaObjectE@Base 4:15.08.0
 _ZN6Marble13PluginManager20addParseRunnerPluginEPKNS_17ParseRunnerPluginE@Base 4:15.08.0
 _ZN6Marble13PluginManager20renderPluginsChangedEv@Base 4:15.08.0
 _ZN6Marble13PluginManager21addSearchRunnerPluginEPKNS_18SearchRunnerPluginE@Base 4:15.08.0
 _ZN6Marble13PluginManager22addRoutingRunnerPluginEPNS_19RoutingRunnerPluginE@Base 4:15.08.0
 _ZN6Marble13PluginManager25addPositionProviderPluginEPKNS_22PositionProviderPluginE@Base 4:15.08.0
 _ZN6Marble13PluginManager25parseRunnerPluginsChangedEv@Base 4:15.08.0
 _ZN6Marble13PluginManager26searchRunnerPluginsChangedEv@Base 4:15.08.0
 _ZN6Marble13PluginManager27routingRunnerPluginsChangedEv@Base 4:15.08.0
 _ZN6Marble13PluginManager30positionProviderPluginsChangedEv@Base 4:15.08.0
 _ZN6Marble13PluginManager31addReverseGeocodingRunnerPluginEPKNS_28ReverseGeocodingRunnerPluginE@Base 4:15.08.0
 _ZN6Marble13PluginManager36reverseGeocodingRunnerPluginsChangedEv@Base 4:15.08.0
 _ZN6Marble13PluginManagerC1EP7QObject@Base 4:15.08.0
 _ZN6Marble13PluginManagerC2EP7QObject@Base 4:15.08.0
 _ZN6Marble13PluginManagerD0Ev@Base 4:15.08.0
 _ZN6Marble13PluginManagerD1Ev@Base 4:15.08.0
 _ZN6Marble13PluginManagerD2Ev@Base 4:15.08.0
 _ZN6Marble13PreviewDialog10closeEventEP11QCloseEvent@Base 4:15.08.0
 _ZN6Marble13PreviewDialog11deleteThemeE7QString@Base 4:15.08.0
 _ZN6Marble13PreviewDialogC1EP7QWidget7QString@Base 4:15.08.0
 _ZN6Marble13PreviewDialogC2EP7QWidget7QString@Base 4:15.08.0
 _ZN6Marble13PreviewDialogD0Ev@Base 4:15.08.0
 _ZN6Marble13PreviewDialogD1Ev@Base 4:15.08.0
 _ZN6Marble13PreviewDialogD2Ev@Base 4:15.08.0
 _ZN6Marble13RoutingRunner11qt_metacallEN11QMetaObject4CallEiPPv@Base 4:15.08.0
 _ZN6Marble13RoutingRunner11qt_metacastEPKc@Base 4:15.08.0
 _ZN6Marble13RoutingRunner15routeCalculatedEPNS_15GeoDataDocumentE@Base 4:15.08.0
 _ZN6Marble13RoutingRunner16staticMetaObjectE@Base 4:15.08.0
 _ZN6Marble13RoutingRunnerC1EP7QObject@Base 4:15.08.0
 _ZN6Marble13RoutingRunnerC2EP7QObject@Base 4:15.08.0
 _ZN6Marble13RoutingWidget11eventFilterEP7QObjectP6QEvent@Base 4:15.08.0
 _ZN6Marble13RoutingWidget11qt_metacallEN11QMetaObject4CallEiPPv@Base 4:15.08.0
 _ZN6Marble13RoutingWidget11qt_metacastEPKc@Base 4:15.08.0
 _ZN6Marble13RoutingWidget11resizeEventEP12QResizeEvent@Base 4:15.08.0
 _ZN6Marble13RoutingWidget12activateItemERK11QModelIndex@Base 4:15.08.0
 _ZN6Marble13RoutingWidget13retrieveRouteEv@Base 4:15.08.0
 _ZN6Marble13RoutingWidget13uploadToCloudEv@Base 4:15.08.0
 _ZN6Marble13RoutingWidget14addInputWidgetEv@Base 4:15.08.0
 _ZN6Marble13RoutingWidget14initializeTourEv@Base 4:15.08.0
 _ZN6Marble13RoutingWidget14openCloudRouteERK7QString@Base 4:15.08.0
 _ZN6Marble13RoutingWidget14showDirectionsEv@Base 4:15.08.0
 _ZN6Marble13RoutingWidget14updateProgressEv@Base 4:15.08.0
 _ZN6Marble13RoutingWidget15seekTourToStartEv@Base 4:15.08.0
 _ZN6Marble13RoutingWidget15toggleRoutePlayEv@Base 4:15.08.0
 _ZN6Marble13RoutingWidget16configureProfileEv@Base 4:15.08.0
 _ZN6Marble13RoutingWidget16staticMetaObjectE@Base 4:15.08.0
 _ZN6Marble13RoutingWidget16updateRouteStateENS_14RoutingManager5StateE@Base 4:15.08.0
 _ZN6Marble13RoutingWidget17activatePlacemarkERK11QModelIndex@Base 4:15.08.0
 _ZN6Marble13RoutingWidget17insertInputWidgetEi@Base 4:15.08.0
 _ZN6Marble13RoutingWidget17removeInputWidgetEPNS_18RoutingInputWidgetE@Base 4:15.08.0
 _ZN6Marble13RoutingWidget17removeInputWidgetEi@Base 4:15.08.0
 _ZN6Marble13RoutingWidget17setRoutingProfileEi@Base 4:15.08.0
 _ZN6Marble13RoutingWidget18adjustSearchButtonEv@Base 4:15.08.0
 _ZN6Marble13RoutingWidget18handleSearchResultEPNS_18RoutingInputWidgetE@Base 4:15.08.0
 _ZN6Marble13RoutingWidget18requestMapPositionEPNS_18RoutingInputWidgetEb@Base 4:15.08.0
 _ZN6Marble13RoutingWidget18selectFirstProfileEv@Base 4:15.08.0
 _ZN6Marble13RoutingWidget19centerOnInputWidgetEPNS_18RoutingInputWidgetE@Base 4:15.08.0
 _ZN6Marble13RoutingWidget19setRouteSyncManagerEPNS_16RouteSyncManagerE@Base 4:15.08.0
 _ZN6Marble13RoutingWidget20updateUploadProgressExx@Base 4:15.08.0
 _ZN6Marble13RoutingWidget21openCloudRoutesDialogEv@Base 4:15.08.0
 _ZN6Marble13RoutingWidget21retrieveSelectedPointERKNS_18GeoDataCoordinatesE@Base 4:15.08.0
 _ZN6Marble13RoutingWidget22pointSelectionCanceledEv@Base 4:15.08.0
 _ZN6Marble13RoutingWidget22updateCloudSyncButtonsEv@Base 4:15.08.0
 _ZN6Marble13RoutingWidget23updateAlternativeRoutesEv@Base 4:15.08.0
 _ZN6Marble13RoutingWidget26updateActiveRoutingProfileEv@Base 4:15.08.0
 _ZN6Marble13RoutingWidget30setShowDirectionsButtonVisibleEb@Base 4:15.08.0
 _ZN6Marble13RoutingWidget8centerOnERKNS_18GeoDataCoordinatesE@Base 4:15.08.0
 _ZN6Marble13RoutingWidget9clearTourEv@Base 4:15.08.0
 _ZN6Marble13RoutingWidget9openRouteEv@Base 4:15.08.0
 _ZN6Marble13RoutingWidget9saveRouteEv@Base 4:15.08.0
 _ZN6Marble13RoutingWidgetC1EPNS_12MarbleWidgetEP7QWidget@Base 4:15.08.0
 _ZN6Marble13RoutingWidgetC2EPNS_12MarbleWidgetEP7QWidget@Base 4:15.08.0
 _ZN6Marble13RoutingWidgetD0Ev@Base 4:15.08.0
 _ZN6Marble13RoutingWidgetD1Ev@Base 4:15.08.0
 _ZN6Marble13RoutingWidgetD2Ev@Base 4:15.08.0
 _ZN6Marble13SpeakersModel11qt_metacallEN11QMetaObject4CallEiPPv@Base 4:15.08.0
 _ZN6Marble13SpeakersModel11qt_metacastEPKc@Base 4:15.08.0
 _ZN6Marble13SpeakersModel12countChangedEv@Base 4:15.08.0
 _ZN6Marble13SpeakersModel16staticMetaObjectE@Base 4:15.08.0
 _ZN6Marble13SpeakersModel20installationFinishedEi@Base 4:15.08.0
 _ZN6Marble13SpeakersModel22installationProgressedEid@Base 4:15.08.0
 _ZN6Marble13SpeakersModel4pathEi@Base 4:15.08.0
 _ZN6Marble13SpeakersModel7indexOfERK7QString@Base 4:15.08.0
 _ZN6Marble13SpeakersModel7installEi@Base 4:15.08.0
 _ZN6Marble13SpeakersModelC1EP7QObject@Base 4:15.08.0
 _ZN6Marble13SpeakersModelC2EP7QObject@Base 4:15.08.0
 _ZN6Marble13SpeakersModelD0Ev@Base 4:15.08.0
 _ZN6Marble13SpeakersModelD1Ev@Base 4:15.08.0
 _ZN6Marble13SpeakersModelD2Ev@Base 4:15.08.0
 _ZN6Marble13StoragePolicy11qt_metacallEN11QMetaObject4CallEiPPv@Base 4:15.08.0
 _ZN6Marble13StoragePolicy11qt_metacastEPKc@Base 4:15.08.0
 _ZN6Marble13StoragePolicy11sizeChangedEx@Base 4:15.08.0
 _ZN6Marble13StoragePolicy16staticMetaObjectE@Base 4:15.08.0
 _ZN6Marble13StoragePolicy7clearedEv@Base 4:15.08.0
 _ZN6Marble13StoragePolicyC1EP7QObject@Base 4:15.08.0
 _ZN6Marble13StoragePolicyC2EP7QObject@Base 4:15.08.0
 _ZN6Marble14AutoNavigation11qt_metacallEN11QMetaObject4CallEiPPv@Base 4:15.08.0
 _ZN6Marble14AutoNavigation11qt_metacastEPKc@Base 4:15.08.0
 _ZN6Marble14AutoNavigation11setAutoZoomEb@Base 4:15.08.0
 _ZN6Marble14AutoNavigation11setRecenterENS0_10CenterModeE@Base 4:15.08.0
 _ZN6Marble14AutoNavigation15autoZoomToggledEb@Base 4:15.08.0
 _ZN6Marble14AutoNavigation16staticMetaObjectE@Base 4:15.08.0
 _ZN6Marble14AutoNavigation19recenterModeChangedENS0_10CenterModeE@Base 4:15.08.0
 _ZN6Marble14AutoNavigation22inhibitAutoAdjustmentsEv@Base 4:15.08.0
 _ZN6Marble14AutoNavigation6adjustERKNS_18GeoDataCoordinatesEd@Base 4:15.08.0
 _ZN6Marble14AutoNavigation6zoomInENS_9FlyToModeE@Base 4:15.08.0
 _ZN6Marble14AutoNavigation7Private10adjustZoomERKNS_18GeoDataCoordinatesEd@Base 4:15.08.0
 _ZN6Marble14AutoNavigation7Private20moveOnBorderToCenterERKNS_18GeoDataCoordinatesEd@Base 4:15.08.0
 _ZN6Marble14AutoNavigation7Private8centerOnERKNS_18GeoDataCoordinatesE@Base 4:15.08.0
 _ZN6Marble14AutoNavigation7PrivateC1EPNS_11MarbleModelEPKNS_14ViewportParamsEPS0_@Base 4:15.08.0
 _ZN6Marble14AutoNavigation7PrivateC2EPNS_11MarbleModelEPKNS_14ViewportParamsEPS0_@Base 4:15.08.0
 _ZN6Marble14AutoNavigation7zoomOutENS_9FlyToModeE@Base 4:15.08.0
 _ZN6Marble14AutoNavigation8centerOnERKNS_18GeoDataCoordinatesEb@Base 4:15.08.0
 _ZN6Marble14AutoNavigationC1EPNS_11MarbleModelEPKNS_14ViewportParamsEP7QObject@Base 4:15.08.0
 _ZN6Marble14AutoNavigationC2EPNS_11MarbleModelEPKNS_14ViewportParamsEP7QObject@Base 4:15.08.0
 _ZN6Marble14AutoNavigationD0Ev@Base 4:15.08.0
 _ZN6Marble14AutoNavigationD1Ev@Base 4:15.08.0
 _ZN6Marble14AutoNavigationD2Ev@Base 4:15.08.0
 _ZN6Marble14BleachBlendingD0Ev@Base 4:15.08.0
 _ZN6Marble14BleachBlendingD1Ev@Base 4:15.08.0
 _ZN6Marble14BleachBlendingD2Ev@Base 4:15.08.0
 _ZN6Marble14CloudsBlendingD0Ev@Base 4:15.08.0
 _ZN6Marble14CloudsBlendingD1Ev@Base 4:15.08.0
 _ZN6Marble14CloudsBlendingD2Ev@Base 4:15.08.0
 _ZN6Marble14ConflictDialog11qt_metacallEN11QMetaObject4CallEiPPv@Base 4:15.08.0
 _ZN6Marble14ConflictDialog11qt_metacastEPKc@Base 4:15.08.0
 _ZN6Marble14ConflictDialog12setMergeItemEPNS_9MergeItemE@Base 4:15.08.0
 _ZN6Marble14ConflictDialog13prepareLayoutEv@Base 4:15.08.0
 _ZN6Marble14ConflictDialog15resolveConflictEP15QAbstractButton@Base 4:15.08.0
 _ZN6Marble14ConflictDialog15resolveConflictEPNS_9MergeItemE@Base 4:15.08.0
 _ZN6Marble14ConflictDialog15stopAutoResolveEv@Base 4:15.08.0
 _ZN6Marble14ConflictDialog16staticMetaObjectE@Base 4:15.08.0
 _ZN6Marble14ConflictDialog4openEv@Base 4:15.08.0
 _ZN6Marble14ConflictDialogC1EP7QWidget@Base 4:15.08.0
 _ZN6Marble14ConflictDialogC2EP7QWidget@Base 4:15.08.0
 _ZN6Marble14ConflictDialogD0Ev@Base 4:15.08.0
 _ZN6Marble14ConflictDialogD1Ev@Base 4:15.08.0
 _ZN6Marble14ConflictDialogD2Ev@Base 4:15.08.0
 _ZN6Marble14DMInputHandler11setupMinMaxENS_9DimensionE@Base 4:15.08.0
 _ZN6Marble14DMInputHandler19handleIntEditChangeEv@Base 4:15.08.0
 _ZN6Marble14DMInputHandler20handleUIntEditChangeEv@Base 4:15.08.0
 _ZN6Marble14DMInputHandler21handleFloatEditChangeEv@Base 4:15.08.0
 _ZN6Marble14DMInputHandler7setupUiEv@Base 4:15.08.0
 _ZN6Marble14DMInputHandler8setValueEd@Base 4:15.08.0
 _ZN6Marble14DMInputHandlerD0Ev@Base 4:15.08.0
 _ZN6Marble14DMInputHandlerD1Ev@Base 4:15.08.0
 _ZN6Marble14DMInputHandlerD2Ev@Base 4:15.08.0
 _ZN6Marble14DarkenBlendingD0Ev@Base 4:15.08.0
 _ZN6Marble14DarkenBlendingD1Ev@Base 4:15.08.0
 _ZN6Marble14DarkenBlendingD2Ev@Base 4:15.08.0
 _ZN6Marble14DivideBlendingD0Ev@Base 4:15.08.0
 _ZN6Marble14DivideBlendingD1Ev@Base 4:15.08.0
 _ZN6Marble14DivideBlendingD2Ev@Base 4:15.08.0
 _ZN6Marble14DownloadPolicy21setMaximumConnectionsEi@Base 4:15.08.0
 _ZN6Marble14DownloadPolicyC1ERKNS_17DownloadPolicyKeyE@Base 4:15.08.0
 _ZN6Marble14DownloadPolicyC1Ev@Base 4:15.08.0
 _ZN6Marble14DownloadPolicyC2ERKNS_17DownloadPolicyKeyE@Base 4:15.08.0
 _ZN6Marble14DownloadPolicyC2Ev@Base 4:15.08.0
 _ZN6Marble14DownloadRegion11qt_metacallEN11QMetaObject4CallEiPPv@Base 4:15.08.0
 _ZN6Marble14DownloadRegion11qt_metacastEPKc@Base 4:15.08.0
 _ZN6Marble14DownloadRegion14setMarbleModelEPNS_11MarbleModelE@Base 4:15.08.0
 _ZN6Marble14DownloadRegion16staticMetaObjectE@Base 4:15.08.0
 _ZN6Marble14DownloadRegion17setTileLevelRangeEii@Base 4:15.08.0
 _ZN6Marble14DownloadRegion19setVisibleTileLevelEi@Base 4:15.08.0
 _ZN6Marble14DownloadRegionC1EP7QObject@Base 4:15.08.0
 _ZN6Marble14DownloadRegionC2EP7QObject@Base 4:15.08.0
 _ZN6Marble14DownloadRegionD0Ev@Base 4:15.08.0
 _ZN6Marble14DownloadRegionD1Ev@Base 4:15.08.0
 _ZN6Marble14DownloadRegionD2Ev@Base 4:15.08.0
 _ZN6Marble14ElevationModel11qt_metacallEN11QMetaObject4CallEiPPv@Base 4:15.08.0
 _ZN6Marble14ElevationModel11qt_metacastEPKc@Base 4:15.08.0
 _ZN6Marble14ElevationModel15updateAvailableEv@Base 4:15.08.0
 _ZN6Marble14ElevationModel16staticMetaObjectE@Base 4:15.08.0
 _ZN6Marble14ElevationModelC1EPNS_19HttpDownloadManagerEP7QObject@Base 4:15.08.0
 _ZN6Marble14ElevationModelC2EPNS_19HttpDownloadManagerEP7QObject@Base 4:15.08.0
 _ZN6Marble14ElevationModelD0Ev@Base 4:15.08.0
 _ZN6Marble14ElevationModelD1Ev@Base 4:15.08.0
 _ZN6Marble14ElevationModelD2Ev@Base 4:15.08.0
 _ZN6Marble14FavoritesModel5resetEv@Base 4:15.08.0
 _ZN6Marble14FavoritesModelC1EPNS_30AbstractDataPluginModelPrivateEP7QObject@Base 4:15.08.0
 _ZN6Marble14FavoritesModelC2EPNS_30AbstractDataPluginModelPrivateEP7QObject@Base 4:15.08.0
 _ZN6Marble14FavoritesModelD0Ev@Base 4:15.08.0
 _ZN6Marble14FavoritesModelD1Ev@Base 4:15.08.0
 _ZN6Marble14FavoritesModelD2Ev@Base 4:15.08.0
 _ZN6Marble14FileViewWidget11qt_metacallEN11QMetaObject4CallEiPPv@Base 4:15.08.0
 _ZN6Marble14FileViewWidget11qt_metacastEPKc@Base 4:15.08.0
 _ZN6Marble14FileViewWidget15setMarbleWidgetEPNS_12MarbleWidgetE@Base 4:15.08.0
 _ZN6Marble14FileViewWidget16staticMetaObjectE@Base 4:15.08.0
 _ZN6Marble14FileViewWidget24mapCenterOnTreeViewModelERK11QModelIndex@Base 4:15.08.0
 _ZN6Marble14FileViewWidget8centerOnERKNS_16GeoDataLatLonBoxEb@Base 4:15.08.0
 _ZN6Marble14FileViewWidget8centerOnERKNS_16GeoDataPlacemarkEb@Base 4:15.08.0
 _ZN6Marble14FileViewWidgetC1EP7QWidget6QFlagsIN2Qt10WindowTypeEE@Base 4:15.08.0
 _ZN6Marble14FileViewWidgetC2EP7QWidget6QFlagsIN2Qt10WindowTypeEE@Base 4:15.08.0
 _ZN6Marble14FileViewWidgetD0Ev@Base 4:15.08.0
 _ZN6Marble14FileViewWidgetD1Ev@Base 4:15.08.0
 _ZN6Marble14FileViewWidgetD2Ev@Base 4:15.08.0
 _ZN6Marble14GeoDataFeature10setAddressERK7QString@Base 4:15.08.0
 _ZN6Marble14GeoDataFeature10setSnippetERKNS_14GeoDataSnippetE@Base 4:15.08.0
 _ZN6Marble14GeoDataFeature10setVisibleEb@Base 4:15.08.0
 _ZN6Marble14GeoDataFeature11defaultFontEv@Base 4:15.08.0
 _ZN6Marble14GeoDataFeature11setStyleMapEPKNS_15GeoDataStyleMapE@Base 4:15.08.0
 _ZN6Marble14GeoDataFeature11setStyleUrlERK7QString@Base 4:15.08.0
 _ZN6Marble14GeoDataFeature11setTimeSpanERKNS_15GeoDataTimeSpanE@Base 4:15.08.0
 _ZN6Marble14GeoDataFeature12abstractViewEv@Base 4:15.08.0
 _ZN6Marble14GeoDataFeature12setTimeStampERKNS_16GeoDataTimeStampE@Base 4:15.08.0
 _ZN6Marble14GeoDataFeature12setZoomLevelEi@Base 4:15.08.0
 _ZN6Marble14GeoDataFeature13setPopularityEx@Base 4:15.08.0
 _ZN6Marble14GeoDataFeature14setDefaultFontERK5QFont@Base 4:15.08.0
 _ZN6Marble14GeoDataFeature14setDescriptionERK7QString@Base 4:15.08.0
 _ZN6Marble14GeoDataFeature14setPhoneNumberERK7QString@Base 4:15.08.0
 _ZN6Marble14GeoDataFeature15setAbstractViewEPNS_19GeoDataAbstractViewE@Base 4:15.08.0
 _ZN6Marble14GeoDataFeature15setExtendedDataERKNS_19GeoDataExtendedDataE@Base 4:15.08.0
 _ZN6Marble14GeoDataFeature17OsmVisualCategoryERK7QString@Base 4:15.08.0
 _ZN6Marble14GeoDataFeature17defaultLabelColorEv@Base 4:15.08.0
 _ZN6Marble14GeoDataFeature17setVisualCategoryENS0_21GeoDataVisualCategoryE@Base 4:15.08.0
 _ZN6Marble14GeoDataFeature18resetDefaultStylesEv@Base 4:15.08.0
 _ZN6Marble14GeoDataFeature19setDescriptionCDATAEb@Base 4:15.08.0
 _ZN6Marble14GeoDataFeature20setDefaultLabelColorERK6QColor@Base 4:15.08.0
 _ZN6Marble14GeoDataFeature6detachEv@Base 4:15.08.0
 _ZN6Marble14GeoDataFeature6unpackER11QDataStream@Base 4:15.08.0
 _ZN6Marble14GeoDataFeature7setNameERK7QString@Base 4:15.08.0
 _ZN6Marble14GeoDataFeature7setRoleERK7QString@Base 4:15.08.0
 _ZN6Marble14GeoDataFeature8setStyleEPNS_12GeoDataStyleE@Base 4:15.08.0
 _ZN6Marble14GeoDataFeature8timeSpanEv@Base 4:15.08.0
 _ZN6Marble14GeoDataFeature9setRegionERKNS_13GeoDataRegionE@Base 4:15.08.0
 _ZN6Marble14GeoDataFeature9timeStampEv@Base 4:15.08.0
 _ZN6Marble14GeoDataFeatureC1EPNS_21GeoDataFeaturePrivateE@Base 4:15.08.0
 _ZN6Marble14GeoDataFeatureC1ERK7QString@Base 4:15.08.0
 _ZN6Marble14GeoDataFeatureC1ERKS0_@Base 4:15.08.0
 _ZN6Marble14GeoDataFeatureC1Ev@Base 4:15.08.0
 _ZN6Marble14GeoDataFeatureC2EPNS_21GeoDataFeaturePrivateE@Base 4:15.08.0
 _ZN6Marble14GeoDataFeatureC2ERK7QString@Base 4:15.08.0
 _ZN6Marble14GeoDataFeatureC2ERKS0_@Base 4:15.08.0
 _ZN6Marble14GeoDataFeatureC2Ev@Base 4:15.08.0
 _ZN6Marble14GeoDataFeatureD0Ev@Base 4:15.08.0
 _ZN6Marble14GeoDataFeatureD1Ev@Base 4:15.08.0
 _ZN6Marble14GeoDataFeatureD2Ev@Base 4:15.08.0
 _ZN6Marble14GeoDataFeatureaSERKS0_@Base 4:15.08.0
 _ZN6Marble14GeoDataHotSpot10setHotSpotERK7QPointFNS0_5UnitsES4_@Base 4:15.08.0
 _ZN6Marble14GeoDataHotSpot6unpackER11QDataStream@Base 4:15.08.0
 _ZN6Marble14GeoDataHotSpotC1ERK7QPointFNS0_5UnitsES4_@Base 4:15.08.0
 _ZN6Marble14GeoDataHotSpotC1ERKS0_@Base 4:15.08.0
 _ZN6Marble14GeoDataHotSpotC2ERK7QPointFNS0_5UnitsES4_@Base 4:15.08.0
 _ZN6Marble14GeoDataHotSpotC2ERKS0_@Base 4:15.08.0
 _ZN6Marble14GeoDataHotSpotD0Ev@Base 4:15.08.0
 _ZN6Marble14GeoDataHotSpotD1Ev@Base 4:15.08.0
 _ZN6Marble14GeoDataHotSpotD2Ev@Base 4:15.08.0
 _ZN6Marble14GeoDataHotSpotaSERKS0_@Base 4:15.08.0
 _ZN6Marble14GeoDataHotSpoteqERKS0_@Base 4:15.08.0
 _ZN6Marble14GeoDataHotSpotneERKS0_@Base 4:15.08.0
 _ZN6Marble14GeoDataOverlay11setIconFileERK7QString@Base 4:15.08.0
 _ZN6Marble14GeoDataOverlay12setDrawOrderEi@Base 4:15.08.0
 _ZN6Marble14GeoDataOverlay7setIconERK6QImage@Base 4:15.08.0
 _ZN6Marble14GeoDataOverlay8setColorERK6QColor@Base 4:15.08.0
 _ZN6Marble14GeoDataOverlayC1ERKS0_@Base 4:15.08.0
 _ZN6Marble14GeoDataOverlayC1Ev@Base 4:15.08.0
 _ZN6Marble14GeoDataOverlayC2ERKS0_@Base 4:15.08.0
 _ZN6Marble14GeoDataOverlayC2Ev@Base 4:15.08.0
 _ZN6Marble14GeoDataOverlayD0Ev@Base 4:15.08.0
 _ZN6Marble14GeoDataOverlayD1Ev@Base 4:15.08.0
 _ZN6Marble14GeoDataOverlayD2Ev@Base 4:15.08.0
 _ZN6Marble14GeoDataOverlayaSERKS0_@Base 4:15.08.0
 _ZN6Marble14GeoDataPolygon13outerBoundaryEv@Base 4:15.08.0
 _ZN6Marble14GeoDataPolygon13setTessellateEb@Base 4:15.08.0
 _ZN6Marble14GeoDataPolygon15innerBoundariesEv@Base 4:15.08.0
 _ZN6Marble14GeoDataPolygon16setOuterBoundaryERKNS_17GeoDataLinearRingE@Base 4:15.08.0
 _ZN6Marble14GeoDataPolygon19appendInnerBoundaryERKNS_17GeoDataLinearRingE@Base 4:15.08.0
 _ZN6Marble14GeoDataPolygon1pEv@Base 4:15.08.0
 _ZN6Marble14GeoDataPolygon20setTessellationFlagsE6QFlagsINS_16TessellationFlagEE@Base 4:15.08.0
 _ZN6Marble14GeoDataPolygon6unpackER11QDataStream@Base 4:15.08.0
 _ZN6Marble14GeoDataPolygonC1E6QFlagsINS_16TessellationFlagEE@Base 4:15.08.0
 _ZN6Marble14GeoDataPolygonC1ERKNS_15GeoDataGeometryE@Base 4:15.08.0
 _ZN6Marble14GeoDataPolygonC2E6QFlagsINS_16TessellationFlagEE@Base 4:15.08.0
 _ZN6Marble14GeoDataPolygonC2ERKNS_15GeoDataGeometryE@Base 4:15.08.0
 _ZN6Marble14GeoDataPolygonD0Ev@Base 4:15.08.0
 _ZN6Marble14GeoDataPolygonD1Ev@Base 4:15.08.0
 _ZN6Marble14GeoDataPolygonD2Ev@Base 4:15.08.0
 _ZN6Marble14GeoDataSnippet11setMaxLinesEi@Base 4:15.08.0
 _ZN6Marble14GeoDataSnippet7setTextERK7QString@Base 4:15.08.0
 _ZN6Marble14GeoDataSnippetC1ERK7QStringi@Base 4:15.08.0
 _ZN6Marble14GeoDataSnippetC2ERK7QStringi@Base 4:15.08.0
 _ZN6Marble14GeoSceneFilter10addPaletteEPKNS_15GeoScenePaletteE@Base 4:15.08.0
 _ZN6Marble14GeoSceneFilter13removePaletteEPKNS_15GeoScenePaletteE@Base 4:15.08.0
 _ZN6Marble14GeoSceneFilter7setNameERK7QString@Base 4:15.08.0
 _ZN6Marble14GeoSceneFilter7setTypeERK7QString@Base 4:15.08.0
 _ZN6Marble14GeoSceneFilterC1ERK7QString@Base 4:15.08.0
 _ZN6Marble14GeoSceneFilterC2ERK7QString@Base 4:15.08.0
 _ZN6Marble14GeoSceneFilterD0Ev@Base 4:15.08.0
 _ZN6Marble14GeoSceneFilterD1Ev@Base 4:15.08.0
 _ZN6Marble14GeoSceneFilterD2Ev@Base 4:15.08.0
 _ZN6Marble14GeoSceneLegend10addSectionEPKNS_15GeoSceneSectionE@Base 4:15.08.0
 _ZN6Marble14GeoSceneLegendC1Ev@Base 4:15.08.0
 _ZN6Marble14GeoSceneLegendC2Ev@Base 4:15.08.0
 _ZN6Marble14GeoSceneLegendD0Ev@Base 4:15.08.0
 _ZN6Marble14GeoSceneLegendD1Ev@Base 4:15.08.0
 _ZN6Marble14GeoSceneLegendD2Ev@Base 4:15.08.0
 _ZN6Marble14GeoSceneParser18isValidRootElementEv@Base 4:15.08.0
 _ZN6Marble14GeoSceneParserC1ENS_18GeoSceneSourceTypeE@Base 4:15.08.0
 _ZN6Marble14GeoSceneParserC2ENS_18GeoSceneSourceTypeE@Base 4:15.08.0
 _ZN6Marble14GeoSceneParserD0Ev@Base 4:15.08.0
 _ZN6Marble14GeoSceneParserD1Ev@Base 4:15.08.0
 _ZN6Marble14GeoSceneParserD2Ev@Base 4:15.08.0
 _ZN6Marble14GeoSceneVector10setFeatureERK7QString@Base 4:15.08.0
 _ZN6Marble14GeoSceneVector13setSourceFileERK7QString@Base 4:15.08.0
 _ZN6Marble14GeoSceneVector6setPenERK4QPen@Base 4:15.08.0
 _ZN6Marble14GeoSceneVector8setBrushERK6QBrush@Base 4:15.08.0
 _ZN6Marble14GeoSceneVectorC1ERK7QString@Base 4:15.08.0
 _ZN6Marble14GeoSceneVectorC2ERK7QString@Base 4:15.08.0
 _ZN6Marble14GeoSceneVectorD0Ev@Base 4:15.08.0
 _ZN6Marble14GeoSceneVectorD1Ev@Base 4:15.08.0
 _ZN6Marble14GeoSceneVectorD2Ev@Base 4:15.08.0
 _ZN6Marble14HttpJobPrivateC1ERK4QUrlRK7QStringS6_P21QNetworkAccessManager@Base 4:15.08.0
 _ZN6Marble14HttpJobPrivateC2ERK4QUrlRK7QStringS6_P21QNetworkAccessManager@Base 4:15.08.0
 _ZN6Marble14KmlTrackWriterD0Ev@Base 4:15.08.0
 _ZN6Marble14KmlTrackWriterD1Ev@Base 4:15.08.0
 _ZN6Marble14KmlTrackWriterD2Ev@Base 4:15.08.0
 _ZN6Marble14LayerInterfaceD0Ev@Base 4:15.08.0
 _ZN6Marble14LayerInterfaceD1Ev@Base 4:15.08.0
 _ZN6Marble14LayerInterfaceD2Ev@Base 4:15.08.0
 _ZN6Marble14MarbleLineEdit11qt_metacallEN11QMetaObject4CallEiPPv@Base 4:15.08.0
 _ZN6Marble14MarbleLineEdit11qt_metacastEPKc@Base 4:15.08.0
 _ZN6Marble14MarbleLineEdit11resizeEventEP12QResizeEvent@Base 4:15.08.0
 _ZN6Marble14MarbleLineEdit12setDecoratorERK7QPixmap@Base 4:15.08.0
 _ZN6Marble14MarbleLineEdit14updateProgressEv@Base 4:15.08.0
 _ZN6Marble14MarbleLineEdit16staticMetaObjectE@Base 4:15.08.0
 _ZN6Marble14MarbleLineEdit17mouseReleaseEventEP11QMouseEvent@Base 4:15.08.0
 _ZN6Marble14MarbleLineEdit17updateClearButtonEv@Base 4:15.08.0
 _ZN6Marble14MarbleLineEdit18clearButtonClickedEv@Base 4:15.08.0
 _ZN6Marble14MarbleLineEdit21updateClearButtonIconERK7QString@Base 4:15.08.0
 _ZN6Marble14MarbleLineEdit22decoratorButtonClickedEv@Base 4:15.08.0
 _ZN6Marble14MarbleLineEdit7setBusyEb@Base 4:15.08.0
 _ZN6Marble14MarbleLineEditC1EP7QWidget@Base 4:15.08.0
 _ZN6Marble14MarbleLineEditC2EP7QWidget@Base 4:15.08.0
 _ZN6Marble14MarbleLineEditD0Ev@Base 4:15.08.0
 _ZN6Marble14MarbleLineEditD1Ev@Base 4:15.08.0
 _ZN6Marble14MarbleLineEditD2Ev@Base 4:15.08.0
 _ZN6Marble14PlacemarkLayer11qt_metacallEN11QMetaObject4CallEiPPv@Base 4:15.08.0
 _ZN6Marble14PlacemarkLayer11qt_metacastEPKc@Base 4:15.08.0
 _ZN6Marble14PlacemarkLayer12setShowMariaEb@Base 4:15.08.0
 _ZN6Marble14PlacemarkLayer13repaintNeededEv@Base 4:15.08.0
 _ZN6Marble14PlacemarkLayer13setShowCitiesEb@Base 4:15.08.0
 _ZN6Marble14PlacemarkLayer13setShowPlacesEb@Base 4:15.08.0
 _ZN6Marble14PlacemarkLayer14setShowCratersEb@Base 4:15.08.0
 _ZN6Marble14PlacemarkLayer14setShowTerrainEb@Base 4:15.08.0
 _ZN6Marble14PlacemarkLayer16m_useXWorkaroundE@Base 4:15.08.0
 _ZN6Marble14PlacemarkLayer16staticMetaObjectE@Base 4:15.08.0
 _ZN6Marble14PlacemarkLayer16whichPlacemarkAtERK6QPoint@Base 4:15.08.0
 _ZN6Marble14PlacemarkLayer17requestStyleResetEv@Base 4:15.08.0
 _ZN6Marble14PlacemarkLayer18setShowOtherPlacesEb@Base 4:15.08.0
 _ZN6Marble14PlacemarkLayer19setShowLandingSitesEb@Base 4:15.08.0
 _ZN6Marble14PlacemarkLayer6renderEPNS_10GeoPainterEPNS_14ViewportParamsERK7QStringPNS_13GeoSceneLayerE@Base 4:15.08.0
 _ZN6Marble14PlacemarkLayer8testXBugEv@Base 4:15.08.0
 _ZN6Marble14PlacemarkLayerC1EP18QAbstractItemModelP19QItemSelectionModelPNS_11MarbleClockEP7QObject@Base 4:15.08.0
 _ZN6Marble14PlacemarkLayerC2EP18QAbstractItemModelP19QItemSelectionModelPNS_11MarbleClockEP7QObject@Base 4:15.08.0
 _ZN6Marble14PlacemarkLayerD0Ev@Base 4:15.08.0
 _ZN6Marble14PlacemarkLayerD1Ev@Base 4:15.08.0
 _ZN6Marble14PlacemarkLayerD2Ev@Base 4:15.08.0
 _ZN6Marble14RoutingManager10clearRouteEv@Base 4:15.08.0
 _ZN6Marble14RoutingManager11qt_metacallEN11QMetaObject4CallEiPPv@Base 4:15.08.0
 _ZN6Marble14RoutingManager11qt_metacastEPKc@Base 4:15.08.0
 _ZN6Marble14RoutingManager12readSettingsEv@Base 4:15.08.0
 _ZN6Marble14RoutingManager12reverseRouteEv@Base 4:15.08.0
 _ZN6Marble14RoutingManager12routeRequestEv@Base 4:15.08.0
 _ZN6Marble14RoutingManager12routingModelEv@Base 4:15.08.0
 _ZN6Marble14RoutingManager12stateChangedENS0_5StateE@Base 4:15.08.0
 _ZN6Marble14RoutingManager13profilesModelEv@Base 4:15.08.0
 _ZN6Marble14RoutingManager13retrieveRouteEv@Base 4:15.08.0
 _ZN6Marble14RoutingManager14routeRetrievedEPNS_15GeoDataDocumentE@Base 4:15.08.0
 _ZN6Marble14RoutingManager15setLastOpenPathERK7QString@Base 4:15.08.0
 _ZN6Marble14RoutingManager15setLastSavePathERK7QString@Base 4:15.08.0
 _ZN6Marble14RoutingManager16staticMetaObjectE@Base 4:15.08.0
 _ZN6Marble14RoutingManager21setRouteColorStandardE6QColor@Base 4:15.08.0
 _ZN6Marble14RoutingManager22alternativeRoutesModelEv@Base 4:15.08.0
 _ZN6Marble14RoutingManager22setGuidanceModeEnabledEb@Base 4:15.08.0
 _ZN6Marble14RoutingManager24setRouteColorAlternativeE6QColor@Base 4:15.08.0
 _ZN6Marble14RoutingManager24setRouteColorHighlightedE6QColor@Base 4:15.08.0
 _ZN6Marble14RoutingManager26guidanceModeEnabledChangedEb@Base 4:15.08.0
 _ZN6Marble14RoutingManager33setShowGuidanceModeStartupWarningEb@Base 4:15.08.0
 _ZN6Marble14RoutingManager9loadRouteERK7QString@Base 4:15.08.0
 _ZN6Marble14RoutingManagerC1EPNS_11MarbleModelEP7QObject@Base 4:15.08.0
 _ZN6Marble14RoutingManagerC2EPNS_11MarbleModelEP7QObject@Base 4:15.08.0
 _ZN6Marble14RoutingManagerD0Ev@Base 4:15.08.0
 _ZN6Marble14RoutingManagerD1Ev@Base 4:15.08.0
 _ZN6Marble14RoutingManagerD2Ev@Base 4:15.08.0
 _ZN6Marble14RoutingProfile14pluginSettingsEv@Base 4:15.08.0
 _ZN6Marble14RoutingProfile16setTransportTypeENS0_13TransportTypeE@Base 4:15.08.0
 _ZN6Marble14RoutingProfile7setNameERK7QString@Base 4:15.08.0
 _ZN6Marble14RoutingProfileC1ERK7QString@Base 4:15.08.0
 _ZN6Marble14RoutingProfileC2ERK7QString@Base 4:15.08.0
 _ZN6Marble14ScreenBlendingD0Ev@Base 4:15.08.0
 _ZN6Marble14ScreenBlendingD1Ev@Base 4:15.08.0
 _ZN6Marble14ScreenBlendingD2Ev@Base 4:15.08.0
 _ZN6Marble14TinyWebBrowser11qt_metacallEN11QMetaObject4CallEiPPv@Base 4:15.08.0
 _ZN6Marble14TinyWebBrowser11qt_metacastEPKc@Base 4:15.08.0
 _ZN6Marble14TinyWebBrowser12createWindowEN8QWebPage13WebWindowTypeE@Base 4:15.08.0
 _ZN6Marble14TinyWebBrowser13statusMessageE7QString@Base 4:15.08.0
 _ZN6Marble14TinyWebBrowser16openExternalLinkE4QUrl@Base 4:15.08.0
 _ZN6Marble14TinyWebBrowser16setWikipediaPathERK7QString@Base 4:15.08.0
 _ZN6Marble14TinyWebBrowser16staticMetaObjectE@Base 4:15.08.0
 _ZN6Marble14TinyWebBrowser5printEv@Base 4:15.08.0
 _ZN6Marble14TinyWebBrowserC1EP7QWidget@Base 4:15.08.0
 _ZN6Marble14TinyWebBrowserC2EP7QWidget@Base 4:15.08.0
 _ZN6Marble14TinyWebBrowserD0Ev@Base 4:15.08.0
 _ZN6Marble14TinyWebBrowserD1Ev@Base 4:15.08.0
 _ZN6Marble14TinyWebBrowserD2Ev@Base 4:15.08.0
 _ZN6Marble14ViewportParams13setFocusPointERKNS_18GeoDataCoordinatesE@Base 4:15.08.0
 _ZN6Marble14ViewportParams13setProjectionENS_10ProjectionE@Base 4:15.08.0
 _ZN6Marble14ViewportParams15resetFocusPointEv@Base 4:15.08.0
 _ZN6Marble14ViewportParams7setSizeE5QSize@Base 4:15.08.0
 _ZN6Marble14ViewportParams8centerOnEdd@Base 4:15.08.0
 _ZN6Marble14ViewportParams8setWidthEi@Base 4:15.08.0
 _ZN6Marble14ViewportParams9setHeightEi@Base 4:15.08.0
 _ZN6Marble14ViewportParams9setRadiusEi@Base 4:15.08.0
 _ZN6Marble14ViewportParamsC1ENS_10ProjectionEddiRK5QSize@Base 4:15.08.0
 _ZN6Marble14ViewportParamsC1Ev@Base 4:15.08.0
 _ZN6Marble14ViewportParamsC2ENS_10ProjectionEddiRK5QSize@Base 4:15.08.0
 _ZN6Marble14ViewportParamsC2Ev@Base 4:15.08.0
 _ZN6Marble14ViewportParamsD1Ev@Base 4:15.08.0
 _ZN6Marble14ViewportParamsD2Ev@Base 4:15.08.0
 _ZN6Marble14WaitEditWidget11editingDoneERK11QModelIndex@Base 4:15.08.0
 _ZN6Marble14WaitEditWidget11qt_metacallEN11QMetaObject4CallEiPPv@Base 4:15.08.0
 _ZN6Marble14WaitEditWidget11qt_metacastEPKc@Base 4:15.08.0
 _ZN6Marble14WaitEditWidget11setEditableEb@Base 4:15.08.0
 _ZN6Marble14WaitEditWidget11waitElementEv@Base 4:15.08.0
 _ZN6Marble14WaitEditWidget16staticMetaObjectE@Base 4:15.08.0
 _ZN6Marble14WaitEditWidget4saveEv@Base 4:15.08.0
 _ZN6Marble14WaitEditWidgetC1ERK11QModelIndexP7QWidget@Base 4:15.08.0
 _ZN6Marble14WaitEditWidgetC2ERK11QModelIndexP7QWidget@Base 4:15.08.0
 _ZN6Marble14WaitEditWidgetD0Ev@Base 4:15.08.0
 _ZN6Marble14WaitEditWidgetD1Ev@Base 4:15.08.0
 _ZN6Marble14WaitEditWidgetD2Ev@Base 4:15.08.0
 _ZN6Marble14WaypointParser13setFieldIndexENS0_5FieldEi@Base 4:15.08.0
 _ZN6Marble14WaypointParser16setLineSeparatorERK7QString@Base 4:15.08.0
 _ZN6Marble14WaypointParser17setFieldSeparatorERK5QChar@Base 4:15.08.0
 _ZN6Marble14WaypointParser22addJunctionTypeMappingERK7QStringNS_15RoutingWaypoint12JunctionTypeE@Base 4:15.08.0
 _ZN6Marble14WaypointParserC1Ev@Base 4:15.08.0
 _ZN6Marble14WaypointParserC2Ev@Base 4:15.08.0
 _ZN6Marble14zValueLessThanEPNS_15GeoGraphicsItemES1_@Base 4:15.08.0
 _ZN6Marble15AllanonBlendingD0Ev@Base 4:15.08.0
 _ZN6Marble15AllanonBlendingD1Ev@Base 4:15.08.0
 _ZN6Marble15AllanonBlendingD2Ev@Base 4:15.08.0
 _ZN6Marble15BlendingFactory18setLevelZeroLayoutEii@Base 4:15.08.0
 _ZN6Marble15BlendingFactoryC1EPKNS_10SunLocatorE@Base 4:15.08.0
 _ZN6Marble15BlendingFactoryC2EPKNS_10SunLocatorE@Base 4:15.08.0
 _ZN6Marble15BlendingFactoryD1Ev@Base 4:15.08.0
 _ZN6Marble15BlendingFactoryD2Ev@Base 4:15.08.0
 _ZN6Marble15BookmarkManager11addBookmarkEPNS_16GeoDataContainerERKNS_16GeoDataPlacemarkE@Base 4:15.08.0
 _ZN6Marble15BookmarkManager11qt_metacallEN11QMetaObject4CallEiPPv@Base 4:15.08.0
 _ZN6Marble15BookmarkManager11qt_metacastEPKc@Base 4:15.08.0
 _ZN6Marble15BookmarkManager14removeBookmarkEPNS_16GeoDataPlacemarkE@Base 4:15.08.0
 _ZN6Marble15BookmarkManager14updateBookmarkEPNS_16GeoDataPlacemarkE@Base 4:15.08.0
 _ZN6Marble15BookmarkManager16bookmarksChangedEv@Base 4:15.08.0
 _ZN6Marble15BookmarkManager16setShowBookmarksEb@Base 4:15.08.0
 _ZN6Marble15BookmarkManager16staticMetaObjectE@Base 4:15.08.0
 _ZN6Marble15BookmarkManager18removeAllBookmarksEv@Base 4:15.08.0
 _ZN6Marble15BookmarkManager18updateBookmarkFileEv@Base 4:15.08.0
 _ZN6Marble15BookmarkManager19ensureDefaultFolderEv@Base 4:15.08.0
 _ZN6Marble15BookmarkManager20addNewBookmarkFolderEPNS_16GeoDataContainerERK7QString@Base 4:15.08.0
 _ZN6Marble15BookmarkManager20removeBookmarkFolderEPNS_13GeoDataFolderE@Base 4:15.08.0
 _ZN6Marble15BookmarkManager20renameBookmarkFolderEPNS_13GeoDataFolderERK7QString@Base 4:15.08.0
 _ZN6Marble15BookmarkManager8documentEv@Base 4:15.08.0
 _ZN6Marble15BookmarkManager8loadFileERK7QString@Base 4:15.08.0
 _ZN6Marble15BookmarkManager8openFileERK7QString@Base 4:15.08.0
 _ZN6Marble15BookmarkManagerC1EPNS_16GeoDataTreeModelEP7QObject@Base 4:15.08.0
 _ZN6Marble15BookmarkManagerC2EPNS_16GeoDataTreeModelEP7QObject@Base 4:15.08.0
 _ZN6Marble15BookmarkManagerD0Ev@Base 4:15.08.0
 _ZN6Marble15BookmarkManagerD1Ev@Base 4:15.08.0
 _ZN6Marble15BookmarkManagerD2Ev@Base 4:15.08.0
 _ZN6Marble15CloudRouteModel10setPreviewEP13QNetworkReply@Base 4:15.08.0
 _ZN6Marble15CloudRouteModel11qt_metacallEN11QMetaObject4CallEiPPv@Base 4:15.08.0
 _ZN6Marble15CloudRouteModel11qt_metacastEPKc@Base 4:15.08.0
 _ZN6Marble15CloudRouteModel14updateProgressExx@Base 4:15.08.0
 _ZN6Marble15CloudRouteModel16staticMetaObjectE@Base 4:15.08.0
 _ZN6Marble15CloudRouteModel18setDownloadingItemERK21QPersistentModelIndex@Base 4:15.08.0
 _ZN6Marble15CloudRouteModel7PrivateC1Ev@Base 4:15.08.0
 _ZN6Marble15CloudRouteModel7PrivateC2Ev@Base 4:15.08.0
 _ZN6Marble15CloudRouteModel8setItemsERK7QVectorINS_9RouteItemEE@Base 4:15.08.0
 _ZN6Marble15CloudRouteModelC1EP7QObject@Base 4:15.08.0
 _ZN6Marble15CloudRouteModelC2EP7QObject@Base 4:15.08.0
 _ZN6Marble15CloudRouteModelD0Ev@Base 4:15.08.0
 _ZN6Marble15CloudRouteModelD1Ev@Base 4:15.08.0
 _ZN6Marble15CloudRouteModelD2Ev@Base 4:15.08.0
 _ZN6Marble15DMSInputHandler11setupMinMaxENS_9DimensionE@Base 4:15.08.0
 _ZN6Marble15DMSInputHandler19handleIntEditChangeEv@Base 4:15.08.0
 _ZN6Marble15DMSInputHandler20handleUIntEditChangeEv@Base 4:15.08.0
 _ZN6Marble15DMSInputHandler21handleFloatEditChangeEv@Base 4:15.08.0
 _ZN6Marble15DMSInputHandler7setupUiEv@Base 4:15.08.0
 _ZN6Marble15DMSInputHandler8setValueEd@Base 4:15.08.0
 _ZN6Marble15DMSInputHandlerD0Ev@Base 4:15.08.0
 _ZN6Marble15DMSInputHandlerD1Ev@Base 4:15.08.0
 _ZN6Marble15DMSInputHandlerD2Ev@Base 4:15.08.0
 _ZN6Marble15FetchPreviewJob3runERK10QByteArray@Base 4:15.08.0
 _ZN6Marble15FetchPreviewJobC1EPNS_20NewstuffModelPrivateEi@Base 4:15.08.0
 _ZN6Marble15FetchPreviewJobC2EPNS_20NewstuffModelPrivateEi@Base 4:15.08.0
 _ZN6Marble15FlyToEditWidget11editingDoneERK11QModelIndex@Base 4:15.08.0
 _ZN6Marble15FlyToEditWidget11qt_metacallEN11QMetaObject4CallEiPPv@Base 4:15.08.0
 _ZN6Marble15FlyToEditWidget11qt_metacastEPKc@Base 4:15.08.0
 _ZN6Marble15FlyToEditWidget11setEditableEb@Base 4:15.08.0
 _ZN6Marble15FlyToEditWidget12flyToElementEv@Base 4:15.08.0
 _ZN6Marble15FlyToEditWidget13setFirstFlyToERK21QPersistentModelIndex@Base 4:15.08.0
 _ZN6Marble15FlyToEditWidget16staticMetaObjectE@Base 4:15.08.0
 _ZN6Marble15FlyToEditWidget17updateCoordinatesEv@Base 4:15.08.0
 _ZN6Marble15FlyToEditWidget4saveEv@Base 4:15.08.0
 _ZN6Marble15FlyToEditWidgetC1ERK11QModelIndexPNS_12MarbleWidgetEP7QWidget@Base 4:15.08.0
 _ZN6Marble15FlyToEditWidgetC2ERK11QModelIndexPNS_12MarbleWidgetEP7QWidget@Base 4:15.08.0
 _ZN6Marble15FlyToEditWidgetD0Ev@Base 4:15.08.0
 _ZN6Marble15FlyToEditWidgetD1Ev@Base 4:15.08.0
 _ZN6Marble15FlyToEditWidgetD2Ev@Base 4:15.08.0
 _ZN6Marble15GeoDataAccuracyC1ENS0_5LevelEdd@Base 4:15.08.0
 _ZN6Marble15GeoDataAccuracyC2ENS0_5LevelEdd@Base 4:15.08.0
 _ZN6Marble15GeoDataDocument10setBaseUriERK7QString@Base 4:15.08.0
 _ZN6Marble15GeoDataDocument11addStyleMapERKNS_15GeoDataStyleMapE@Base 4:15.08.0
 _ZN6Marble15GeoDataDocument11removeStyleERK7QString@Base 4:15.08.0
 _ZN6Marble15GeoDataDocument11setFileNameERK7QString@Base 4:15.08.0
 _ZN6Marble15GeoDataDocument11setPropertyE7QString@Base 4:15.08.0
 _ZN6Marble15GeoDataDocument12removeSchemaERK7QString@Base 4:15.08.0
 _ZN6Marble15GeoDataDocument14removeStyleMapERK7QString@Base 4:15.08.0
 _ZN6Marble15GeoDataDocument15setDocumentRoleENS_12DocumentRoleE@Base 4:15.08.0
 _ZN6Marble15GeoDataDocument1pEv@Base 4:15.08.0
 _ZN6Marble15GeoDataDocument21setNetworkLinkControlERKNS_25GeoDataNetworkLinkControlE@Base 4:15.08.0
 _ZN6Marble15GeoDataDocument5styleERK7QString@Base 4:15.08.0
 _ZN6Marble15GeoDataDocument6schemaERK7QString@Base 4:15.08.0
 _ZN6Marble15GeoDataDocument6unpackER11QDataStream@Base 4:15.08.0
 _ZN6Marble15GeoDataDocument8addStyleERKNS_12GeoDataStyleE@Base 4:15.08.0
 _ZN6Marble15GeoDataDocument8styleMapERK7QString@Base 4:15.08.0
 _ZN6Marble15GeoDataDocument9addSchemaERKNS_13GeoDataSchemaE@Base 4:15.08.0
 _ZN6Marble15GeoDataDocumentC1ERKS0_@Base 4:15.08.0
 _ZN6Marble15GeoDataDocumentC1Ev@Base 4:15.08.0
 _ZN6Marble15GeoDataDocumentC2ERKS0_@Base 4:15.08.0
 _ZN6Marble15GeoDataDocumentC2Ev@Base 4:15.08.0
 _ZN6Marble15GeoDataDocumentD0Ev@Base 4:15.08.0
 _ZN6Marble15GeoDataDocumentD1Ev@Base 4:15.08.0
 _ZN6Marble15GeoDataDocumentD2Ev@Base 4:15.08.0
 _ZN6Marble15GeoDataGeometry10setExtrudeEb@Base 4:15.08.0
 _ZN6Marble15GeoDataGeometry15setAltitudeModeENS_12AltitudeModeE@Base 4:15.08.0
 _ZN6Marble15GeoDataGeometry6detachEv@Base 4:15.08.0
 _ZN6Marble15GeoDataGeometry6unpackER11QDataStream@Base 4:15.08.0
 _ZN6Marble15GeoDataGeometryC1EPNS_22GeoDataGeometryPrivateE@Base 4:15.08.0
 _ZN6Marble15GeoDataGeometryC1ERKS0_@Base 4:15.08.0
 _ZN6Marble15GeoDataGeometryC1Ev@Base 4:15.08.0
 _ZN6Marble15GeoDataGeometryC2EPNS_22GeoDataGeometryPrivateE@Base 4:15.08.0
 _ZN6Marble15GeoDataGeometryC2ERKS0_@Base 4:15.08.0
 _ZN6Marble15GeoDataGeometryC2Ev@Base 4:15.08.0
 _ZN6Marble15GeoDataGeometryD0Ev@Base 4:15.08.0
 _ZN6Marble15GeoDataGeometryD1Ev@Base 4:15.08.0
 _ZN6Marble15GeoDataGeometryD2Ev@Base 4:15.08.0
 _ZN6Marble15GeoDataGeometryaSERKS0_@Base 4:15.08.0
 _ZN6Marble15GeoDataItemIcon11setIconPathERK7QString@Base 4:15.08.0
 _ZN6Marble15GeoDataItemIcon7setIconERK6QImage@Base 4:15.08.0
 _ZN6Marble15GeoDataItemIcon8setStateERK6QFlagsINS0_13ItemIconStateEE@Base 4:15.08.0
 _ZN6Marble15GeoDataItemIconC1ERKS0_@Base 4:15.08.0
 _ZN6Marble15GeoDataItemIconC1Ev@Base 4:15.08.0
 _ZN6Marble15GeoDataItemIconC2ERKS0_@Base 4:15.08.0
 _ZN6Marble15GeoDataItemIconC2Ev@Base 4:15.08.0
 _ZN6Marble15GeoDataItemIconD0Ev@Base 4:15.08.0
 _ZN6Marble15GeoDataItemIconD1Ev@Base 4:15.08.0
 _ZN6Marble15GeoDataItemIconD2Ev@Base 4:15.08.0
 _ZN6Marble15GeoDataItemIconaSERKS0_@Base 4:15.08.0
 _ZN6Marble15GeoDataLocation11setAltitudeEd@Base 4:15.08.0
 _ZN6Marble15GeoDataLocation11setLatitudeEdNS_18GeoDataCoordinates4UnitE@Base 4:15.08.0
 _ZN6Marble15GeoDataLocation12setLongitudeEdNS_18GeoDataCoordinates4UnitE@Base 4:15.08.0
 _ZN6Marble15GeoDataLocationC1ERKS0_@Base 4:15.08.0
 _ZN6Marble15GeoDataLocationC1Ev@Base 4:15.08.0
 _ZN6Marble15GeoDataLocationC2ERKS0_@Base 4:15.08.0
 _ZN6Marble15GeoDataLocationC2Ev@Base 4:15.08.0
 _ZN6Marble15GeoDataLocationD0Ev@Base 4:15.08.0
 _ZN6Marble15GeoDataLocationD1Ev@Base 4:15.08.0
 _ZN6Marble15GeoDataLocationD2Ev@Base 4:15.08.0
 _ZN6Marble15GeoDataLocationaSERKS0_@Base 4:15.08.0
 _ZN6Marble15GeoDataPlaylist12addPrimitiveEPNS_20GeoDataTourPrimitiveE@Base 4:15.08.0
 _ZN6Marble15GeoDataPlaylist14swapPrimitivesEii@Base 4:15.08.0
 _ZN6Marble15GeoDataPlaylist15insertPrimitiveEiPNS_20GeoDataTourPrimitiveE@Base 4:15.08.0
 _ZN6Marble15GeoDataPlaylist17removePrimitiveAtEi@Base 4:15.08.0
 _ZN6Marble15GeoDataPlaylist9primitiveEi@Base 4:15.08.0
 _ZN6Marble15GeoDataPlaylistD0Ev@Base 4:15.08.0
 _ZN6Marble15GeoDataPlaylistD1Ev@Base 4:15.08.0
 _ZN6Marble15GeoDataPlaylistD2Ev@Base 4:15.08.0
 _ZN6Marble15GeoDataSoundCue15setDelayedStartEd@Base 4:15.08.0
 _ZN6Marble15GeoDataSoundCue7setHrefERK7QString@Base 4:15.08.0
 _ZN6Marble15GeoDataSoundCueC1Ev@Base 4:15.08.0
 _ZN6Marble15GeoDataSoundCueC2Ev@Base 4:15.08.0
 _ZN6Marble15GeoDataSoundCueD0Ev@Base 4:15.08.0
 _ZN6Marble15GeoDataSoundCueD1Ev@Base 4:15.08.0
 _ZN6Marble15GeoDataSoundCueD2Ev@Base 4:15.08.0
 _ZN6Marble15GeoDataStyleMap10setLastKeyE7QString@Base 4:15.08.0
 _ZN6Marble15GeoDataStyleMap6unpackER11QDataStream@Base 4:15.08.0
 _ZN6Marble15GeoDataStyleMapC1ERKS0_@Base 4:15.08.0
 _ZN6Marble15GeoDataStyleMapC1Ev@Base 4:15.08.0
 _ZN6Marble15GeoDataStyleMapC2ERKS0_@Base 4:15.08.0
 _ZN6Marble15GeoDataStyleMapC2Ev@Base 4:15.08.0
 _ZN6Marble15GeoDataStyleMapD0Ev@Base 4:15.08.0
 _ZN6Marble15GeoDataStyleMapD1Ev@Base 4:15.08.0
 _ZN6Marble15GeoDataStyleMapD2Ev@Base 4:15.08.0
 _ZN6Marble15GeoDataStyleMapaSERKS0_@Base 4:15.08.0
 _ZN6Marble15GeoDataTimeSpan3endEv@Base 4:15.08.0
 _ZN6Marble15GeoDataTimeSpan5beginEv@Base 4:15.08.0
 _ZN6Marble15GeoDataTimeSpan6setEndERKNS_16GeoDataTimeStampE@Base 4:15.08.0
 _ZN6Marble15GeoDataTimeSpan6unpackER11QDataStream@Base 4:15.08.0
 _ZN6Marble15GeoDataTimeSpan8setBeginERKNS_16GeoDataTimeStampE@Base 4:15.08.0
 _ZN6Marble15GeoDataTimeSpanC1ERKS0_@Base 4:15.08.0
 _ZN6Marble15GeoDataTimeSpanC1Ev@Base 4:15.08.0
 _ZN6Marble15GeoDataTimeSpanC2ERKS0_@Base 4:15.08.0
 _ZN6Marble15GeoDataTimeSpanC2Ev@Base 4:15.08.0
 _ZN6Marble15GeoDataTimeSpanD0Ev@Base 4:15.08.0
 _ZN6Marble15GeoDataTimeSpanD1Ev@Base 4:15.08.0
 _ZN6Marble15GeoDataTimeSpanD2Ev@Base 4:15.08.0
 _ZN6Marble15GeoDataTimeSpanaSERKS0_@Base 4:15.08.0
 _ZN6Marble15GeoGraphicsItem10setVisibleEb@Base 4:15.08.0
 _ZN6Marble15GeoGraphicsItem14setHighlightedEb@Base 4:15.08.0
 _ZN6Marble15GeoGraphicsItem15setLatLonAltBoxERKNS_19GeoDataLatLonAltBoxE@Base 4:15.08.0
 _ZN6Marble15GeoGraphicsItem15setMinZoomLevelEi@Base 4:15.08.0
 _ZN6Marble15GeoGraphicsItem17setHighlightStyleEPNS_12GeoDataStyleE@Base 4:15.08.0
 _ZN6Marble15GeoGraphicsItem1pEv@Base 4:15.08.0
 _ZN6Marble15GeoGraphicsItem7setFlagENS0_19GeoGraphicsItemFlagEb@Base 4:15.08.0
 _ZN6Marble15GeoGraphicsItem8setFlagsE6QFlagsINS0_19GeoGraphicsItemFlagEE@Base 4:15.08.0
 _ZN6Marble15GeoGraphicsItem8setStyleEPKNS_12GeoDataStyleE@Base 4:15.08.0
 _ZN6Marble15GeoGraphicsItem9setZValueEd@Base 4:15.08.0
 _ZN6Marble15GeoGraphicsItemC1EPKNS_14GeoDataFeatureE@Base 4:15.08.0
 _ZN6Marble15GeoGraphicsItemC2EPKNS_14GeoDataFeatureE@Base 4:15.08.0
 _ZN6Marble15GeoGraphicsItemD0Ev@Base 4:15.08.0
 _ZN6Marble15GeoGraphicsItemD1Ev@Base 4:15.08.0
 _ZN6Marble15GeoGraphicsItemD2Ev@Base 4:15.08.0
 _ZN6Marble15GeoSceneGeodata11setColorizeE7QString@Base 4:15.08.0
 _ZN6Marble15GeoSceneGeodata11setPropertyE7QString@Base 4:15.08.0
 _ZN6Marble15GeoSceneGeodata13setSourceFileE7QString@Base 4:15.08.0
 _ZN6Marble15GeoSceneGeodata6setPenERK4QPen@Base 4:15.08.0
 _ZN6Marble15GeoSceneGeodata8setAlphaERKd@Base 4:15.08.0
 _ZN6Marble15GeoSceneGeodata8setBrushERK6QBrush@Base 4:15.08.0
 _ZN6Marble15GeoSceneGeodata9setColorsERK5QListI6QColorE@Base 4:15.08.0
 _ZN6Marble15GeoSceneGeodataC1E7QString@Base 4:15.08.0
 _ZN6Marble15GeoSceneGeodataC2E7QString@Base 4:15.08.0
 _ZN6Marble15GeoSceneGeodataD0Ev@Base 4:15.08.0
 _ZN6Marble15GeoSceneGeodataD1Ev@Base 4:15.08.0
 _ZN6Marble15GeoSceneGeodataD2Ev@Base 4:15.08.0
 _ZN6Marble15GeoSceneLicense10setLicenseERK7QString@Base 4:15.08.0
 _ZN6Marble15GeoSceneLicense14setAttributionENS0_11AttributionE@Base 4:15.08.0
 _ZN6Marble15GeoSceneLicense15setShortLicenseERK7QString@Base 4:15.08.0
 _ZN6Marble15GeoSceneLicenseC1Ev@Base 4:15.08.0
 _ZN6Marble15GeoSceneLicenseC2Ev@Base 4:15.08.0
 _ZN6Marble15GeoSceneLicenseD0Ev@Base 4:15.08.0
 _ZN6Marble15GeoSceneLicenseD1Ev@Base 4:15.08.0
 _ZN6Marble15GeoSceneLicenseD2Ev@Base 4:15.08.0
 _ZN6Marble15GeoScenePalette7setFileERK7QString@Base 4:15.08.0
 _ZN6Marble15GeoScenePalette7setTypeERK7QString@Base 4:15.08.0
 _ZN6Marble15GeoScenePaletteC1ERK7QStringS3_@Base 4:15.08.0
 _ZN6Marble15GeoScenePaletteC2ERK7QStringS3_@Base 4:15.08.0
 _ZN6Marble15GeoScenePaletteD0Ev@Base 4:15.08.0
 _ZN6Marble15GeoScenePaletteD1Ev@Base 4:15.08.0
 _ZN6Marble15GeoScenePaletteD2Ev@Base 4:15.08.0
 _ZN6Marble15GeoSceneSection10setHeadingERK7QString@Base 4:15.08.0
 _ZN6Marble15GeoSceneSection10setSpacingEi@Base 4:15.08.0
 _ZN6Marble15GeoSceneSection12setCheckableEb@Base 4:15.08.0
 _ZN6Marble15GeoSceneSection12setConnectToERK7QString@Base 4:15.08.0
 _ZN6Marble15GeoSceneSection4itemERK7QString@Base 4:15.08.0
 _ZN6Marble15GeoSceneSection7addItemEPNS_12GeoSceneItemE@Base 4:15.08.0
 _ZN6Marble15GeoSceneSection8setRadioERK7QString@Base 4:15.08.0
 _ZN6Marble15GeoSceneSectionC1ERK7QString@Base 4:15.08.0
 _ZN6Marble15GeoSceneSectionC2ERK7QString@Base 4:15.08.0
 _ZN6Marble15GeoSceneSectionD0Ev@Base 4:15.08.0
 _ZN6Marble15GeoSceneSectionD1Ev@Base 4:15.08.0
 _ZN6Marble15GeoSceneSectionD2Ev@Base 4:15.08.0
 _ZN6Marble15KmlLodTagWriterD0Ev@Base 4:15.08.0
 _ZN6Marble15KmlLodTagWriterD1Ev@Base 4:15.08.0
 _ZN6Marble15KmlLodTagWriterD2Ev@Base 4:15.08.0
 _ZN6Marble15LatLonBoxWidget11qt_metacallEN11QMetaObject4CallEiPPv@Base 4:15.08.0
 _ZN6Marble15LatLonBoxWidget11qt_metacastEPKc@Base 4:15.08.0
 _ZN6Marble15LatLonBoxWidget12setLatLonBoxERKNS_16GeoDataLatLonBoxE@Base 4:15.08.0
 _ZN6Marble15LatLonBoxWidget12valueChangedEv@Base 4:15.08.0
 _ZN6Marble15LatLonBoxWidget16staticMetaObjectE@Base 4:15.08.0
 _ZN6Marble15LatLonBoxWidget19updateLatSingleStepEv@Base 4:15.08.0
 _ZN6Marble15LatLonBoxWidget19updateLonSingleStepEv@Base 4:15.08.0
 _ZN6Marble15LatLonBoxWidget7PrivateC1EP7QWidget@Base 4:15.08.0
 _ZN6Marble15LatLonBoxWidget7PrivateC2EP7QWidget@Base 4:15.08.0
 _ZN6Marble15LatLonBoxWidgetC1EP7QWidget6QFlagsIN2Qt10WindowTypeEE@Base 4:15.08.0
 _ZN6Marble15LatLonBoxWidgetC2EP7QWidget6QFlagsIN2Qt10WindowTypeEE@Base 4:15.08.0
 _ZN6Marble15LatLonBoxWidgetD0Ev@Base 4:15.08.0
 _ZN6Marble15LatLonBoxWidgetD1Ev@Base 4:15.08.0
 _ZN6Marble15LatLonBoxWidgetD2Ev@Base 4:15.08.0
 _ZN6Marble15LightenBlendingD0Ev@Base 4:15.08.0
 _ZN6Marble15LightenBlendingD1Ev@Base 4:15.08.0
 _ZN6Marble15LightenBlendingD2Ev@Base 4:15.08.0
 _ZN6Marble15MapItemDelegate11editorEventEP6QEventP18QAbstractItemModelRK20QStyleOptionViewItemRK11QModelIndex@Base 4:15.08.0
 _ZN6Marble15MapItemDelegate4textERK11QModelIndex@Base 4:15.08.0
 _ZN6Marble15MapItemDelegateC1EP9QListViewPNS_13NewstuffModelEPNS_12MarbleWidgetE@Base 4:15.08.0
 _ZN6Marble15MapItemDelegateC2EP9QListViewPNS_13NewstuffModelEPNS_12MarbleWidgetE@Base 4:15.08.0
 _ZN6Marble15MapItemDelegateD0Ev@Base 4:15.08.0
 _ZN6Marble15MapItemDelegateD1Ev@Base 4:15.08.0
 _ZN6Marble15MapItemDelegateD2Ev@Base 4:15.08.0
 _ZN6Marble15MapThemeManager11qt_metacallEN11QMetaObject4CallEiPPv@Base 4:15.08.0
 _ZN6Marble15MapThemeManager11qt_metacastEPKc@Base 4:15.08.0
 _ZN6Marble15MapThemeManager12loadMapThemeERK7QString@Base 4:15.08.0
 _ZN6Marble15MapThemeManager13mapThemeModelEv@Base 4:15.08.0
 _ZN6Marble15MapThemeManager13themesChangedEv@Base 4:15.08.0
 _ZN6Marble15MapThemeManager14deleteMapThemeERK7QString@Base 4:15.08.0
 _ZN6Marble15MapThemeManager16staticMetaObjectE@Base 4:15.08.0
 _ZN6Marble15MapThemeManager20celestialBodiesModelEv@Base 4:15.08.0
 _ZN6Marble15MapThemeManager25createMapThemeFromOverlayEPKNS_19GeoDataPhotoOverlayE@Base 4:15.08.0
 _ZN6Marble15MapThemeManager7Private10watchPathsEv@Base 4:15.08.0
 _ZN6Marble15MapThemeManager7Private11fileChangedERK7QString@Base 4:15.08.0
 _ZN6Marble15MapThemeManager7Private12pathsToWatchEv@Base 4:15.08.0
 _ZN6Marble15MapThemeManager7Private13findMapThemesERK7QString@Base 4:15.08.0
 _ZN6Marble15MapThemeManager7Private13findMapThemesEv@Base 4:15.08.0
 _ZN6Marble15MapThemeManager7Private15deleteDirectoryERK7QString@Base 4:15.08.0
 _ZN6Marble15MapThemeManager7Private16addMapThemePathsERK7QStringR11QStringList@Base 4:15.08.0
 _ZN6Marble15MapThemeManager7Private16directoryChangedERK7QString@Base 4:15.08.0
 _ZN6Marble15MapThemeManager7Private16loadMapThemeFileERK7QString@Base 4:15.08.0
 _ZN6Marble15MapThemeManager7Private17createMapThemeRowERK7QString@Base 4:15.08.0
 _ZN6Marble15MapThemeManager7Private19updateMapThemeModelEv@Base 4:15.08.0
 _ZN6Marble15MapThemeManager7PrivateC1EPS0_@Base 4:15.08.0
 _ZN6Marble15MapThemeManager7PrivateC2EPS0_@Base 4:15.08.0
 _ZN6Marble15MapThemeManager7PrivateD1Ev@Base 4:15.08.0
 _ZN6Marble15MapThemeManager7PrivateD2Ev@Base 4:15.08.0
 _ZN6Marble15MapThemeManagerC1EP7QObject@Base 4:15.08.0
 _ZN6Marble15MapThemeManagerC2EP7QObject@Base 4:15.08.0
 _ZN6Marble15MapThemeManagerD0Ev@Base 4:15.08.0
 _ZN6Marble15MapThemeManagerD1Ev@Base 4:15.08.0
 _ZN6Marble15MapThemeManagerD2Ev@Base 4:15.08.0
 _ZN6Marble15MarbleNavigator10changeZoomEi@Base 4:15.08.0
 _ZN6Marble15MarbleNavigator11qt_metacallEN11QMetaObject4CallEiPPv@Base 4:15.08.0
 _ZN6Marble15MarbleNavigator11qt_metacastEPKc@Base 4:15.08.0
 _ZN6Marble15MarbleNavigator11resizeEventEP12QResizeEvent@Base 4:15.08.0
 _ZN6Marble15MarbleNavigator11zoomChangedEi@Base 4:15.08.0
 _ZN6Marble15MarbleNavigator16staticMetaObjectE@Base 4:15.08.0
 _ZN6Marble15MarbleNavigator6goHomeEv@Base 4:15.08.0
 _ZN6Marble15MarbleNavigator6moveUpEv@Base 4:15.08.0
 _ZN6Marble15MarbleNavigator6zoomInEv@Base 4:15.08.0
 _ZN6Marble15MarbleNavigator7zoomOutEv@Base 4:15.08.0
 _ZN6Marble15MarbleNavigator8moveDownEv@Base 4:15.08.0
 _ZN6Marble15MarbleNavigator8moveLeftEv@Base 4:15.08.0
 _ZN6Marble15MarbleNavigator9moveRightEv@Base 4:15.08.0
 _ZN6Marble15MarbleNavigatorC1EP7QWidget@Base 4:15.08.0
 _ZN6Marble15MarbleNavigatorC2EP7QWidget@Base 4:15.08.0
 _ZN6Marble15MarbleNavigatorD0Ev@Base 4:15.08.0
 _ZN6Marble15MarbleNavigatorD1Ev@Base 4:15.08.0
 _ZN6Marble15MarbleNavigatorD2Ev@Base 4:15.08.0
 _ZN6Marble15MarbleQuickItem10classBeginEv@Base 4:15.08.0
 _ZN6Marble15MarbleQuickItem11qt_metacallEN11QMetaObject4CallEiPPv@Base 4:15.08.0
 _ZN6Marble15MarbleQuickItem11qt_metacastEPKc@Base 4:15.08.0
 _ZN6Marble15MarbleQuickItem11setMapWidthEi@Base 4:15.08.0
 _ZN6Marble15MarbleQuickItem11setShowGridEb@Base 4:15.08.0
 _ZN6Marble15MarbleQuickItem12inputHandlerEv@Base 4:15.08.0
 _ZN6Marble15MarbleQuickItem12setMapHeightEi@Base 4:15.08.0
 _ZN6Marble15MarbleQuickItem13setMapThemeIdE7QString@Base 4:15.08.0
 _ZN6Marble15MarbleQuickItem13setProjectionENS0_10ProjectionE@Base 4:15.08.0
 _ZN6Marble15MarbleQuickItem13setShowCloudsEb@Base 4:15.08.0
 _ZN6Marble15MarbleQuickItem14setShowCompassEb@Base 4:15.08.0
 _ZN6Marble15MarbleQuickItem15mapWidthChangedEi@Base 4:15.08.0
 _ZN6Marble15MarbleQuickItem15setShowScaleBarEb@Base 4:15.08.0
 _ZN6Marble15MarbleQuickItem15showGridChangedEb@Base 4:15.08.0
 _ZN6Marble15MarbleQuickItem16mapHeightChangedEi@Base 4:15.08.0
 _ZN6Marble15MarbleQuickItem16setShowFrameRateEb@Base 4:15.08.0
 _ZN6Marble15MarbleQuickItem16staticMetaObjectE@Base 4:15.08.0
 _ZN6Marble15MarbleQuickItem17componentCompleteEv@Base 4:15.08.0
 _ZN6Marble15MarbleQuickItem17layersEventFilterEP7QObjectP6QEvent@Base 4:15.08.0
 _ZN6Marble15MarbleQuickItem17mapThemeIdChangedE7QString@Base 4:15.08.0
 _ZN6Marble15MarbleQuickItem17projectionChangedENS0_10ProjectionE@Base 4:15.08.0
 _ZN6Marble15MarbleQuickItem17setShowAtmosphereEb@Base 4:15.08.0
 _ZN6Marble15MarbleQuickItem17setShowBackgroundEb@Base 4:15.08.0
 _ZN6Marble15MarbleQuickItem17setShowCrosshairsEb@Base 4:15.08.0
 _ZN6Marble15MarbleQuickItem17showCloudsChangedEb@Base 4:15.08.0
 _ZN6Marble15MarbleQuickItem18setShowOtherPlacesEb@Base 4:15.08.0
 _ZN6Marble15MarbleQuickItem18setShowOverviewMapEb@Base 4:15.08.0
 _ZN6Marble15MarbleQuickItem18showCompassChangedEb@Base 4:15.08.0
 _ZN6Marble15MarbleQuickItem19showScaleBarChangedEb@Base 4:15.08.0
 _ZN6Marble15MarbleQuickItem20showFrameRateChangedEb@Base 4:15.08.0
 _ZN6Marble15MarbleQuickItem21showAtmosphereChangedEb@Base 4:15.08.0
 _ZN6Marble15MarbleQuickItem21showBackgroundChangedEb@Base 4:15.08.0
 _ZN6Marble15MarbleQuickItem21showCrosshairsChangedEb@Base 4:15.08.0
 _ZN6Marble15MarbleQuickItem22showOtherPlacesChangedEb@Base 4:15.08.0
 _ZN6Marble15MarbleQuickItem22showOverviewMapChangedEb@Base 4:15.08.0
 _ZN6Marble15MarbleQuickItem3mapEv@Base 4:15.08.0
 _ZN6Marble15MarbleQuickItem5modelEv@Base 4:15.08.0
 _ZN6Marble15MarbleQuickItem5paintEP8QPainter@Base 4:15.08.0
 _ZN6Marble15MarbleQuickItem5pinchE7QPointFdN2Qt12GestureStateE@Base 4:15.08.0
 _ZN6Marble15MarbleQuickItem6goHomeEv@Base 4:15.08.0
 _ZN6Marble15MarbleQuickItem6zoomInENS_9FlyToModeE@Base 4:15.08.0
 _ZN6Marble15MarbleQuickItem7setZoomEiNS_9FlyToModeE@Base 4:15.08.0
 _ZN6Marble15MarbleQuickItem7zoomOutENS_9FlyToModeE@Base 4:15.08.0
 _ZN6Marble15MarbleQuickItem8centerOnERKNS_16GeoDataLatLonBoxEb@Base 4:15.08.0
 _ZN6Marble15MarbleQuickItem8centerOnERKNS_16GeoDataPlacemarkEb@Base 4:15.08.0
 _ZN6Marble15MarbleQuickItem9resizeMapEv@Base 4:15.08.0
 _ZN6Marble15MarbleQuickItemC1EP10QQuickItem@Base 4:15.08.0
 _ZN6Marble15MarbleQuickItemC2EP10QQuickItem@Base 4:15.08.0
 _ZN6Marble15MarbleQuickItemD0Ev@Base 4:15.08.0
 _ZN6Marble15MarbleQuickItemD1Ev@Base 4:15.08.0
 _ZN6Marble15MarbleQuickItemD2Ev@Base 4:15.08.0
 _ZN6Marble15OsmServerLayoutC1EPNS_13GeoSceneTiledE@Base 4:15.08.0
 _ZN6Marble15OsmServerLayoutC2EPNS_13GeoSceneTiledE@Base 4:15.08.0
 _ZN6Marble15OsmServerLayoutD0Ev@Base 4:15.08.0
 _ZN6Marble15OsmServerLayoutD1Ev@Base 4:15.08.0
 _ZN6Marble15OsmServerLayoutD2Ev@Base 4:15.08.0
 _ZN6Marble15OverlayBlendingD0Ev@Base 4:15.08.0
 _ZN6Marble15OverlayBlendingD1Ev@Base 4:15.08.0
 _ZN6Marble15OverlayBlendingD2Ev@Base 4:15.08.0
 _ZN6Marble15PlacemarkLayout10styleResetEv@Base 4:15.08.0
 _ZN6Marble15PlacemarkLayout11qt_metacallEN11QMetaObject4CallEiPPv@Base 4:15.08.0
 _ZN6Marble15PlacemarkLayout11qt_metacastEPKc@Base 4:15.08.0
 _ZN6Marble15PlacemarkLayout12setShowMariaEb@Base 4:15.08.0
 _ZN6Marble15PlacemarkLayout12visibleTilesEPKNS_14ViewportParamsE@Base 4:15.08.0
 _ZN6Marble15PlacemarkLayout13addPlacemarksE11QModelIndexii@Base 4:15.08.0
 _ZN6Marble15PlacemarkLayout13repaintNeededEv@Base 4:15.08.0
 _ZN6Marble15PlacemarkLayout13setShowCitiesEb@Base 4:15.08.0
 _ZN6Marble15PlacemarkLayout13setShowPlacesEb@Base 4:15.08.0
 _ZN6Marble15PlacemarkLayout14generateLayoutEPKNS_14ViewportParamsE@Base 4:15.08.0
 _ZN6Marble15PlacemarkLayout14resetCacheDataEv@Base 4:15.08.0
 _ZN6Marble15PlacemarkLayout14setShowCratersEb@Base 4:15.08.0
 _ZN6Marble15PlacemarkLayout14setShowTerrainEb@Base 4:15.08.0
 _ZN6Marble15PlacemarkLayout15layoutPlacemarkEPKNS_16GeoDataPlacemarkEddb@Base 4:15.08.0
 _ZN6Marble15PlacemarkLayout16removePlacemarksE11QModelIndexii@Base 4:15.08.0
 _ZN6Marble15PlacemarkLayout16staticMetaObjectE@Base 4:15.08.0
 _ZN6Marble15PlacemarkLayout16whichPlacemarkAtERK6QPoint@Base 4:15.08.0
 _ZN6Marble15PlacemarkLayout17requestStyleResetEv@Base 4:15.08.0
 _ZN6Marble15PlacemarkLayout18setShowOtherPlacesEb@Base 4:15.08.0
 _ZN6Marble15PlacemarkLayout19setShowLandingSitesEb@Base 4:15.08.0
 _ZN6Marble15PlacemarkLayoutC1EP18QAbstractItemModelP19QItemSelectionModelPNS_11MarbleClockEP7QObject@Base 4:15.08.0
 _ZN6Marble15PlacemarkLayoutC2EP18QAbstractItemModelP19QItemSelectionModelPNS_11MarbleClockEP7QObject@Base 4:15.08.0
 _ZN6Marble15PlacemarkLayoutD0Ev@Base 4:15.08.0
 _ZN6Marble15PlacemarkLayoutD1Ev@Base 4:15.08.0
 _ZN6Marble15PlacemarkLayoutD2Ev@Base 4:15.08.0
 _ZN6Marble15PluginInterfaceD0Ev@Base 4:15.08.0
 _ZN6Marble15PluginInterfaceD1Ev@Base 4:15.08.0
 _ZN6Marble15PluginInterfaceD2Ev@Base 4:15.08.0
 _ZN6Marble15RoutingWaypointC1ERKNS_12RoutingPointENS0_12JunctionTypeERK7QStringS7_iS7_@Base 4:15.08.0
 _ZN6Marble15RoutingWaypointC1Ev@Base 4:15.08.0
 _ZN6Marble15RoutingWaypointC2ERKNS_12RoutingPointENS0_12JunctionTypeERK7QStringS7_iS7_@Base 4:15.08.0
 _ZN6Marble15RoutingWaypointC2Ev@Base 4:15.08.0
 _ZN6Marble15RoutingWaypointD1Ev@Base 4:15.08.0
 _ZN6Marble15RoutingWaypointD2Ev@Base 4:15.08.0
 _ZN6Marble15TextureBlendingD0Ev@Base 4:15.08.0
 _ZN6Marble15TextureBlendingD1Ev@Base 4:15.08.0
 _ZN6Marble15TextureBlendingD2Ev@Base 4:15.08.0
 _ZN6Marble15TmsServerLayoutC1EPNS_13GeoSceneTiledE@Base 4:15.08.0
 _ZN6Marble15TmsServerLayoutC2EPNS_13GeoSceneTiledE@Base 4:15.08.0
 _ZN6Marble15TmsServerLayoutD0Ev@Base 4:15.08.0
 _ZN6Marble15TmsServerLayoutD1Ev@Base 4:15.08.0
 _ZN6Marble15TmsServerLayoutD2Ev@Base 4:15.08.0
 _ZN6Marble15VectorTileLayer11qt_metacallEN11QMetaObject4CallEiPPv@Base 4:15.08.0
 _ZN6Marble15VectorTileLayer11qt_metacastEPKc@Base 4:15.08.0
 _ZN6Marble15VectorTileLayer11setMapThemeERK7QVectorIPKNS_18GeoSceneVectorTileEEPKNS_13GeoSceneGroupE@Base 4:15.08.0
 _ZN6Marble15VectorTileLayer16staticMetaObjectE@Base 4:15.08.0
 _ZN6Marble15VectorTileLayer5resetEv@Base 4:15.08.0
 _ZN6Marble15VectorTileLayer6renderEPNS_10GeoPainterEPNS_14ViewportParamsERK7QStringPNS_13GeoSceneLayerE@Base 4:15.08.0
 _ZN6Marble15VectorTileLayer7Private19updateTextureLayersEv@Base 4:15.08.0
 _ZN6Marble15VectorTileLayer7PrivateC1EPNS_19HttpDownloadManagerEPKNS_13PluginManagerEPS0_PNS_16GeoDataTreeModelE@Base 4:15.08.0
 _ZN6Marble15VectorTileLayer7PrivateC2EPNS_19HttpDownloadManagerEPKNS_13PluginManagerEPS0_PNS_16GeoDataTreeModelE@Base 4:15.08.0
 _ZN6Marble15VectorTileLayer7PrivateD1Ev@Base 4:15.08.0
 _ZN6Marble15VectorTileLayer7PrivateD2Ev@Base 4:15.08.0
 _ZN6Marble15VectorTileLayerC1EPNS_19HttpDownloadManagerEPKNS_13PluginManagerEPNS_16GeoDataTreeModelE@Base 4:15.08.0
 _ZN6Marble15VectorTileLayerC2EPNS_19HttpDownloadManagerEPKNS_13PluginManagerEPNS_16GeoDataTreeModelE@Base 4:15.08.0
 _ZN6Marble15VectorTileLayerD0Ev@Base 4:15.08.0
 _ZN6Marble15VectorTileLayerD1Ev@Base 4:15.08.0
 _ZN6Marble15VectorTileLayerD2Ev@Base 4:15.08.0
 _ZN6Marble15VectorTileModel10updateTileERKNS_6TileIdEPNS_15GeoDataDocumentE@Base 4:15.08.0
 _ZN6Marble15VectorTileModel11qt_metacallEN11QMetaObject4CallEiPPv@Base 4:15.08.0
 _ZN6Marble15VectorTileModel11qt_metacastEPKc@Base 4:15.08.0
 _ZN6Marble15VectorTileModel11setViewportERKNS_16GeoDataLatLonBoxEi@Base 4:15.08.0
 _ZN6Marble15VectorTileModel11setViewportEijjjj@Base 4:15.08.0
 _ZN6Marble15VectorTileModel13CacheDocumentC1EPNS_15GeoDataDocumentEPNS_16GeoDataTreeModelE@Base 4:15.08.0
 _ZN6Marble15VectorTileModel13CacheDocumentC2EPNS_15GeoDataDocumentEPNS_16GeoDataTreeModelE@Base 4:15.08.0
 _ZN6Marble15VectorTileModel13CacheDocumentD1Ev@Base 4:15.08.0
 _ZN6Marble15VectorTileModel13CacheDocumentD2Ev@Base 4:15.08.0
 _ZN6Marble15VectorTileModel13tileCompletedERKNS_6TileIdE@Base 4:15.08.0
 _ZN6Marble15VectorTileModel16staticMetaObjectE@Base 4:15.08.0
 _ZN6Marble15VectorTileModel5clearEv@Base 4:15.08.0
 _ZN6Marble15VectorTileModel9lat2tileYEdj@Base 4:15.08.0
 _ZN6Marble15VectorTileModel9lon2tileXEdj@Base 4:15.08.0
 _ZN6Marble15VectorTileModelC1EPNS_10TileLoaderEPKNS_18GeoSceneVectorTileEPNS_16GeoDataTreeModelEP11QThreadPool@Base 4:15.08.0
 _ZN6Marble15VectorTileModelC2EPNS_10TileLoaderEPKNS_18GeoSceneVectorTileEPNS_16GeoDataTreeModelEP11QThreadPool@Base 4:15.08.0
 _ZN6Marble15VectorTileModelD0Ev@Base 4:15.08.0
 _ZN6Marble15VectorTileModelD1Ev@Base 4:15.08.0
 _ZN6Marble15VectorTileModelD2Ev@Base 4:15.08.0
 _ZN6Marble15WmsServerLayoutC1EPNS_13GeoSceneTiledE@Base 4:15.08.0
 _ZN6Marble15WmsServerLayoutC2EPNS_13GeoSceneTiledE@Base 4:15.08.0
 _ZN6Marble15WmsServerLayoutD0Ev@Base 4:15.08.0
 _ZN6Marble15WmsServerLayoutD1Ev@Base 4:15.08.0
 _ZN6Marble15WmsServerLayoutD2Ev@Base 4:15.08.0
 _ZN6Marble15averageTileSizeE@Base 4:15.08.0
 _ZN6Marble16AdditiveBlendingD0Ev@Base 4:15.08.0
 _ZN6Marble16AdditiveBlendingD1Ev@Base 4:15.08.0
 _ZN6Marble16AdditiveBlendingD2Ev@Base 4:15.08.0
 _ZN6Marble16CloudSyncManager11qt_metacallEN11QMetaObject4CallEiPPv@Base 4:15.08.0
 _ZN6Marble16CloudSyncManager11qt_metacastEPKc@Base 4:15.08.0
 _ZN6Marble16CloudSyncManager13apiUrlChangedERK4QUrl@Base 4:15.08.0
 _ZN6Marble16CloudSyncManager13statusChangedERK7QString@Base 4:15.08.0
 _ZN6Marble16CloudSyncManager14setSyncEnabledEb@Base 4:15.08.0
 _ZN6Marble16CloudSyncManager14setWorkOfflineEb@Base 4:15.08.0
 _ZN6Marble16CloudSyncManager16routeSyncManagerEv@Base 4:15.08.0
 _ZN6Marble16CloudSyncManager16staticMetaObjectE@Base 4:15.08.0
 _ZN6Marble16CloudSyncManager17setOwncloudServerERK7QString@Base 4:15.08.0
 _ZN6Marble16CloudSyncManager18syncEnabledChangedEb@Base 4:15.08.0
 _ZN6Marble16CloudSyncManager18workOfflineChangedEb@Base 4:15.08.0
 _ZN6Marble16CloudSyncManager19bookmarkSyncManagerEv@Base 4:15.08.0
 _ZN6Marble16CloudSyncManager19setOwncloudPasswordERK7QString@Base 4:15.08.0
 _ZN6Marble16CloudSyncManager19setOwncloudUsernameERK7QString@Base 4:15.08.0
 _ZN6Marble16CloudSyncManager21owncloudServerChangedERK7QString@Base 4:15.08.0
 _ZN6Marble16CloudSyncManager22setOwncloudCredentialsERK7QStringS3_S3_@Base 4:15.08.0
 _ZN6Marble16CloudSyncManager23owncloudPasswordChangedERK7QString@Base 4:15.08.0
 _ZN6Marble16CloudSyncManager23owncloudUsernameChangedERK7QString@Base 4:15.08.0
 _ZN6Marble16CloudSyncManager23routeSyncManagerChangedEv@Base 4:15.08.0
 _ZN6Marble16CloudSyncManager26bookmarkSyncManagerChangedEv@Base 4:15.08.0
 _ZN6Marble16CloudSyncManager7PrivateC1Ev@Base 4:15.08.0
 _ZN6Marble16CloudSyncManager7PrivateC2Ev@Base 4:15.08.0
 _ZN6Marble16CloudSyncManager7PrivateD1Ev@Base 4:15.08.0
 _ZN6Marble16CloudSyncManager7PrivateD2Ev@Base 4:15.08.0
 _ZN6Marble16CloudSyncManager9setStatusERK7QStringNS0_6StatusE@Base 4:15.08.0
 _ZN6Marble16CloudSyncManagerC1EP7QObject@Base 4:15.08.0
 _ZN6Marble16CloudSyncManagerC2EP7QObject@Base 4:15.08.0
 _ZN6Marble16CloudSyncManagerD0Ev@Base 4:15.08.0
 _ZN6Marble16CloudSyncManagerD1Ev@Base 4:15.08.0
 _ZN6Marble16CloudSyncManagerD2Ev@Base 4:15.08.0
 _ZN6Marble16DgmlMapTagWriterD0Ev@Base 4:15.08.0
 _ZN6Marble16DgmlMapTagWriterD1Ev@Base 4:15.08.0
 _ZN6Marble16DgmlMapTagWriterD2Ev@Base 4:15.08.0
 _ZN6Marble16DownloadQueueSet10jobRemovedEv@Base 4:15.08.0
 _ZN6Marble16DownloadQueueSet11activateJobEPNS_7HttpJobE@Base 4:15.08.0
 _ZN6Marble16DownloadQueueSet11jobFinishedERK10QByteArrayRK7QStringS6_@Base 4:15.08.0
 _ZN6Marble16DownloadQueueSet11qt_metacallEN11QMetaObject4CallEiPPv@Base 4:15.08.0
 _ZN6Marble16DownloadQueueSet11qt_metacastEPKc@Base 4:15.08.0
 _ZN6Marble16DownloadQueueSet11redirectJobEPNS_7HttpJobERK4QUrl@Base 4:15.08.0
 _ZN6Marble16DownloadQueueSet12activateJobsEv@Base 4:15.08.0
 _ZN6Marble16DownloadQueueSet13deactivateJobEPNS_7HttpJobE@Base 4:15.08.0
 _ZN6Marble16DownloadQueueSet13jobRedirectedERK4QUrlRK7QStringS6_NS_13DownloadUsageE@Base 4:15.08.0
 _ZN6Marble16DownloadQueueSet15progressChangedEii@Base 4:15.08.0
 _ZN6Marble16DownloadQueueSet16staticMetaObjectE@Base 4:15.08.0
 _ZN6Marble16DownloadQueueSet17setDownloadPolicyERKNS_14DownloadPolicyE@Base 4:15.08.0
 _ZN6Marble16DownloadQueueSet19retryOrBlacklistJobEPNS_7HttpJobEi@Base 4:15.08.0
 _ZN6Marble16DownloadQueueSet6addJobEPNS_7HttpJobE@Base 4:15.08.0
 _ZN6Marble16DownloadQueueSet8jobAddedEv@Base 4:15.08.0
 _ZN6Marble16DownloadQueueSet8jobRetryEv@Base 4:15.08.0
 _ZN6Marble16DownloadQueueSet9finishJobEPNS_7HttpJobERK10QByteArray@Base 4:15.08.0
 _ZN6Marble16DownloadQueueSet9purgeJobsEv@Base 4:15.08.0
 _ZN6Marble16DownloadQueueSet9retryJobsEv@Base 4:15.08.0
 _ZN6Marble16DownloadQueueSetC1EP7QObject@Base 4:15.08.0
 _ZN6Marble16DownloadQueueSetC1ERKNS_14DownloadPolicyEP7QObject@Base 4:15.08.0
 _ZN6Marble16DownloadQueueSetC2EP7QObject@Base 4:15.08.0
 _ZN6Marble16DownloadQueueSetC2ERKNS_14DownloadPolicyEP7QObject@Base 4:15.08.0
 _ZN6Marble16DownloadQueueSetD0Ev@Base 4:15.08.0
 _ZN6Marble16DownloadQueueSetD1Ev@Base 4:15.08.0
 _ZN6Marble16DownloadQueueSetD2Ev@Base 4:15.08.0
 _ZN6Marble16GeoDataContainer1pEv@Base 4:15.08.0
 _ZN6Marble16GeoDataContainer2atEi@Base 4:15.08.0
 _ZN6Marble16GeoDataContainer3endEv@Base 4:15.08.0
 _ZN6Marble16GeoDataContainer4lastEv@Base 4:15.08.0
 _ZN6Marble16GeoDataContainer5beginEv@Base 4:15.08.0
 _ZN6Marble16GeoDataContainer5childEi@Base 4:15.08.0
 _ZN6Marble16GeoDataContainer5clearEv@Base 4:15.08.0
 _ZN6Marble16GeoDataContainer5firstEv@Base 4:15.08.0
 _ZN6Marble16GeoDataContainer6appendEPNS_14GeoDataFeatureE@Base 4:15.08.0
 _ZN6Marble16GeoDataContainer6insertEPNS_14GeoDataFeatureEi@Base 4:15.08.0
 _ZN6Marble16GeoDataContainer6insertEiPNS_14GeoDataFeatureE@Base 4:15.08.0
 _ZN6Marble16GeoDataContainer6removeEi@Base 4:15.08.0
 _ZN6Marble16GeoDataContainer6unpackER11QDataStream@Base 4:15.08.0
 _ZN6Marble16GeoDataContainerC1EPNS_23GeoDataContainerPrivateE@Base 4:15.08.0
 _ZN6Marble16GeoDataContainerC1ERKS0_@Base 4:15.08.0
 _ZN6Marble16GeoDataContainerC1Ev@Base 4:15.08.0
 _ZN6Marble16GeoDataContainerC2EPNS_23GeoDataContainerPrivateE@Base 4:15.08.0
 _ZN6Marble16GeoDataContainerC2ERKS0_@Base 4:15.08.0
 _ZN6Marble16GeoDataContainerC2Ev@Base 4:15.08.0
 _ZN6Marble16GeoDataContainerD0Ev@Base 4:15.08.0
 _ZN6Marble16GeoDataContainerD1Ev@Base 4:15.08.0
 _ZN6Marble16GeoDataContainerD2Ev@Base 4:15.08.0
 _ZN6Marble16GeoDataIconStyle10setHeadingEi@Base 4:15.08.0
 _ZN6Marble16GeoDataIconStyle10setHotSpotERK7QPointFNS_14GeoDataHotSpot5UnitsES5_@Base 4:15.08.0
 _ZN6Marble16GeoDataIconStyle11setIconPathERK7QString@Base 4:15.08.0
 _ZN6Marble16GeoDataIconStyle6unpackER11QDataStream@Base 4:15.08.0
 _ZN6Marble16GeoDataIconStyle7setIconERK6QImage@Base 4:15.08.0
 _ZN6Marble16GeoDataIconStyle8setScaleERKf@Base 4:15.08.0
 _ZN6Marble16GeoDataIconStyleC1ERK6QImageRK7QPointF@Base 4:15.08.0
 _ZN6Marble16GeoDataIconStyleC1ERKS0_@Base 4:15.08.0
 _ZN6Marble16GeoDataIconStyleC1Ev@Base 4:15.08.0
 _ZN6Marble16GeoDataIconStyleC2ERK6QImageRK7QPointF@Base 4:15.08.0
 _ZN6Marble16GeoDataIconStyleC2ERKS0_@Base 4:15.08.0
 _ZN6Marble16GeoDataIconStyleC2Ev@Base 4:15.08.0
 _ZN6Marble16GeoDataIconStyleD0Ev@Base 4:15.08.0
 _ZN6Marble16GeoDataIconStyleD1Ev@Base 4:15.08.0
 _ZN6Marble16GeoDataIconStyleD2Ev@Base 4:15.08.0
 _ZN6Marble16GeoDataIconStyleaSERKS0_@Base 4:15.08.0
 _ZN6Marble16GeoDataLatLonBox11setRotationEdNS_18GeoDataCoordinates4UnitE@Base 4:15.08.0
 _ZN6Marble16GeoDataLatLonBox13setBoundariesEddddNS_18GeoDataCoordinates4UnitE@Base 4:15.08.0
 _ZN6Marble16GeoDataLatLonBox14fromLineStringERKNS_17GeoDataLineStringE@Base 4:15.08.0
 _ZN6Marble16GeoDataLatLonBox15crossesDateLineEdd@Base 4:15.08.0
 _ZN6Marble16GeoDataLatLonBox5clearEv@Base 4:15.08.0
 _ZN6Marble16GeoDataLatLonBox5emptyE@Base 4:15.08.0
 _ZN6Marble16GeoDataLatLonBox5widthEddNS_18GeoDataCoordinates4UnitE@Base 4:15.08.0
 _ZN6Marble16GeoDataLatLonBox6heightEddNS_18GeoDataCoordinates4UnitE@Base 4:15.08.0
 _ZN6Marble16GeoDataLatLonBox6unpackER11QDataStream@Base 4:15.08.0
 _ZN6Marble16GeoDataLatLonBox7setEastEdNS_18GeoDataCoordinates4UnitE@Base 4:15.08.0
 _ZN6Marble16GeoDataLatLonBox7setWestEdNS_18GeoDataCoordinates4UnitE@Base 4:15.08.0
 _ZN6Marble16GeoDataLatLonBox8setNorthEdNS_18GeoDataCoordinates4UnitE@Base 4:15.08.0
 _ZN6Marble16GeoDataLatLonBox8setSouthEdNS_18GeoDataCoordinates4UnitE@Base 4:15.08.0
 _ZN6Marble16GeoDataLatLonBoxC1ERKS0_@Base 4:15.08.0
 _ZN6Marble16GeoDataLatLonBoxC1EddddNS_18GeoDataCoordinates4UnitE@Base 4:15.08.0
 _ZN6Marble16GeoDataLatLonBoxC1Ev@Base 4:15.08.0
 _ZN6Marble16GeoDataLatLonBoxC2ERKS0_@Base 4:15.08.0
 _ZN6Marble16GeoDataLatLonBoxC2EddddNS_18GeoDataCoordinates4UnitE@Base 4:15.08.0
 _ZN6Marble16GeoDataLatLonBoxC2Ev@Base 4:15.08.0
 _ZN6Marble16GeoDataLatLonBoxD0Ev@Base 4:15.08.0
 _ZN6Marble16GeoDataLatLonBoxD1Ev@Base 4:15.08.0
 _ZN6Marble16GeoDataLatLonBoxD2Ev@Base 4:15.08.0
 _ZN6Marble16GeoDataLatLonBoxaSERKS0_@Base 4:15.08.0
 _ZN6Marble16GeoDataLatLonBoxoRERKS0_@Base 4:15.08.0
 _ZN6Marble16GeoDataLineStyle11setCapStyleEN2Qt11PenCapStyleE@Base 4:15.08.0
 _ZN6Marble16GeoDataLineStyle11setPenStyleEN2Qt8PenStyleE@Base 4:15.08.0
 _ZN6Marble16GeoDataLineStyle13setBackgroundEb@Base 4:15.08.0
 _ZN6Marble16GeoDataLineStyle14setDashPatternERK7QVectorIdE@Base 4:15.08.0
 _ZN6Marble16GeoDataLineStyle16setPhysicalWidthERKf@Base 4:15.08.0
 _ZN6Marble16GeoDataLineStyle6unpackER11QDataStream@Base 4:15.08.0
 _ZN6Marble16GeoDataLineStyle8setWidthERKf@Base 4:15.08.0
 _ZN6Marble16GeoDataLineStyleC1ERK6QColor@Base 4:15.08.0
 _ZN6Marble16GeoDataLineStyleC1ERKS0_@Base 4:15.08.0
 _ZN6Marble16GeoDataLineStyleC1Ev@Base 4:15.08.0
 _ZN6Marble16GeoDataLineStyleC2ERK6QColor@Base 4:15.08.0
 _ZN6Marble16GeoDataLineStyleC2ERKS0_@Base 4:15.08.0
 _ZN6Marble16GeoDataLineStyleC2Ev@Base 4:15.08.0
 _ZN6Marble16GeoDataLineStyleD0Ev@Base 4:15.08.0
 _ZN6Marble16GeoDataLineStyleD1Ev@Base 4:15.08.0
 _ZN6Marble16GeoDataLineStyleD2Ev@Base 4:15.08.0
 _ZN6Marble16GeoDataLineStyleaSERKS0_@Base 4:15.08.0
 _ZN6Marble16GeoDataListStyle15setListItemTypeERKNS0_12ListItemTypeE@Base 4:15.08.0
 _ZN6Marble16GeoDataListStyle18setBackgroundColorERK6QColor@Base 4:15.08.0
 _ZN6Marble16GeoDataListStyle2atEi@Base 4:15.08.0
 _ZN6Marble16GeoDataListStyle3endEv@Base 4:15.08.0
 _ZN6Marble16GeoDataListStyle4lastEv@Base 4:15.08.0
 _ZN6Marble16GeoDataListStyle5beginEv@Base 4:15.08.0
 _ZN6Marble16GeoDataListStyle5childEi@Base 4:15.08.0
 _ZN6Marble16GeoDataListStyle5clearEv@Base 4:15.08.0
 _ZN6Marble16GeoDataListStyle5firstEv@Base 4:15.08.0
 _ZN6Marble16GeoDataListStyle6appendEPNS_15GeoDataItemIconE@Base 4:15.08.0
 _ZN6Marble16GeoDataListStyle6removeEi@Base 4:15.08.0
 _ZN6Marble16GeoDataListStyle6unpackER11QDataStream@Base 4:15.08.0
 _ZN6Marble16GeoDataListStyleC1ERKS0_@Base 4:15.08.0
 _ZN6Marble16GeoDataListStyleC1Ev@Base 4:15.08.0
 _ZN6Marble16GeoDataListStyleC2ERKS0_@Base 4:15.08.0
 _ZN6Marble16GeoDataListStyleC2Ev@Base 4:15.08.0
 _ZN6Marble16GeoDataListStyleD0Ev@Base 4:15.08.0
 _ZN6Marble16GeoDataListStyleD1Ev@Base 4:15.08.0
 _ZN6Marble16GeoDataListStyleD2Ev@Base 4:15.08.0
 _ZN6Marble16GeoDataListStyleaSERKS0_@Base 4:15.08.0
 _ZN6Marble16GeoDataPlacemark11setGeometryEPNS_15GeoDataGeometryE@Base 4:15.08.0
 _ZN6Marble16GeoDataPlacemark13setCoordinateERKNS_12GeoDataPointE@Base 4:15.08.0
 _ZN6Marble16GeoDataPlacemark13setCoordinateERKNS_18GeoDataCoordinatesE@Base 4:15.08.0
 _ZN6Marble16GeoDataPlacemark13setCoordinateEdddNS_18GeoDataCoordinates4UnitE@Base 4:15.08.0
 _ZN6Marble16GeoDataPlacemark13setPopulationEx@Base 4:15.08.0
 _ZN6Marble16GeoDataPlacemark14setCountryCodeERK7QString@Base 4:15.08.0
 _ZN6Marble16GeoDataPlacemark17setBalloonVisibleEb@Base 4:15.08.0
 _ZN6Marble16GeoDataPlacemark1pEv@Base 4:15.08.0
 _ZN6Marble16GeoDataPlacemark6lookAtEv@Base 4:15.08.0
 _ZN6Marble16GeoDataPlacemark6unpackER11QDataStream@Base 4:15.08.0
 _ZN6Marble16GeoDataPlacemark7osmDataEv@Base 4:15.08.0
 _ZN6Marble16GeoDataPlacemark7setAreaEd@Base 4:15.08.0
 _ZN6Marble16GeoDataPlacemark8geometryEv@Base 4:15.08.0
 _ZN6Marble16GeoDataPlacemark8setStateERK7QString@Base 4:15.08.0
 _ZN6Marble16GeoDataPlacemarkC1ERK7QString@Base 4:15.08.0
 _ZN6Marble16GeoDataPlacemarkC1ERKS0_@Base 4:15.08.0
 _ZN6Marble16GeoDataPlacemarkC1Ev@Base 4:15.08.0
 _ZN6Marble16GeoDataPlacemarkC2ERK7QString@Base 4:15.08.0
 _ZN6Marble16GeoDataPlacemarkC2ERKS0_@Base 4:15.08.0
 _ZN6Marble16GeoDataPlacemarkC2Ev@Base 4:15.08.0
 _ZN6Marble16GeoDataPlacemarkD0Ev@Base 4:15.08.0
 _ZN6Marble16GeoDataPlacemarkD1Ev@Base 4:15.08.0
 _ZN6Marble16GeoDataPlacemarkD2Ev@Base 4:15.08.0
 _ZN6Marble16GeoDataPlacemarkaSERKS0_@Base 4:15.08.0
 _ZN6Marble16GeoDataPolyStyle10setOutlineERKb@Base 4:15.08.0
 _ZN6Marble16GeoDataPolyStyle13setBrushStyleEN2Qt10BrushStyleE@Base 4:15.08.0
 _ZN6Marble16GeoDataPolyStyle13setColorIndexEh@Base 4:15.08.0
 _ZN6Marble16GeoDataPolyStyle6unpackER11QDataStream@Base 4:15.08.0
 _ZN6Marble16GeoDataPolyStyle7setFillERKb@Base 4:15.08.0
 _ZN6Marble16GeoDataPolyStyleC1ERK6QColor@Base 4:15.08.0
 _ZN6Marble16GeoDataPolyStyleC1ERKS0_@Base 4:15.08.0
 _ZN6Marble16GeoDataPolyStyleC1Ev@Base 4:15.08.0
 _ZN6Marble16GeoDataPolyStyleC2ERK6QColor@Base 4:15.08.0
 _ZN6Marble16GeoDataPolyStyleC2ERKS0_@Base 4:15.08.0
 _ZN6Marble16GeoDataPolyStyleC2Ev@Base 4:15.08.0
 _ZN6Marble16GeoDataPolyStyleD0Ev@Base 4:15.08.0
 _ZN6Marble16GeoDataPolyStyleD1Ev@Base 4:15.08.0
 _ZN6Marble16GeoDataPolyStyleD2Ev@Base 4:15.08.0
 _ZN6Marble16GeoDataPolyStyleaSERKS0_@Base 4:15.08.0
 _ZN6Marble16GeoDataTimeStamp13setResolutionENS0_14TimeResolutionE@Base 4:15.08.0
 _ZN6Marble16GeoDataTimeStamp6unpackER11QDataStream@Base 4:15.08.0
 _ZN6Marble16GeoDataTimeStamp7setWhenERK9QDateTime@Base 4:15.08.0
 _ZN6Marble16GeoDataTimeStampC1ERKS0_@Base 4:15.08.0
 _ZN6Marble16GeoDataTimeStampC1Ev@Base 4:15.08.0
 _ZN6Marble16GeoDataTimeStampC2ERKS0_@Base 4:15.08.0
 _ZN6Marble16GeoDataTimeStampC2Ev@Base 4:15.08.0
 _ZN6Marble16GeoDataTimeStampD0Ev@Base 4:15.08.0
 _ZN6Marble16GeoDataTimeStampD1Ev@Base 4:15.08.0
 _ZN6Marble16GeoDataTimeStampD2Ev@Base 4:15.08.0
 _ZN6Marble16GeoDataTimeStampaSERKS0_@Base 4:15.08.0
 _ZN6Marble16GeoDataTreeModel10addFeatureEPNS_16GeoDataContainerEPNS_14GeoDataFeatureEi@Base 4:15.08.0
 _ZN6Marble16GeoDataTreeModel11addDocumentEPNS_15GeoDataDocumentE@Base 4:15.08.0
 _ZN6Marble16GeoDataTreeModel11qt_metacallEN11QMetaObject4CallEiPPv@Base 4:15.08.0
 _ZN6Marble16GeoDataTreeModel11qt_metacastEPKc@Base 4:15.08.0
 _ZN6Marble16GeoDataTreeModel12rootDocumentEv@Base 4:15.08.0
 _ZN6Marble16GeoDataTreeModel13removeFeatureEPKNS_14GeoDataFeatureE@Base 4:15.08.0
 _ZN6Marble16GeoDataTreeModel13removeFeatureEPNS_16GeoDataContainerEi@Base 4:15.08.0
 _ZN6Marble16GeoDataTreeModel13updateFeatureEPNS_14GeoDataFeatureE@Base 4:15.08.0
 _ZN6Marble16GeoDataTreeModel14removeDocumentEPNS_15GeoDataDocumentE@Base 4:15.08.0
 _ZN6Marble16GeoDataTreeModel14removeDocumentEi@Base 4:15.08.0
 _ZN6Marble16GeoDataTreeModel14selectionModelEv@Base 4:15.08.0
 _ZN6Marble16GeoDataTreeModel15setRootDocumentEPNS_15GeoDataDocumentE@Base 4:15.08.0
 _ZN6Marble16GeoDataTreeModel16addTourPrimitiveERK11QModelIndexPNS_20GeoDataTourPrimitiveEi@Base 4:15.08.0
 _ZN6Marble16GeoDataTreeModel16staticMetaObjectE@Base 4:15.08.0
 _ZN6Marble16GeoDataTreeModel18swapTourPrimitivesERK11QModelIndexii@Base 4:15.08.0
 _ZN6Marble16GeoDataTreeModel19removeTourPrimitiveERK11QModelIndexi@Base 4:15.08.0
 _ZN6Marble16GeoDataTreeModel5addedEPNS_13GeoDataObjectE@Base 4:15.08.0
 _ZN6Marble16GeoDataTreeModel7Private14checkParentingEPNS_13GeoDataObjectE@Base 4:15.08.0
 _ZN6Marble16GeoDataTreeModel7PrivateC1EP18QAbstractItemModel@Base 4:15.08.0
 _ZN6Marble16GeoDataTreeModel7PrivateC2EP18QAbstractItemModel@Base 4:15.08.0
 _ZN6Marble16GeoDataTreeModel7PrivateD1Ev@Base 4:15.08.0
 _ZN6Marble16GeoDataTreeModel7PrivateD2Ev@Base 4:15.08.0
 _ZN6Marble16GeoDataTreeModel7removedEPNS_13GeoDataObjectE@Base 4:15.08.0
 _ZN6Marble16GeoDataTreeModel7setDataERK11QModelIndexRK8QVarianti@Base 4:15.08.0
 _ZN6Marble16GeoDataTreeModelC1EP7QObject@Base 4:15.08.0
 _ZN6Marble16GeoDataTreeModelC2EP7QObject@Base 4:15.08.0
 _ZN6Marble16GeoDataTreeModelD0Ev@Base 4:15.08.0
 _ZN6Marble16GeoDataTreeModelD1Ev@Base 4:15.08.0
 _ZN6Marble16GeoDataTreeModelD2Ev@Base 4:15.08.0
 _ZN6Marble16GeoGraphicsScene10removeItemEPKNS_14GeoDataFeatureE@Base 4:15.08.0
 _ZN6Marble16GeoGraphicsScene11qt_metacallEN11QMetaObject4CallEiPPv@Base 4:15.08.0
 _ZN6Marble16GeoGraphicsScene11qt_metacastEPKc@Base 4:15.08.0
 _ZN6Marble16GeoGraphicsScene13repaintNeededEv@Base 4:15.08.0
 _ZN6Marble16GeoGraphicsScene14applyHighlightERK7QVectorIPNS_16GeoDataPlacemarkEE@Base 4:15.08.0
 _ZN6Marble16GeoGraphicsScene16staticMetaObjectE@Base 4:15.08.0
 _ZN6Marble16GeoGraphicsScene5clearEv@Base 4:15.08.0
 _ZN6Marble16GeoGraphicsScene7addItemEPNS_15GeoGraphicsItemE@Base 4:15.08.0
 _ZN6Marble16GeoGraphicsSceneC1EP7QObject@Base 4:15.08.0
 _ZN6Marble16GeoGraphicsSceneC2EP7QObject@Base 4:15.08.0
 _ZN6Marble16GeoGraphicsSceneD0Ev@Base 4:15.08.0
 _ZN6Marble16GeoGraphicsSceneD1Ev@Base 4:15.08.0
 _ZN6Marble16GeoGraphicsSceneD2Ev@Base 4:15.08.0
 _ZN6Marble16GeoSceneDocument11qt_metacallEN11QMetaObject4CallEiPPv@Base 4:15.08.0
 _ZN6Marble16GeoSceneDocument11qt_metacastEPKc@Base 4:15.08.0
 _ZN6Marble16GeoSceneDocument12valueChangedE7QStringb@Base 4:15.08.0
 _ZN6Marble16GeoSceneDocument16staticMetaObjectE@Base 4:15.08.0
 _ZN6Marble16GeoSceneDocument3mapEv@Base 4:15.08.0
 _ZN6Marble16GeoSceneDocument4headEv@Base 4:15.08.0
 _ZN6Marble16GeoSceneDocument6legendEv@Base 4:15.08.0
 _ZN6Marble16GeoSceneDocument8settingsEv@Base 4:15.08.0
 _ZN6Marble16GeoSceneDocumentC1Ev@Base 4:15.08.0
 _ZN6Marble16GeoSceneDocumentC2Ev@Base 4:15.08.0
 _ZN6Marble16GeoSceneDocumentD0Ev@Base 4:15.08.0
 _ZN6Marble16GeoSceneDocumentD1Ev@Base 4:15.08.0
 _ZN6Marble16GeoSceneDocumentD2Ev@Base 4:15.08.0
 _ZN6Marble16GeoSceneProperty11qt_metacallEN11QMetaObject4CallEiPPv@Base 4:15.08.0
 _ZN6Marble16GeoSceneProperty11qt_metacastEPKc@Base 4:15.08.0
 _ZN6Marble16GeoSceneProperty12setAvailableEb@Base 4:15.08.0
 _ZN6Marble16GeoSceneProperty12valueChangedE7QStringb@Base 4:15.08.0
 _ZN6Marble16GeoSceneProperty15setDefaultValueEb@Base 4:15.08.0
 _ZN6Marble16GeoSceneProperty16staticMetaObjectE@Base 4:15.08.0
 _ZN6Marble16GeoSceneProperty8setValueEb@Base 4:15.08.0
 _ZN6Marble16GeoScenePropertyC1ERK7QString@Base 4:15.08.0
 _ZN6Marble16GeoScenePropertyC2ERK7QString@Base 4:15.08.0
 _ZN6Marble16GeoScenePropertyD0Ev@Base 4:15.08.0
 _ZN6Marble16GeoScenePropertyD1Ev@Base 4:15.08.0
 _ZN6Marble16GeoScenePropertyD2Ev@Base 4:15.08.0
 _ZN6Marble16GeoSceneSettings11addPropertyEPNS_16GeoScenePropertyE@Base 4:15.08.0
 _ZN6Marble16GeoSceneSettings11qt_metacallEN11QMetaObject4CallEiPPv@Base 4:15.08.0
 _ZN6Marble16GeoSceneSettings11qt_metacastEPKc@Base 4:15.08.0
 _ZN6Marble16GeoSceneSettings12valueChangedE7QStringb@Base 4:15.08.0
 _ZN6Marble16GeoSceneSettings13allPropertiesEv@Base 4:15.08.0
 _ZN6Marble16GeoSceneSettings14rootPropertiesEv@Base 4:15.08.0
 _ZN6Marble16GeoSceneSettings16setPropertyValueERK7QStringb@Base 4:15.08.0
 _ZN6Marble16GeoSceneSettings16staticMetaObjectE@Base 4:15.08.0
 _ZN6Marble16GeoSceneSettings5groupERK7QString@Base 4:15.08.0
 _ZN6Marble16GeoSceneSettings8addGroupEPNS_13GeoSceneGroupE@Base 4:15.08.0
 _ZN6Marble16GeoSceneSettings8propertyERK7QString@Base 4:15.08.0
 _ZN6Marble16GeoSceneSettingsC1Ev@Base 4:15.08.0
 _ZN6Marble16GeoSceneSettingsC2Ev@Base 4:15.08.0
 _ZN6Marble16GeoSceneSettingsD0Ev@Base 4:15.08.0
 _ZN6Marble16GeoSceneSettingsD1Ev@Base 4:15.08.0
 _ZN6Marble16GeoSceneSettingsD2Ev@Base 4:15.08.0
 _ZN6Marble16KmlDataTagWriterD0Ev@Base 4:15.08.0
 _ZN6Marble16KmlDataTagWriterD1Ev@Base 4:15.08.0
 _ZN6Marble16KmlDataTagWriterD2Ev@Base 4:15.08.0
 _ZN6Marble16KmlLinkTagWriter19refreshModeToStringENS_11GeoDataLink11RefreshModeE@Base 4:15.08.0
 _ZN6Marble16KmlLinkTagWriter23viewRefreshModeToStringENS_11GeoDataLink15ViewRefreshModeE@Base 4:15.08.0
 _ZN6Marble16KmlLinkTagWriterD0Ev@Base 4:15.08.0
 _ZN6Marble16KmlLinkTagWriterD1Ev@Base 4:15.08.0
 _ZN6Marble16KmlLinkTagWriterD2Ev@Base 4:15.08.0
 _ZN6Marble16KmlTourTagWriterC1Ev@Base 4:15.08.0
 _ZN6Marble16KmlTourTagWriterC2Ev@Base 4:15.08.0
 _ZN6Marble16KmlTourTagWriterD0Ev@Base 4:15.08.0
 _ZN6Marble16KmlTourTagWriterD1Ev@Base 4:15.08.0
 _ZN6Marble16KmlTourTagWriterD2Ev@Base 4:15.08.0
 _ZN6Marble16MapWizardPrivate11pageEnteredEi@Base 4:15.08.0
 _ZN6Marble16MarbleControlBox11qt_metacallEN11QMetaObject4CallEiPPv@Base 4:15.08.0
 _ZN6Marble16MarbleControlBox11qt_metacastEPKc@Base 4:15.08.0
 _ZN6Marble16MarbleControlBox11selectThemeERK7QString@Base 4:15.08.0
 _ZN6Marble16MarbleControlBox13showMapWizardEv@Base 4:15.08.0
 _ZN6Marble16MarbleControlBox14searchFinishedEv@Base 4:15.08.0
 _ZN6Marble16MarbleControlBox14setWorkOfflineEb@Base 4:15.08.0
 _ZN6Marble16MarbleControlBox15setMarbleWidgetEPNS_12MarbleWidgetE@Base 4:15.08.0
 _ZN6Marble16MarbleControlBox16showUploadDialogEv@Base 4:15.08.0
 _ZN6Marble16MarbleControlBox16staticMetaObjectE@Base 4:15.08.0
 _ZN6Marble16MarbleControlBox17setLegendTabShownEb@Base 4:15.08.0
 _ZN6Marble16MarbleControlBox17setWidgetTabShownEP7QWidgetibR7QString@Base 4:15.08.0
 _ZN6Marble16MarbleControlBox18setMapViewTabShownEb@Base 4:15.08.0
 _ZN6Marble16MarbleControlBox18setRoutingTabShownEb@Base 4:15.08.0
 _ZN6Marble16MarbleControlBox19setFileViewTabShownEb@Base 4:15.08.0
 _ZN6Marble16MarbleControlBox21currentLocationWidgetEv@Base 4:15.08.0
 _ZN6Marble16MarbleControlBox21setNavigationTabShownEb@Base 4:15.08.0
 _ZN6Marble16MarbleControlBox26setCurrentLocationTabShownEb@Base 4:15.08.0
 _ZN6Marble16MarbleControlBox6searchERK7QStringNS_10SearchModeE@Base 4:15.08.0
 _ZN6Marble16MarbleControlBoxC1EP7QWidget@Base 4:15.08.0
 _ZN6Marble16MarbleControlBoxC2EP7QWidget@Base 4:15.08.0
 _ZN6Marble16MarbleControlBoxD0Ev@Base 4:15.08.0
 _ZN6Marble16MarbleControlBoxD1Ev@Base 4:15.08.0
 _ZN6Marble16MarbleControlBoxD2Ev@Base 4:15.08.0
 _ZN6Marble16MarbleMapPrivate11setDocumentE7QString@Base 4:15.08.0
 _ZN6Marble16MarbleMapPrivate14updateMapThemeEv@Base 4:15.08.0
 _ZN6Marble16MarbleMapPrivate14updatePropertyERK7QStringb@Base 4:15.08.0
 _ZN6Marble16MarbleMapPrivateC1EPNS_9MarbleMapEPNS_11MarbleModelE@Base 4:15.08.0
 _ZN6Marble16MarbleMapPrivateC2EPNS_9MarbleMapEPNS_11MarbleModelE@Base 4:15.08.0
 _ZN6Marble16MultiplyBlendingD0Ev@Base 4:15.08.0
 _ZN6Marble16MultiplyBlendingD1Ev@Base 4:15.08.0
 _ZN6Marble16MultiplyBlendingD2Ev@Base 4:15.08.0
 _ZN6Marble16NavigationWidget10changeZoomEi@Base 4:15.08.0
 _ZN6Marble16NavigationWidget11clearSearchEv@Base 4:15.08.0
 _ZN6Marble16NavigationWidget11qt_metacallEN11QMetaObject4CallEiPPv@Base 4:15.08.0
 _ZN6Marble16NavigationWidget11qt_metacastEPKc@Base 4:15.08.0
 _ZN6Marble16NavigationWidget11resizeEventEP12QResizeEvent@Base 4:15.08.0
 _ZN6Marble16NavigationWidget11selectThemeERK7QString@Base 4:15.08.0
 _ZN6Marble16NavigationWidget11zoomChangedEi@Base 4:15.08.0
 _ZN6Marble16NavigationWidget14searchFinishedEv@Base 4:15.08.0
 _ZN6Marble16NavigationWidget15setMarbleWidgetEPNS_12MarbleWidgetE@Base 4:15.08.0
 _ZN6Marble16NavigationWidget16staticMetaObjectE@Base 4:15.08.0
 _ZN6Marble16NavigationWidget6goHomeEv@Base 4:15.08.0
 _ZN6Marble16NavigationWidget6moveUpEv@Base 4:15.08.0
 _ZN6Marble16NavigationWidget6searchERK7QStringNS_10SearchModeE@Base 4:15.08.0
 _ZN6Marble16NavigationWidget6zoomInEv@Base 4:15.08.0
 _ZN6Marble16NavigationWidget7zoomOutEv@Base 4:15.08.0
 _ZN6Marble16NavigationWidget8moveDownEv@Base 4:15.08.0
 _ZN6Marble16NavigationWidget8moveLeftEv@Base 4:15.08.0
 _ZN6Marble16NavigationWidget9moveRightEv@Base 4:15.08.0
 _ZN6Marble16NavigationWidgetC1EP7QWidget6QFlagsIN2Qt10WindowTypeEE@Base 4:15.08.0
 _ZN6Marble16NavigationWidgetC2EP7QWidget6QFlagsIN2Qt10WindowTypeEE@Base 4:15.08.0
 _ZN6Marble16NavigationWidgetD0Ev@Base 4:15.08.0
 _ZN6Marble16NavigationWidgetD1Ev@Base 4:15.08.0
 _ZN6Marble16NavigationWidgetD2Ev@Base 4:15.08.0
 _ZN6Marble16OsmPlacemarkData10osmDataKeyE@Base 4:15.08.0
 _ZN6Marble16OsmPlacemarkData10osmHashKeyEv@Base 4:15.08.0
 _ZN6Marble16OsmPlacemarkData10setVersionERK7QString@Base 4:15.08.0
 _ZN6Marble16OsmPlacemarkData10setVisibleERK7QString@Base 4:15.08.0
 _ZN6Marble16OsmPlacemarkData12addReferenceEPKNS_15GeoDataGeometryERKS0_@Base 4:15.08.0
 _ZN6Marble16OsmPlacemarkData12addReferenceERKNS_18GeoDataCoordinatesERKS0_@Base 4:15.08.0
 _ZN6Marble16OsmPlacemarkData12setChangesetERK7QString@Base 4:15.08.0
 _ZN6Marble16OsmPlacemarkData12setTimestampERK7QString@Base 4:15.08.0
 _ZN6Marble16OsmPlacemarkData5setIdEx@Base 4:15.08.0
 _ZN6Marble16OsmPlacemarkData6addTagERK7QStringS3_@Base 4:15.08.0
 _ZN6Marble16OsmPlacemarkData6setUidERK7QString@Base 4:15.08.0
 _ZN6Marble16OsmPlacemarkData7setUserERK7QString@Base 4:15.08.0
 _ZN6Marble16OsmPlacemarkData9referenceEPKNS_15GeoDataGeometryE@Base 4:15.08.0
 _ZN6Marble16OsmPlacemarkData9referenceERKNS_18GeoDataCoordinatesE@Base 4:15.08.0
 _ZN6Marble16OsmPlacemarkData9setActionERK7QString@Base 4:15.08.0
 _ZN6Marble16OsmPlacemarkDataC1Ev@Base 4:15.08.0
 _ZN6Marble16OsmPlacemarkDataC2Ev@Base 4:15.08.0
 _ZN6Marble16OsmPlacemarkDataD1Ev@Base 4:15.08.0
 _ZN6Marble16OsmPlacemarkDataD2Ev@Base 4:15.08.0
 _ZN6Marble16ParallelBlendingD0Ev@Base 4:15.08.0
 _ZN6Marble16ParallelBlendingD1Ev@Base 4:15.08.0
 _ZN6Marble16ParallelBlendingD2Ev@Base 4:15.08.0
 _ZN6Marble16PinLightBlendingD0Ev@Base 4:15.08.0
 _ZN6Marble16PinLightBlendingD1Ev@Base 4:15.08.0
 _ZN6Marble16PinLightBlendingD2Ev@Base 4:15.08.0
 _ZN6Marble16PlaybackWaitItem11qt_metacallEN11QMetaObject4CallEiPPv@Base 4:15.08.0
 _ZN6Marble16PlaybackWaitItem11qt_metacastEPKc@Base 4:15.08.0
 _ZN6Marble16PlaybackWaitItem16staticMetaObjectE@Base 4:15.08.0
 _ZN6Marble16PlaybackWaitItem4playEv@Base 4:15.08.0
 _ZN6Marble16PlaybackWaitItem4seekEd@Base 4:15.08.0
 _ZN6Marble16PlaybackWaitItem4stopEv@Base 4:15.08.0
 _ZN6Marble16PlaybackWaitItem5pauseEv@Base 4:15.08.0
 _ZN6Marble16PlaybackWaitItem8playNextEv@Base 4:15.08.0
 _ZN6Marble16PlaybackWaitItemC1EPKNS_11GeoDataWaitE@Base 4:15.08.0
 _ZN6Marble16PlaybackWaitItemC2EPKNS_11GeoDataWaitE@Base 4:15.08.0
 _ZN6Marble16PlaybackWaitItemD0Ev@Base 4:15.08.0
 _ZN6Marble16PlaybackWaitItemD1Ev@Base 4:15.08.0
 _ZN6Marble16PlaybackWaitItemD2Ev@Base 4:15.08.0
 _ZN6Marble16PositionTracking10clearTrackEv@Base 4:15.08.0
 _ZN6Marble16PositionTracking11gpsLocationENS_18GeoDataCoordinatesEd@Base 4:15.08.0
 _ZN6Marble16PositionTracking11qt_metacallEN11QMetaObject4CallEiPPv@Base 4:15.08.0
 _ZN6Marble16PositionTracking11qt_metacastEPKc@Base 4:15.08.0
 _ZN6Marble16PositionTracking12readSettingsEv@Base 4:15.08.0
 _ZN6Marble16PositionTracking13statusChangedENS_22PositionProviderStatusE@Base 4:15.08.0
 _ZN6Marble16PositionTracking13writeSettingsEv@Base 4:15.08.0
 _ZN6Marble16PositionTracking15setTrackVisibleEb@Base 4:15.08.0
 _ZN6Marble16PositionTracking16staticMetaObjectE@Base 4:15.08.0
 _ZN6Marble16PositionTracking22positionProviderPluginEv@Base 4:15.08.0
 _ZN6Marble16PositionTracking25setPositionProviderPluginEPNS_22PositionProviderPluginE@Base 4:15.08.0
 _ZN6Marble16PositionTracking29positionProviderPluginChangedEPNS_22PositionProviderPluginE@Base 4:15.08.0
 _ZN6Marble16PositionTracking9saveTrackERK7QString@Base 4:15.08.0
 _ZN6Marble16PositionTrackingC1EPNS_16GeoDataTreeModelE@Base 4:15.08.0
 _ZN6Marble16PositionTrackingC2EPNS_16GeoDataTreeModelE@Base 4:15.08.0
 _ZN6Marble16PositionTrackingD0Ev@Base 4:15.08.0
 _ZN6Marble16PositionTrackingD1Ev@Base 4:15.08.0
 _ZN6Marble16PositionTrackingD2Ev@Base 4:15.08.0
 _ZN6Marble16RemoteIconLoader11qt_metacallEN11QMetaObject4CallEiPPv@Base 4:15.08.0
 _ZN6Marble16RemoteIconLoader11qt_metacastEPKc@Base 4:15.08.0
 _ZN6Marble16RemoteIconLoader16staticMetaObjectE@Base 4:15.08.0
 _ZN6Marble16RemoteIconLoader4loadERK7QString@Base 4:15.08.0
 _ZN6Marble16RemoteIconLoader9iconReadyEv@Base 4:15.08.0
 _ZN6Marble16RemoteIconLoader9storeIconERK10QByteArrayRK7QString@Base 4:15.08.0
 _ZN6Marble16RemoteIconLoaderC1EP7QObject@Base 4:15.08.0
 _ZN6Marble16RemoteIconLoaderC2EP7QObject@Base 4:15.08.0
 _ZN6Marble16RemoteIconLoaderD0Ev@Base 4:15.08.0
 _ZN6Marble16RemoteIconLoaderD1Ev@Base 4:15.08.0
 _ZN6Marble16RemoteIconLoaderD2Ev@Base 4:15.08.0
 _ZN6Marble16RouteSyncManager11deleteRouteERK7QString@Base 4:15.08.0
 _ZN6Marble16RouteSyncManager11qt_metacallEN11QMetaObject4CallEiPPv@Base 4:15.08.0
 _ZN6Marble16RouteSyncManager11qt_metacastEPKc@Base 4:15.08.0
 _ZN6Marble16RouteSyncManager11uploadRouteERK7QString@Base 4:15.08.0
 _ZN6Marble16RouteSyncManager11uploadRouteEv@Base 4:15.08.0
 _ZN6Marble16RouteSyncManager13downloadRouteERK7QString@Base 4:15.08.0
 _ZN6Marble16RouteSyncManager16prepareRouteListEv@Base 4:15.08.0
 _ZN6Marble16RouteSyncManager16staticMetaObjectE@Base 4:15.08.0
 _ZN6Marble16RouteSyncManager17setRoutingManagerEPNS_14RoutingManagerE@Base 4:15.08.0
 _ZN6Marble16RouteSyncManager18setRouteModelItemsERK7QVectorINS_9RouteItemEE@Base 4:15.08.0
 _ZN6Marble16RouteSyncManager19routeUploadProgressExx@Base 4:15.08.0
 _ZN6Marble16RouteSyncManager19setRouteSyncEnabledEb@Base 4:15.08.0
 _ZN6Marble16RouteSyncManager20removeRouteFromCacheERK7QString@Base 4:15.08.0
 _ZN6Marble16RouteSyncManager23routeSyncEnabledChangedEb@Base 4:15.08.0
 _ZN6Marble16RouteSyncManager23updateUploadProgressbarExx@Base 4:15.08.0
 _ZN6Marble16RouteSyncManager25routeListDownloadProgressExx@Base 4:15.08.0
 _ZN6Marble16RouteSyncManager5modelEv@Base 4:15.08.0
 _ZN6Marble16RouteSyncManager7PrivateC1EPNS_16CloudSyncManagerE@Base 4:15.08.0
 _ZN6Marble16RouteSyncManager7PrivateC2EPNS_16CloudSyncManagerE@Base 4:15.08.0
 _ZN6Marble16RouteSyncManager9openRouteERK7QString@Base 4:15.08.0
 _ZN6Marble16RouteSyncManagerC1EPNS_16CloudSyncManagerE@Base 4:15.08.0
 _ZN6Marble16RouteSyncManagerC2EPNS_16CloudSyncManagerE@Base 4:15.08.0
 _ZN6Marble16RouteSyncManagerD0Ev@Base 4:15.08.0
 _ZN6Marble16RouteSyncManagerD1Ev@Base 4:15.08.0
 _ZN6Marble16RouteSyncManagerD2Ev@Base 4:15.08.0
 _ZN6Marble16SunControlWidget11qt_metacallEN11QMetaObject4CallEiPPv@Base 4:15.08.0
 _ZN6Marble16SunControlWidget11qt_metacastEPKc@Base 4:15.08.0
 _ZN6Marble16SunControlWidget13setSunShadingEb@Base 4:15.08.0
 _ZN6Marble16SunControlWidget16staticMetaObjectE@Base 4:15.08.0
 _ZN6Marble16SunControlWidget23isLockedToSubSolarPointEb@Base 4:15.08.0
 _ZN6Marble16SunControlWidget26isSubSolarPointIconVisibleEb@Base 4:15.08.0
 _ZN6Marble16SunControlWidget5applyEv@Base 4:15.08.0
 _ZN6Marble16SunControlWidget7showSunEb@Base 4:15.08.0
 _ZN6Marble16SunControlWidget9showEventEP10QShowEvent@Base 4:15.08.0
 _ZN6Marble16SunControlWidgetC1EPNS_12MarbleWidgetEP7QWidget@Base 4:15.08.0
 _ZN6Marble16SunControlWidgetC2EPNS_12MarbleWidgetEP7QWidget@Base 4:15.08.0
 _ZN6Marble16SunControlWidgetD0Ev@Base 4:15.08.0
 _ZN6Marble16SunControlWidgetD1Ev@Base 4:15.08.0
 _ZN6Marble16SunControlWidgetD2Ev@Base 4:15.08.0
 _ZN6Marble16SunLightBlending10maxDivisorEii@Base 4:15.08.0
 _ZN6Marble16SunLightBlending18setLevelZeroLayoutEii@Base 4:15.08.0
 _ZN6Marble16SunLightBlendingC1EPKNS_10SunLocatorE@Base 4:15.08.0
 _ZN6Marble16SunLightBlendingC2EPKNS_10SunLocatorE@Base 4:15.08.0
 _ZN6Marble16SunLightBlendingD0Ev@Base 4:15.08.0
 _ZN6Marble16SunLightBlendingD1Ev@Base 4:15.08.0
 _ZN6Marble16SunLightBlendingD2Ev@Base 4:15.08.0
 _ZN6Marble16TemplateDocument11setTemplateERK7QString@Base 4:15.08.0
 _ZN6Marble16TemplateDocument8setValueERK7QStringS3_@Base 4:15.08.0
 _ZN6Marble16TemplateDocumentC1ERK7QString@Base 4:15.08.0
 _ZN6Marble16TemplateDocumentC1Ev@Base 4:15.08.0
 _ZN6Marble16TemplateDocumentC2ERK7QString@Base 4:15.08.0
 _ZN6Marble16TemplateDocumentC2Ev@Base 4:15.08.0
 _ZN6Marble16TemplateDocumentD1Ev@Base 4:15.08.0
 _ZN6Marble16TemplateDocumentD2Ev@Base 4:15.08.0
 _ZN6Marble16TemplateDocumentixERK7QString@Base 4:15.08.0
 _ZN6Marble16TextureColorizer13setShowReliefEb@Base 4:15.08.0
 _ZN6Marble16TextureColorizer14addSeaDocumentEPKNS_15GeoDataDocumentE@Base 4:15.08.0
 _ZN6Marble16TextureColorizer14drawTextureMapEPNS_10GeoPainterE@Base 4:15.08.0
 _ZN6Marble16TextureColorizer15addLandDocumentEPKNS_15GeoDataDocumentE@Base 4:15.08.0
 _ZN6Marble16TextureColorizer22drawIndividualDocumentEPNS_10GeoPainterEPKNS_15GeoDataDocumentE@Base 4:15.08.0
 _ZN6Marble16TextureColorizer8colorizeEP6QImagePKNS_14ViewportParamsENS_10MapQualityE@Base 4:15.08.0
 _ZN6Marble16TextureColorizer8setPixelEPKjPjih@Base 4:15.08.0
 _ZN6Marble16TextureColorizerC1ERK7QStringS3_@Base 4:15.08.0
 _ZN6Marble16TextureColorizerC2ERK7QStringS3_@Base 4:15.08.0
 _ZN6Marble16TextureColorizerD0Ev@Base 4:15.08.0
 _ZN6Marble16TextureColorizerD1Ev@Base 4:15.08.0
 _ZN6Marble16TextureColorizerD2Ev@Base 4:15.08.0
 _ZN6Marble16TileLoaderHelper10levelToRowEii@Base 4:15.08.0
 _ZN6Marble16TileLoaderHelper10rowToLevelEii@Base 4:15.08.0
 _ZN6Marble16TileLoaderHelper13columnToLevelEii@Base 4:15.08.0
 _ZN6Marble16TileLoaderHelper13levelToColumnEii@Base 4:15.08.0
 _ZN6Marble16TourItemDelegate11closeEditorERK11QModelIndex@Base 4:15.08.0
 _ZN6Marble16TourItemDelegate11editorEventEP6QEventP18QAbstractItemModelRK20QStyleOptionViewItemRK11QModelIndex@Base 4:15.08.0
 _ZN6Marble16TourItemDelegate11qt_metacallEN11QMetaObject4CallEiPPv@Base 4:15.08.0
 _ZN6Marble16TourItemDelegate11qt_metacastEPKc@Base 4:15.08.0
 _ZN6Marble16TourItemDelegate11setEditableEb@Base 4:15.08.0
 _ZN6Marble16TourItemDelegate13setFirstFlyToERK21QPersistentModelIndex@Base 4:15.08.0
 _ZN6Marble16TourItemDelegate14editingChangedE11QModelIndex@Base 4:15.08.0
 _ZN6Marble16TourItemDelegate15editableChangedEb@Base 4:15.08.0
 _ZN6Marble16TourItemDelegate16staticMetaObjectE@Base 4:15.08.0
 _ZN6Marble16TourItemDelegate17featureIdsChangedE11QStringList@Base 4:15.08.0
 _ZN6Marble16TourItemDelegate17firstFlyToChangedERK21QPersistentModelIndex@Base 4:15.08.0
 _ZN6Marble16TourItemDelegate18editAnimatedUpdateEPNS_21GeoDataAnimatedUpdateEb@Base 4:15.08.0
 _ZN6Marble16TourItemDelegate19setDefaultFeatureIdERK7QString@Base 4:15.08.0
 _ZN6Marble16TourItemDelegate23defaultFeatureIdChangedE7QString@Base 4:15.08.0
 _ZN6Marble16TourItemDelegate6editedE11QModelIndex@Base 4:15.08.0
 _ZN6Marble16TourItemDelegate8positionENS0_7ElementERK20QStyleOptionViewItem@Base 4:15.08.0
 _ZN6Marble16TourItemDelegateC1EP9QListViewPNS_12MarbleWidgetEPNS_10TourWidgetE@Base 4:15.08.0
 _ZN6Marble16TourItemDelegateC2EP9QListViewPNS_12MarbleWidgetEPNS_10TourWidgetE@Base 4:15.08.0
 _ZN6Marble16TourItemDelegateD0Ev@Base 4:15.08.0
 _ZN6Marble16TourItemDelegateD1Ev@Base 4:15.08.0
 _ZN6Marble16TourItemDelegateD2Ev@Base 4:15.08.0
 _ZN6Marble16VisiblePlacemark11qt_metacallEN11QMetaObject4CallEiPPv@Base 4:15.08.0
 _ZN6Marble16VisiblePlacemark11qt_metacastEPKc@Base 4:15.08.0
 _ZN6Marble16VisiblePlacemark11setSelectedEb@Base 4:15.08.0
 _ZN6Marble16VisiblePlacemark12setLabelRectERK6QRectF@Base 4:15.08.0
 _ZN6Marble16VisiblePlacemark12updateNeededEv@Base 4:15.08.0
 _ZN6Marble16VisiblePlacemark13drawLabelTextER8QPainterRK7QStringRK5QFontNS0_10LabelStyleERK6QColor@Base 4:15.08.0
 _ZN6Marble16VisiblePlacemark15drawLabelPixmapEv@Base 4:15.08.0
 _ZN6Marble16VisiblePlacemark15setSymbolPixmapEv@Base 4:15.08.0
 _ZN6Marble16VisiblePlacemark16staticMetaObjectE@Base 4:15.08.0
 _ZN6Marble16VisiblePlacemark17setSymbolPositionERK6QPoint@Base 4:15.08.0
 _ZN6Marble16VisiblePlacemarkC1EPKNS_16GeoDataPlacemarkE@Base 4:15.08.0
 _ZN6Marble16VisiblePlacemarkC2EPKNS_16GeoDataPlacemarkE@Base 4:15.08.0
 _ZN6Marble16VisiblePlacemarkD0Ev@Base 4:15.08.0
 _ZN6Marble16VisiblePlacemarkD1Ev@Base 4:15.08.0
 _ZN6Marble16VisiblePlacemarkD2Ev@Base 4:15.08.0
 _ZN6Marble17AbstractFloatItem10setVisibleEb@Base 4:15.08.0
 _ZN6Marble17AbstractFloatItem11contextMenuEv@Base 4:15.08.0
 _ZN6Marble17AbstractFloatItem11eventFilterEP7QObjectP6QEvent@Base 4:15.08.0
 _ZN6Marble17AbstractFloatItem11qt_metacallEN11QMetaObject4CallEiPPv@Base 4:15.08.0
 _ZN6Marble17AbstractFloatItem11qt_metacastEPKc@Base 4:15.08.0
 _ZN6Marble17AbstractFloatItem11setSettingsERK5QHashI7QString8QVariantE@Base 4:15.08.0
 _ZN6Marble17AbstractFloatItem12toolTipEventEP10QHelpEvent@Base 4:15.08.0
 _ZN6Marble17AbstractFloatItem16contextMenuEventEP7QWidgetP17QContextMenuEvent@Base 4:15.08.0
 _ZN6Marble17AbstractFloatItem16staticMetaObjectE@Base 4:15.08.0
 _ZN6Marble17AbstractFloatItem17setPositionLockedEb@Base 4:15.08.0
 _ZN6Marble17AbstractFloatItem4hideEv@Base 4:15.08.0
 _ZN6Marble17AbstractFloatItem4showEv@Base 4:15.08.0
 _ZN6Marble17AbstractFloatItem6renderEPNS_10GeoPainterEPNS_14ViewportParamsERK7QStringPNS_13GeoSceneLayerE@Base 4:15.08.0
 _ZN6Marble17AbstractFloatItem6setPenERK4QPen@Base 4:15.08.0
 _ZN6Marble17AbstractFloatItem7setFontERK5QFont@Base 4:15.08.0
 _ZN6Marble17AbstractFloatItemC1EPKNS_11MarbleModelERK7QPointFRK6QSizeF@Base 4:15.08.0
 _ZN6Marble17AbstractFloatItemC2EPKNS_11MarbleModelERK7QPointFRK6QSizeF@Base 4:15.08.0
 _ZN6Marble17AbstractFloatItemD0Ev@Base 4:15.08.0
 _ZN6Marble17AbstractFloatItemD1Ev@Base 4:15.08.0
 _ZN6Marble17AbstractFloatItemD2Ev@Base 4:15.08.0
 _ZN6Marble17CloudRoutesDialog11qt_metacallEN11QMetaObject4CallEiPPv@Base 4:15.08.0
 _ZN6Marble17CloudRoutesDialog11qt_metacastEPKc@Base 4:15.08.0
 _ZN6Marble17CloudRoutesDialog16staticMetaObjectE@Base 4:15.08.0
 _ZN6Marble17CloudRoutesDialog17openButtonClickedE7QString@Base 4:15.08.0
 _ZN6Marble17CloudRoutesDialog18updateNoRouteLabelEv@Base 4:15.08.0
 _ZN6Marble17CloudRoutesDialog19deleteButtonClickedE7QString@Base 4:15.08.0
 _ZN6Marble17CloudRoutesDialog21downloadButtonClickedE7QString@Base 4:15.08.0
 _ZN6Marble17CloudRoutesDialog26uploadToCloudButtonClickedE7QString@Base 4:15.08.0
 _ZN6Marble17CloudRoutesDialog28removeFromCacheButtonClickedE7QString@Base 4:15.08.0
 _ZN6Marble17CloudRoutesDialog29updateListDownloadProgressbarExx@Base 4:15.08.0
 _ZN6Marble17CloudRoutesDialog5modelEv@Base 4:15.08.0
 _ZN6Marble17CloudRoutesDialog7PrivateC1EPNS_15CloudRouteModelE@Base 4:15.08.0
 _ZN6Marble17CloudRoutesDialog7PrivateC2EPNS_15CloudRouteModelE@Base 4:15.08.0
 _ZN6Marble17CloudRoutesDialogC1EPNS_15CloudRouteModelEP7QWidget@Base 4:15.08.0
 _ZN6Marble17CloudRoutesDialogC2EPNS_15CloudRouteModelEP7QWidget@Base 4:15.08.0
 _ZN6Marble17CloudRoutesDialogD0Ev@Base 4:15.08.0
 _ZN6Marble17CloudRoutesDialogD1Ev@Base 4:15.08.0
 _ZN6Marble17CloudRoutesDialogD2Ev@Base 4:15.08.0
 _ZN6Marble17ColorBurnBlendingD0Ev@Base 4:15.08.0
 _ZN6Marble17ColorBurnBlendingD1Ev@Base 4:15.08.0
 _ZN6Marble17ColorBurnBlendingD2Ev@Base 4:15.08.0
 _ZN6Marble17DgmlHeadTagWriterD0Ev@Base 4:15.08.0
 _ZN6Marble17DgmlHeadTagWriterD1Ev@Base 4:15.08.0
 _ZN6Marble17DgmlHeadTagWriterD2Ev@Base 4:15.08.0
 _ZN6Marble17DgmlItemTagWriterD0Ev@Base 4:15.08.0
 _ZN6Marble17DgmlItemTagWriterD1Ev@Base 4:15.08.0
 _ZN6Marble17DgmlItemTagWriterD2Ev@Base 4:15.08.0
 _ZN6Marble17DownloadPolicyKey12setHostNamesERK11QStringList@Base 4:15.08.0
 _ZN6Marble17DownloadPolicyKey8setUsageENS_13DownloadUsageE@Base 4:15.08.0
 _ZN6Marble17DownloadPolicyKeyC1ERK11QStringListNS_13DownloadUsageE@Base 4:15.08.0
 _ZN6Marble17DownloadPolicyKeyC1ERK7QStringNS_13DownloadUsageE@Base 4:15.08.0
 _ZN6Marble17DownloadPolicyKeyC1Ev@Base 4:15.08.0
 _ZN6Marble17DownloadPolicyKeyC2ERK11QStringListNS_13DownloadUsageE@Base 4:15.08.0
 _ZN6Marble17DownloadPolicyKeyC2ERK7QStringNS_13DownloadUsageE@Base 4:15.08.0
 _ZN6Marble17DownloadPolicyKeyC2Ev@Base 4:15.08.0
 _ZN6Marble17FileLoaderPrivate10areaPopIdxEd@Base 4:15.08.0
 _ZN6Marble17FileLoaderPrivate10cityPopIdxEx@Base 4:15.08.0
 _ZN6Marble17FileLoaderPrivate11spacePopIdxEx@Base 4:15.08.0
 _ZN6Marble17FileLoaderPrivate14documentParsedEPNS_15GeoDataDocumentERK7QString@Base 4:15.08.0
 _ZN6Marble17FileLoaderPrivate22createFilterPropertiesEPNS_16GeoDataContainerE@Base 4:15.08.0
 _ZN6Marble17FileStoragePolicy10clearCacheEv@Base 4:15.08.0
 _ZN6Marble17FileStoragePolicy10updateFileERK7QStringRK10QByteArray@Base 4:15.08.0
 _ZN6Marble17FileStoragePolicy11qt_metacallEN11QMetaObject4CallEiPPv@Base 4:15.08.0
 _ZN6Marble17FileStoragePolicy11qt_metacastEPKc@Base 4:15.08.0
 _ZN6Marble17FileStoragePolicy16staticMetaObjectE@Base 4:15.08.0
 _ZN6Marble17FileStoragePolicyC1ERK7QStringP7QObject@Base 4:15.08.0
 _ZN6Marble17FileStoragePolicyC2ERK7QStringP7QObject@Base 4:15.08.0
 _ZN6Marble17FileStoragePolicyD0Ev@Base 4:15.08.0
 _ZN6Marble17FileStoragePolicyD1Ev@Base 4:15.08.0
 _ZN6Marble17FileStoragePolicyD2Ev@Base 4:15.08.0
 _ZN6Marble17FrameGraphicsItem10setPaddingEd@Base 4:15.08.0
 _ZN6Marble17FrameGraphicsItem12paintContentEP8QPainter@Base 4:15.08.0
 _ZN6Marble17FrameGraphicsItem12setMarginTopEd@Base 4:15.08.0
 _ZN6Marble17FrameGraphicsItem13setBackgroundERK6QBrush@Base 4:15.08.0
 _ZN6Marble17FrameGraphicsItem13setMarginLeftEd@Base 4:15.08.0
 _ZN6Marble17FrameGraphicsItem14setBorderBrushERK6QBrush@Base 4:15.08.0
 _ZN6Marble17FrameGraphicsItem14setBorderStyleEN2Qt8PenStyleE@Base 4:15.08.0
 _ZN6Marble17FrameGraphicsItem14setBorderWidthEd@Base 4:15.08.0
 _ZN6Marble17FrameGraphicsItem14setContentSizeERK6QSizeF@Base 4:15.08.0
 _ZN6Marble17FrameGraphicsItem14setMarginRightEd@Base 4:15.08.0
 _ZN6Marble17FrameGraphicsItem15paintBackgroundEP8QPainter@Base 4:15.08.0
 _ZN6Marble17FrameGraphicsItem15setMarginBottomEd@Base 4:15.08.0
 _ZN6Marble17FrameGraphicsItem5paintEP8QPainter@Base 4:15.08.0
 _ZN6Marble17FrameGraphicsItem8setFrameENS0_9FrameTypeE@Base 4:15.08.0
 _ZN6Marble17FrameGraphicsItem9setMarginEd@Base 4:15.08.0
 _ZN6Marble17FrameGraphicsItemC1EPNS_18MarbleGraphicsItemE@Base 4:15.08.0
 _ZN6Marble17FrameGraphicsItemC2EPNS_18MarbleGraphicsItemE@Base 4:15.08.0
 _ZN6Marble17FrameGraphicsItemD0Ev@Base 4:15.08.0
 _ZN6Marble17FrameGraphicsItemD1Ev@Base 4:15.08.0
 _ZN6Marble17FrameGraphicsItemD2Ev@Base 4:15.08.0
 _ZN6Marble17GammaDarkBlendingD0Ev@Base 4:15.08.0
 _ZN6Marble17GammaDarkBlendingD1Ev@Base 4:15.08.0
 _ZN6Marble17GammaDarkBlendingD2Ev@Base 4:15.08.0
 _ZN6Marble17GeoDataColorStyle12setColorModeERKNS0_9ColorModeE@Base 4:15.08.0
 _ZN6Marble17GeoDataColorStyle6unpackER11QDataStream@Base 4:15.08.0
 _ZN6Marble17GeoDataColorStyle8setColorERK6QColor@Base 4:15.08.0
 _ZN6Marble17GeoDataColorStyleC1ERKS0_@Base 4:15.08.0
 _ZN6Marble17GeoDataColorStyleC1Ev@Base 4:15.08.0
 _ZN6Marble17GeoDataColorStyleC2ERKS0_@Base 4:15.08.0
 _ZN6Marble17GeoDataColorStyleC2Ev@Base 4:15.08.0
 _ZN6Marble17GeoDataColorStyleD0Ev@Base 4:15.08.0
 _ZN6Marble17GeoDataColorStyleD1Ev@Base 4:15.08.0
 _ZN6Marble17GeoDataColorStyleD2Ev@Base 4:15.08.0
 _ZN6Marble17GeoDataColorStyleaSERKS0_@Base 4:15.08.0
 _ZN6Marble17GeoDataLabelStyle12setAlignmentENS0_9AlignmentE@Base 4:15.08.0
 _ZN6Marble17GeoDataLabelStyle6unpackER11QDataStream@Base 4:15.08.0
 _ZN6Marble17GeoDataLabelStyle7setFontERK5QFont@Base 4:15.08.0
 _ZN6Marble17GeoDataLabelStyle7setGlowEb@Base 4:15.08.0
 _ZN6Marble17GeoDataLabelStyle8setScaleERKf@Base 4:15.08.0
 _ZN6Marble17GeoDataLabelStyleC1ERK5QFontRK6QColor@Base 4:15.08.0
 _ZN6Marble17GeoDataLabelStyleC1ERKS0_@Base 4:15.08.0
 _ZN6Marble17GeoDataLabelStyleC1Ev@Base 4:15.08.0
 _ZN6Marble17GeoDataLabelStyleC2ERK5QFontRK6QColor@Base 4:15.08.0
 _ZN6Marble17GeoDataLabelStyleC2ERKS0_@Base 4:15.08.0
 _ZN6Marble17GeoDataLabelStyleC2Ev@Base 4:15.08.0
 _ZN6Marble17GeoDataLabelStyleD0Ev@Base 4:15.08.0
 _ZN6Marble17GeoDataLabelStyleD1Ev@Base 4:15.08.0
 _ZN6Marble17GeoDataLabelStyleD2Ev@Base 4:15.08.0
 _ZN6Marble17GeoDataLabelStyleaSERKS0_@Base 4:15.08.0
 _ZN6Marble17GeoDataLatLonQuad10setTopLeftERKNS_18GeoDataCoordinatesE@Base 4:15.08.0
 _ZN6Marble17GeoDataLatLonQuad11setTopRightERKNS_18GeoDataCoordinatesE@Base 4:15.08.0
 _ZN6Marble17GeoDataLatLonQuad13setBottomLeftERKNS_18GeoDataCoordinatesE@Base 4:15.08.0
 _ZN6Marble17GeoDataLatLonQuad14setBottomRightERKNS_18GeoDataCoordinatesE@Base 4:15.08.0
 _ZN6Marble17GeoDataLatLonQuad18setTopLeftLatitudeEdNS_18GeoDataCoordinates4UnitE@Base 4:15.08.0
 _ZN6Marble17GeoDataLatLonQuad19setTopLeftLongitudeEdNS_18GeoDataCoordinates4UnitE@Base 4:15.08.0
 _ZN6Marble17GeoDataLatLonQuad19setTopRightLatitudeEdNS_18GeoDataCoordinates4UnitE@Base 4:15.08.0
 _ZN6Marble17GeoDataLatLonQuad20setTopRightLongitudeEdNS_18GeoDataCoordinates4UnitE@Base 4:15.08.0
 _ZN6Marble17GeoDataLatLonQuad21setBottomLeftLatitudeEdNS_18GeoDataCoordinates4UnitE@Base 4:15.08.0
 _ZN6Marble17GeoDataLatLonQuad22setBottomLeftLongitudeEdNS_18GeoDataCoordinates4UnitE@Base 4:15.08.0
 _ZN6Marble17GeoDataLatLonQuad22setBottomRightLatitudeEdNS_18GeoDataCoordinates4UnitE@Base 4:15.08.0
 _ZN6Marble17GeoDataLatLonQuad23setBottomRightLongitudeEdNS_18GeoDataCoordinates4UnitE@Base 4:15.08.0
 _ZN6Marble17GeoDataLatLonQuadC1ERKS0_@Base 4:15.08.0
 _ZN6Marble17GeoDataLatLonQuadC1Ev@Base 4:15.08.0
 _ZN6Marble17GeoDataLatLonQuadC2ERKS0_@Base 4:15.08.0
 _ZN6Marble17GeoDataLatLonQuadC2Ev@Base 4:15.08.0
 _ZN6Marble17GeoDataLatLonQuadD0Ev@Base 4:15.08.0
 _ZN6Marble17GeoDataLatLonQuadD1Ev@Base 4:15.08.0
 _ZN6Marble17GeoDataLatLonQuadD2Ev@Base 4:15.08.0
 _ZN6Marble17GeoDataLatLonQuadaSERKS0_@Base 4:15.08.0
 _ZN6Marble17GeoDataLineString13setTessellateEb@Base 4:15.08.0
 _ZN6Marble17GeoDataLineString1pEv@Base 4:15.08.0
 _ZN6Marble17GeoDataLineString20setTessellationFlagsE6QFlagsINS_16TessellationFlagEE@Base 4:15.08.0
 _ZN6Marble17GeoDataLineString2atEi@Base 4:15.08.0
 _ZN6Marble17GeoDataLineString3endEv@Base 4:15.08.0
 _ZN6Marble17GeoDataLineString4lastEv@Base 4:15.08.0
 _ZN6Marble17GeoDataLineString5beginEv@Base 4:15.08.0
 _ZN6Marble17GeoDataLineString5clearEv@Base 4:15.08.0
 _ZN6Marble17GeoDataLineString5eraseEPNS_18GeoDataCoordinatesE@Base 4:15.08.0
 _ZN6Marble17GeoDataLineString5eraseEPNS_18GeoDataCoordinatesES2_@Base 4:15.08.0
 _ZN6Marble17GeoDataLineString5firstEv@Base 4:15.08.0
 _ZN6Marble17GeoDataLineString6appendERKNS_18GeoDataCoordinatesE@Base 4:15.08.0
 _ZN6Marble17GeoDataLineString6insertEiRKNS_18GeoDataCoordinatesE@Base 4:15.08.0
 _ZN6Marble17GeoDataLineString6removeEi@Base 4:15.08.0
 _ZN6Marble17GeoDataLineString6unpackER11QDataStream@Base 4:15.08.0
 _ZN6Marble17GeoDataLineStringC1E6QFlagsINS_16TessellationFlagEE@Base 4:15.08.0
 _ZN6Marble17GeoDataLineStringC1EPNS_24GeoDataLineStringPrivateE@Base 4:15.08.0
 _ZN6Marble17GeoDataLineStringC1ERKNS_15GeoDataGeometryE@Base 4:15.08.0
 _ZN6Marble17GeoDataLineStringC2E6QFlagsINS_16TessellationFlagEE@Base 4:15.08.0
 _ZN6Marble17GeoDataLineStringC2EPNS_24GeoDataLineStringPrivateE@Base 4:15.08.0
 _ZN6Marble17GeoDataLineStringC2ERKNS_15GeoDataGeometryE@Base 4:15.08.0
 _ZN6Marble17GeoDataLineStringD0Ev@Base 4:15.08.0
 _ZN6Marble17GeoDataLineStringD1Ev@Base 4:15.08.0
 _ZN6Marble17GeoDataLineStringD2Ev@Base 4:15.08.0
 _ZN6Marble17GeoDataLineStringixEi@Base 4:15.08.0
 _ZN6Marble17GeoDataLineStringlsERKNS_18GeoDataCoordinatesE@Base 4:15.08.0
 _ZN6Marble17GeoDataLineStringlsERKS0_@Base 4:15.08.0
 _ZN6Marble17GeoDataLinearRingC1E6QFlagsINS_16TessellationFlagEE@Base 4:15.08.0
 _ZN6Marble17GeoDataLinearRingC1ERKNS_15GeoDataGeometryE@Base 4:15.08.0
 _ZN6Marble17GeoDataLinearRingC2E6QFlagsINS_16TessellationFlagEE@Base 4:15.08.0
 _ZN6Marble17GeoDataLinearRingC2ERKNS_15GeoDataGeometryE@Base 4:15.08.0
 _ZN6Marble17GeoDataLinearRingD0Ev@Base 4:15.08.0
 _ZN6Marble17GeoDataLinearRingD1Ev@Base 4:15.08.0
 _ZN6Marble17GeoDataLinearRingD2Ev@Base 4:15.08.0
 _ZN6Marble17GeoDataMultiTrack1pEv@Base 4:15.08.0
 _ZN6Marble17GeoDataMultiTrack2atEi@Base 4:15.08.0
 _ZN6Marble17GeoDataMultiTrack3endEv@Base 4:15.08.0
 _ZN6Marble17GeoDataMultiTrack4lastEv@Base 4:15.08.0
 _ZN6Marble17GeoDataMultiTrack5beginEv@Base 4:15.08.0
 _ZN6Marble17GeoDataMultiTrack5childEi@Base 4:15.08.0
 _ZN6Marble17GeoDataMultiTrack5clearEv@Base 4:15.08.0
 _ZN6Marble17GeoDataMultiTrack5firstEv@Base 4:15.08.0
 _ZN6Marble17GeoDataMultiTrack6appendEPNS_12GeoDataTrackE@Base 4:15.08.0
 _ZN6Marble17GeoDataMultiTrack6unpackER11QDataStream@Base 4:15.08.0
 _ZN6Marble17GeoDataMultiTrackC1ERKNS_15GeoDataGeometryE@Base 4:15.08.0
 _ZN6Marble17GeoDataMultiTrackC1Ev@Base 4:15.08.0
 _ZN6Marble17GeoDataMultiTrackC2ERKNS_15GeoDataGeometryE@Base 4:15.08.0
 _ZN6Marble17GeoDataMultiTrackC2Ev@Base 4:15.08.0
 _ZN6Marble17GeoDataMultiTrackD0Ev@Base 4:15.08.0
 _ZN6Marble17GeoDataMultiTrackD1Ev@Base 4:15.08.0
 _ZN6Marble17GeoDataMultiTrackD2Ev@Base 4:15.08.0
 _ZN6Marble17GeoDataMultiTrackixEi@Base 4:15.08.0
 _ZN6Marble17GeoDataMultiTracklsERKNS_12GeoDataTrackE@Base 4:15.08.0
 _ZN6Marble17GeoDataSchemaData12setSchemaUrlERK7QString@Base 4:15.08.0
 _ZN6Marble17GeoDataSchemaData13addSimpleDataERKNS_17GeoDataSimpleDataE@Base 4:15.08.0
 _ZN6Marble17GeoDataSchemaData6parentEv@Base 4:15.08.0
 _ZN6Marble17GeoDataSchemaData6unpackER11QDataStream@Base 4:15.08.0
 _ZN6Marble17GeoDataSchemaData9setParentEPNS_7GeoNodeE@Base 4:15.08.0
 _ZN6Marble17GeoDataSchemaDataC1ERKS0_@Base 4:15.08.0
 _ZN6Marble17GeoDataSchemaDataC1Ev@Base 4:15.08.0
 _ZN6Marble17GeoDataSchemaDataC2ERKS0_@Base 4:15.08.0
 _ZN6Marble17GeoDataSchemaDataC2Ev@Base 4:15.08.0
 _ZN6Marble17GeoDataSchemaDataD0Ev@Base 4:15.08.0
 _ZN6Marble17GeoDataSchemaDataD1Ev@Base 4:15.08.0
 _ZN6Marble17GeoDataSchemaDataD2Ev@Base 4:15.08.0
 _ZN6Marble17GeoDataSchemaDataaSERKS0_@Base 4:15.08.0
 _ZN6Marble17GeoDataSimpleData6unpackER11QDataStream@Base 4:15.08.0
 _ZN6Marble17GeoDataSimpleData7setDataERK7QString@Base 4:15.08.0
 _ZN6Marble17GeoDataSimpleData7setNameERK7QString@Base 4:15.08.0
 _ZN6Marble17GeoDataSimpleDataC1ERKS0_@Base 4:15.08.0
 _ZN6Marble17GeoDataSimpleDataC1Ev@Base 4:15.08.0
 _ZN6Marble17GeoDataSimpleDataC2ERKS0_@Base 4:15.08.0
 _ZN6Marble17GeoDataSimpleDataC2Ev@Base 4:15.08.0
 _ZN6Marble17GeoDataSimpleDataD0Ev@Base 4:15.08.0
 _ZN6Marble17GeoDataSimpleDataD1Ev@Base 4:15.08.0
 _ZN6Marble17GeoDataSimpleDataD2Ev@Base 4:15.08.0
 _ZN6Marble17GeoDataSimpleDataaSERKS0_@Base 4:15.08.0
 _ZN6Marble17GeoDataViewVolume10setLeftFovERKd@Base 4:15.08.0
 _ZN6Marble17GeoDataViewVolume11setRightFovERKd@Base 4:15.08.0
 _ZN6Marble17GeoDataViewVolume12setBottomFovERKd@Base 4:15.08.0
 _ZN6Marble17GeoDataViewVolume7setNearERKd@Base 4:15.08.0
 _ZN6Marble17GeoDataViewVolume9setTopFovERKd@Base 4:15.08.0
 _ZN6Marble17GeoDataViewVolumeC1ERKS0_@Base 4:15.08.0
 _ZN6Marble17GeoDataViewVolumeC1Ev@Base 4:15.08.0
 _ZN6Marble17GeoDataViewVolumeC2ERKS0_@Base 4:15.08.0
 _ZN6Marble17GeoDataViewVolumeC2Ev@Base 4:15.08.0
 _ZN6Marble17GeoDataViewVolumeD0Ev@Base 4:15.08.0
 _ZN6Marble17GeoDataViewVolumeD1Ev@Base 4:15.08.0
 _ZN6Marble17GeoDataViewVolumeD2Ev@Base 4:15.08.0
 _ZN6Marble17GeoDataViewVolumeaSERKS0_@Base 4:15.08.0
 _ZN6Marble17GeoPainterPrivate22createAnnotationLayoutEdd6QSizeFddddR12QPainterPathR6QRectF@Base 4:15.08.0
 _ZN6Marble17GeoPainterPrivate27createLinearRingFromGeoRectERKNS_18GeoDataCoordinatesEdd@Base 4:15.08.0
 _ZN6Marble17GeoPainterPrivate6doClipEPKNS_14ViewportParamsE@Base 4:15.08.0
 _ZN6Marble17GeoPainterPrivateC1EPKNS_14ViewportParamsENS_10MapQualityE@Base 4:15.08.0
 _ZN6Marble17GeoPainterPrivateC2EPKNS_14ViewportParamsENS_10MapQualityE@Base 4:15.08.0
 _ZN6Marble17GeoPainterPrivateD1Ev@Base 4:15.08.0
 _ZN6Marble17GeoPainterPrivateD2Ev@Base 4:15.08.0
 _ZN6Marble17GoToDialogPrivate11startSearchEv@Base 4:15.08.0
 _ZN6Marble17GoToDialogPrivate13saveSelectionERK11QModelIndex@Base 4:15.08.0
 _ZN6Marble17GoToDialogPrivate14updateProgressEv@Base 4:15.08.0
 _ZN6Marble17GoToDialogPrivate16updateSearchModeEv@Base 4:15.08.0
 _ZN6Marble17GoToDialogPrivate18updateSearchResultE7QVectorIPNS_16GeoDataPlacemarkEE@Base 4:15.08.0
 _ZN6Marble17GoToDialogPrivate19updateResultMessageEi@Base 4:15.08.0
 _ZN6Marble17GoToDialogPrivate21stopProgressAnimationEv@Base 4:15.08.0
 _ZN6Marble17GoToDialogPrivate23createProgressAnimationEv@Base 4:15.08.0
 _ZN6Marble17GoToDialogPrivateC1EPNS_10GoToDialogEPNS_11MarbleModelE@Base 4:15.08.0
 _ZN6Marble17GoToDialogPrivateC2EPNS_10GoToDialogEPNS_11MarbleModelE@Base 4:15.08.0
 _ZN6Marble17GrayscaleBlendingD0Ev@Base 4:15.08.0
 _ZN6Marble17GrayscaleBlendingD1Ev@Base 4:15.08.0
 _ZN6Marble17GrayscaleBlendingD2Ev@Base 4:15.08.0
 _ZN6Marble17HardLightBlendingD0Ev@Base 4:15.08.0
 _ZN6Marble17HardLightBlendingD1Ev@Base 4:15.08.0
 _ZN6Marble17HardLightBlendingD2Ev@Base 4:15.08.0
 _ZN6Marble17KmlFlyToTagWriterD0Ev@Base 4:15.08.0
 _ZN6Marble17KmlFlyToTagWriterD1Ev@Base 4:15.08.0
 _ZN6Marble17KmlFlyToTagWriterD2Ev@Base 4:15.08.0
 _ZN6Marble17KmlModelTagWriterD0Ev@Base 4:15.08.0
 _ZN6Marble17KmlModelTagWriterD1Ev@Base 4:15.08.0
 _ZN6Marble17KmlModelTagWriterD2Ev@Base 4:15.08.0
 _ZN6Marble17KmlPointTagWriterD0Ev@Base 4:15.08.0
 _ZN6Marble17KmlPointTagWriterD1Ev@Base 4:15.08.0
 _ZN6Marble17KmlPointTagWriterD2Ev@Base 4:15.08.0
 _ZN6Marble17KmlStyleTagWriterD0Ev@Base 4:15.08.0
 _ZN6Marble17KmlStyleTagWriterD1Ev@Base 4:15.08.0
 _ZN6Marble17KmlStyleTagWriterD2Ev@Base 4:15.08.0
 _ZN6Marble17KmlTimeSpanWriterD0Ev@Base 4:15.08.0
 _ZN6Marble17KmlTimeSpanWriterD1Ev@Base 4:15.08.0
 _ZN6Marble17KmlTimeSpanWriterD2Ev@Base 4:15.08.0
 _ZN6Marble17LabelGraphicsItem12paintContentEP8QPainter@Base 4:15.08.0
 _ZN6Marble17LabelGraphicsItem14setContentSizeERK6QSizeF@Base 4:15.08.0
 _ZN6Marble17LabelGraphicsItem14setMinimumSizeERK6QSizeF@Base 4:15.08.0
 _ZN6Marble17LabelGraphicsItem5clearEv@Base 4:15.08.0
 _ZN6Marble17LabelGraphicsItem7setIconERK5QIconRK5QSize@Base 4:15.08.0
 _ZN6Marble17LabelGraphicsItem7setTextERK7QString@Base 4:15.08.0
 _ZN6Marble17LabelGraphicsItem8setImageERK6QImageRK5QSize@Base 4:15.08.0
 _ZN6Marble17LabelGraphicsItemC1EPNS_18MarbleGraphicsItemE@Base 4:15.08.0
 _ZN6Marble17LabelGraphicsItemC2EPNS_18MarbleGraphicsItemE@Base 4:15.08.0
 _ZN6Marble17LabelGraphicsItemD0Ev@Base 4:15.08.0
 _ZN6Marble17LabelGraphicsItemD1Ev@Base 4:15.08.0
 _ZN6Marble17LabelGraphicsItemD2Ev@Base 4:15.08.0
 _ZN6Marble17LatLonEditPrivate4initEP7QWidget@Base 4:15.08.0
 _ZN6Marble17LatLonEditPrivateC1Ev@Base 4:15.08.0
 _ZN6Marble17LatLonEditPrivateC2Ev@Base 4:15.08.0
 _ZN6Marble17LatLonEditPrivateD1Ev@Base 4:15.08.0
 _ZN6Marble17LatLonEditPrivateD2Ev@Base 4:15.08.0
 _ZN6Marble17MarbleAboutDialog11qt_metacallEN11QMetaObject4CallEiPPv@Base 4:15.08.0
 _ZN6Marble17MarbleAboutDialog11qt_metacastEPKc@Base 4:15.08.0
 _ZN6Marble17MarbleAboutDialog13setInitialTabENS0_3TabE@Base 4:15.08.0
 _ZN6Marble17MarbleAboutDialog16staticMetaObjectE@Base 4:15.08.0
 _ZN6Marble17MarbleAboutDialog19setApplicationTitleERK7QString@Base 4:15.08.0
 _ZN6Marble17MarbleAboutDialogC1EP7QWidget@Base 4:15.08.0
 _ZN6Marble17MarbleAboutDialogC2EP7QWidget@Base 4:15.08.0
 _ZN6Marble17MarbleAboutDialogD0Ev@Base 4:15.08.0
 _ZN6Marble17MarbleAboutDialogD1Ev@Base 4:15.08.0
 _ZN6Marble17MarbleAboutDialogD2Ev@Base 4:15.08.0
 _ZN6Marble17MarbleSplashLayer6renderEPNS_10GeoPainterEPNS_14ViewportParamsERK7QStringPNS_13GeoSceneLayerE@Base 4:15.08.0
 _ZN6Marble17MarbleSplashLayerC1Ev@Base 4:15.08.0
 _ZN6Marble17MarbleSplashLayerC2Ev@Base 4:15.08.0
 _ZN6Marble17MarbleSplashLayerD0Ev@Base 4:15.08.0
 _ZN6Marble17MarbleSplashLayerD1Ev@Base 4:15.08.0
 _ZN6Marble17MarbleSplashLayerD2Ev@Base 4:15.08.0
 _ZN6Marble17OverpaintBlendingD0Ev@Base 4:15.08.0
 _ZN6Marble17OverpaintBlendingD1Ev@Base 4:15.08.0
 _ZN6Marble17OverpaintBlendingD2Ev@Base 4:15.08.0
 _ZN6Marble17ParseRunnerPlugin11qt_metacallEN11QMetaObject4CallEiPPv@Base 4:15.08.0
 _ZN6Marble17ParseRunnerPlugin11qt_metacastEPKc@Base 4:15.08.0
 _ZN6Marble17ParseRunnerPlugin16staticMetaObjectE@Base 4:15.08.0
 _ZN6Marble17ParseRunnerPlugin7PrivateC1Ev@Base 4:15.08.0
 _ZN6Marble17ParseRunnerPlugin7PrivateC2Ev@Base 4:15.08.0
 _ZN6Marble17ParseRunnerPluginC1EP7QObject@Base 4:15.08.0
 _ZN6Marble17ParseRunnerPluginC2EP7QObject@Base 4:15.08.0
 _ZN6Marble17ParseRunnerPluginD0Ev@Base 4:15.08.0
 _ZN6Marble17ParseRunnerPluginD1Ev@Base 4:15.08.0
 _ZN6Marble17ParseRunnerPluginD2Ev@Base 4:15.08.0
 _ZN6Marble17PlaybackFlyToItem11qt_metacallEN11QMetaObject4CallEiPPv@Base 4:15.08.0
 _ZN6Marble17PlaybackFlyToItem11qt_metacastEPKc@Base 4:15.08.0
 _ZN6Marble17PlaybackFlyToItem16staticMetaObjectE@Base 4:15.08.0
 _ZN6Marble17PlaybackFlyToItem4playEv@Base 4:15.08.0
 _ZN6Marble17PlaybackFlyToItem4seekEd@Base 4:15.08.0
 _ZN6Marble17PlaybackFlyToItem4stopEv@Base 4:15.08.0
 _ZN6Marble17PlaybackFlyToItem5pauseEv@Base 4:15.08.0
 _ZN6Marble17PlaybackFlyToItem6centerEd@Base 4:15.08.0
 _ZN6Marble17PlaybackFlyToItem7setNextEPS0_@Base 4:15.08.0
 _ZN6Marble17PlaybackFlyToItem8playNextEv@Base 4:15.08.0
 _ZN6Marble17PlaybackFlyToItem8setFirstEb@Base 4:15.08.0
 _ZN6Marble17PlaybackFlyToItem9setBeforeEPS0_@Base 4:15.08.0
 _ZN6Marble17PlaybackFlyToItemC1EPKNS_12GeoDataFlyToE@Base 4:15.08.0
 _ZN6Marble17PlaybackFlyToItemC2EPKNS_12GeoDataFlyToE@Base 4:15.08.0
 _ZN6Marble17PlaybackFlyToItemD0Ev@Base 4:15.08.0
 _ZN6Marble17PlaybackFlyToItemD1Ev@Base 4:15.08.0
 _ZN6Marble17PlaybackFlyToItemD2Ev@Base 4:15.08.0
 _ZN6Marble17PluginAboutDialog10setAuthorsERK5QListINS_12PluginAuthorEE@Base 4:15.08.0
 _ZN6Marble17PluginAboutDialog10setLicenseENS0_10LicenseKeyE@Base 4:15.08.0
 _ZN6Marble17PluginAboutDialog10setVersionERK7QString@Base 4:15.08.0
 _ZN6Marble17PluginAboutDialog11qt_metacallEN11QMetaObject4CallEiPPv@Base 4:15.08.0
 _ZN6Marble17PluginAboutDialog11qt_metacastEPKc@Base 4:15.08.0
 _ZN6Marble17PluginAboutDialog11setDataTextERK7QString@Base 4:15.08.0
 _ZN6Marble17PluginAboutDialog12setAboutTextERK7QString@Base 4:15.08.0
 _ZN6Marble17PluginAboutDialog14setAuthorsTextERK7QString@Base 4:15.08.0
 _ZN6Marble17PluginAboutDialog16staticMetaObjectE@Base 4:15.08.0
 _ZN6Marble17PluginAboutDialog23setLicenseAgreementTextERK7QString@Base 4:15.08.0
 _ZN6Marble17PluginAboutDialog7setIconERK5QIcon@Base 4:15.08.0
 _ZN6Marble17PluginAboutDialog7setNameERK7QString@Base 4:15.08.0
 _ZN6Marble17PluginAboutDialogC1EP7QWidget@Base 4:15.08.0
 _ZN6Marble17PluginAboutDialogC2EP7QWidget@Base 4:15.08.0
 _ZN6Marble17PluginAboutDialogD0Ev@Base 4:15.08.0
 _ZN6Marble17PluginAboutDialogD1Ev@Base 4:15.08.0
 _ZN6Marble17PluginAboutDialogD2Ev@Base 4:15.08.0
 _ZN6Marble17RenderPluginModel11qt_metacallEN11QMetaObject4CallEiPPv@Base 4:15.08.0
 _ZN6Marble17RenderPluginModel11qt_metacastEPKc@Base 4:15.08.0
 _ZN6Marble17RenderPluginModel16applyPluginStateEv@Base 4:15.08.0
 _ZN6Marble17RenderPluginModel16setRenderPluginsERK5QListIPNS_12RenderPluginEE@Base 4:15.08.0
 _ZN6Marble17RenderPluginModel16staticMetaObjectE@Base 4:15.08.0
 _ZN6Marble17RenderPluginModel19retrievePluginStateEv@Base 4:15.08.0
 _ZN6Marble17RenderPluginModel34pluginDialogConfigurationInterfaceERK11QModelIndex@Base 4:15.08.0
 _ZN6Marble17RenderPluginModel7Private29renderPluginGuiStringLessThanEPNS_12RenderPluginES3_@Base 4:15.08.0
 _ZN6Marble17RenderPluginModel7PrivateC1Ev@Base 4:15.08.0
 _ZN6Marble17RenderPluginModel7PrivateC2Ev@Base 4:15.08.0
 _ZN6Marble17RenderPluginModelC1EP7QObject@Base 4:15.08.0
 _ZN6Marble17RenderPluginModelC2EP7QObject@Base 4:15.08.0
 _ZN6Marble17RenderPluginModelD0Ev@Base 4:15.08.0
 _ZN6Marble17RenderPluginModelD1Ev@Base 4:15.08.0
 _ZN6Marble17RenderPluginModelD2Ev@Base 4:15.08.0
 _ZN6Marble17RouteItemDelegate11editorEventEP6QEventP18QAbstractItemModelRK20QStyleOptionViewItemRK11QModelIndex@Base 4:15.08.0
 _ZN6Marble17RouteItemDelegate11qt_metacallEN11QMetaObject4CallEiPPv@Base 4:15.08.0
 _ZN6Marble17RouteItemDelegate11qt_metacastEPKc@Base 4:15.08.0
 _ZN6Marble17RouteItemDelegate16staticMetaObjectE@Base 4:15.08.0
 _ZN6Marble17RouteItemDelegate17openButtonClickedE7QString@Base 4:15.08.0
 _ZN6Marble17RouteItemDelegate19deleteButtonClickedE7QString@Base 4:15.08.0
 _ZN6Marble17RouteItemDelegate21downloadButtonClickedE7QString@Base 4:15.08.0
 _ZN6Marble17RouteItemDelegate26uploadToCloudButtonClickedE7QString@Base 4:15.08.0
 _ZN6Marble17RouteItemDelegate28removeFromCacheButtonClickedE7QString@Base 4:15.08.0
 _ZN6Marble17RouteItemDelegate4textERK11QModelIndex@Base 4:15.08.0
 _ZN6Marble17RouteItemDelegateC1EP9QListViewPNS_15CloudRouteModelE@Base 4:15.08.0
 _ZN6Marble17RouteItemDelegateC2EP9QListViewPNS_15CloudRouteModelE@Base 4:15.08.0
 _ZN6Marble17RouteItemDelegateD0Ev@Base 4:15.08.0
 _ZN6Marble17RouteItemDelegateD1Ev@Base 4:15.08.0
 _ZN6Marble17RouteItemDelegateD2Ev@Base 4:15.08.0
 _ZN6Marble17SearchInputWidget11qt_metacallEN11QMetaObject4CallEiPPv@Base 4:15.08.0
 _ZN6Marble17SearchInputWidget11qt_metacastEPKc@Base 4:15.08.0
 _ZN6Marble17SearchInputWidget13setAreaSearchEv@Base 4:15.08.0
 _ZN6Marble17SearchInputWidget15setGlobalSearchEv@Base 4:15.08.0
 _ZN6Marble17SearchInputWidget16showDropDownMenuEv@Base 4:15.08.0
 _ZN6Marble17SearchInputWidget16staticMetaObjectE@Base 4:15.08.0
 _ZN6Marble17SearchInputWidget18setCompletionModelEP18QAbstractItemModel@Base 4:15.08.0
 _ZN6Marble17SearchInputWidget21updatePlaceholderTextEv@Base 4:15.08.0
 _ZN6Marble17SearchInputWidget22disableSearchAnimationEv@Base 4:15.08.0
 _ZN6Marble17SearchInputWidget24centerOnSearchSuggestionERK11QModelIndex@Base 4:15.08.0
 _ZN6Marble17SearchInputWidget6searchERK7QStringNS_10SearchModeE@Base 4:15.08.0
 _ZN6Marble17SearchInputWidget6searchEv@Base 4:15.08.0
 _ZN6Marble17SearchInputWidget8centerOnERKNS_18GeoDataCoordinatesE@Base 4:15.08.0
 _ZN6Marble17SearchInputWidgetC1EP7QWidget@Base 4:15.08.0
 _ZN6Marble17SearchInputWidgetC2EP7QWidget@Base 4:15.08.0
 _ZN6Marble17SearchInputWidgetD0Ev@Base 4:15.08.0
 _ZN6Marble17SearchInputWidgetD1Ev@Base 4:15.08.0
 _ZN6Marble17SearchInputWidgetD2Ev@Base 4:15.08.0
 _ZN6Marble17SoftLightBlendingD0Ev@Base 4:15.08.0
 _ZN6Marble17SoftLightBlendingD1Ev@Base 4:15.08.0
 _ZN6Marble17SoftLightBlendingD2Ev@Base 4:15.08.0
 _ZN6Marble17SpeakersModelItem8lessThanERKS0_S2_@Base 4:15.08.0
 _ZN6Marble17SpeakersModelItemC1Ev@Base 4:15.08.0
 _ZN6Marble17SpeakersModelItemC2Ev@Base 4:15.08.0
 _ZN6Marble17StackedTileLoader10tileLoadedERKNS_6TileIdE@Base 4:15.08.0
 _ZN6Marble17StackedTileLoader10updateTileERKNS_6TileIdERK6QImage@Base 4:15.08.0
 _ZN6Marble17StackedTileLoader11qt_metacallEN11QMetaObject4CallEiPPv@Base 4:15.08.0
 _ZN6Marble17StackedTileLoader11qt_metacastEPKc@Base 4:15.08.0
 _ZN6Marble17StackedTileLoader13resetTilehashEv@Base 4:15.08.0
 _ZN6Marble17StackedTileLoader15cleanupTilehashEv@Base 4:15.08.0
 _ZN6Marble17StackedTileLoader16staticMetaObjectE@Base 4:15.08.0
 _ZN6Marble17StackedTileLoader21setVolatileCacheLimitEy@Base 4:15.08.0
 _ZN6Marble17StackedTileLoader5clearEv@Base 4:15.08.0
 _ZN6Marble17StackedTileLoader7clearedEv@Base 4:15.08.0
 _ZN6Marble17StackedTileLoader8loadTileERKNS_6TileIdE@Base 4:15.08.0
 _ZN6Marble17StackedTileLoaderC1EPNS_20MergedLayerDecoratorEP7QObject@Base 4:15.08.0
 _ZN6Marble17StackedTileLoaderC2EPNS_20MergedLayerDecoratorEP7QObject@Base 4:15.08.0
 _ZN6Marble17StackedTileLoaderD0Ev@Base 4:15.08.0
 _ZN6Marble17StackedTileLoaderD1Ev@Base 4:15.08.0
 _ZN6Marble17StackedTileLoaderD2Ev@Base 4:15.08.0
 _ZN6Marble17TileCoordsPyramid20setBottomLevelCoordsERK5QRect@Base 4:15.08.0
 _ZN6Marble17TileCoordsPyramid4swapERS0_@Base 4:15.08.0
 _ZN6Marble17TileCoordsPyramid7PrivateC1Eii@Base 4:15.08.0
 _ZN6Marble17TileCoordsPyramid7PrivateC2Eii@Base 4:15.08.0
 _ZN6Marble17TileCoordsPyramidC1ERKS0_@Base 4:15.08.0
 _ZN6Marble17TileCoordsPyramidC1Eii@Base 4:15.08.0
 _ZN6Marble17TileCoordsPyramidC1Ev@Base 4:15.08.0
 _ZN6Marble17TileCoordsPyramidC2ERKS0_@Base 4:15.08.0
 _ZN6Marble17TileCoordsPyramidC2Eii@Base 4:15.08.0
 _ZN6Marble17TileCoordsPyramidC2Ev@Base 4:15.08.0
 _ZN6Marble17TileCoordsPyramidD1Ev@Base 4:15.08.0
 _ZN6Marble17TileCoordsPyramidD2Ev@Base 4:15.08.0
 _ZN6Marble17TileCoordsPyramidaSERKS0_@Base 4:15.08.0
 _ZN6Marble17TileCreatorDialog10setSummaryERK7QStringS3_@Base 4:15.08.0
 _ZN6Marble17TileCreatorDialog11qt_metacallEN11QMetaObject4CallEiPPv@Base 4:15.08.0
 _ZN6Marble17TileCreatorDialog11qt_metacastEPKc@Base 4:15.08.0
 _ZN6Marble17TileCreatorDialog11setProgressEi@Base 4:15.08.0
 _ZN6Marble17TileCreatorDialog16staticMetaObjectE@Base 4:15.08.0
 _ZN6Marble17TileCreatorDialog18cancelTileCreationEv@Base 4:15.08.0
 _ZN6Marble17TileCreatorDialogC1EPNS_11TileCreatorEP7QWidget@Base 4:15.08.0
 _ZN6Marble17TileCreatorDialogC2EPNS_11TileCreatorEP7QWidget@Base 4:15.08.0
 _ZN6Marble17TileCreatorDialogD0Ev@Base 4:15.08.0
 _ZN6Marble17TileCreatorDialogD1Ev@Base 4:15.08.0
 _ZN6Marble17TileCreatorDialogD2Ev@Base 4:15.08.0
 _ZN6Marble17TimeControlWidget10nowClickedEv@Base 4:15.08.0
 _ZN6Marble17TimeControlWidget11qt_metacallEN11QMetaObject4CallEiPPv@Base 4:15.08.0
 _ZN6Marble17TimeControlWidget11qt_metacastEPKc@Base 4:15.08.0
 _ZN6Marble17TimeControlWidget14updateDateTimeEv@Base 4:15.08.0
 _ZN6Marble17TimeControlWidget16staticMetaObjectE@Base 4:15.08.0
 _ZN6Marble17TimeControlWidget16updateSpeedLabelEi@Base 4:15.08.0
 _ZN6Marble17TimeControlWidget17updateRefreshRateEi@Base 4:15.08.0
 _ZN6Marble17TimeControlWidget5applyEv@Base 4:15.08.0
 _ZN6Marble17TimeControlWidget9showEventEP10QShowEvent@Base 4:15.08.0
 _ZN6Marble17TimeControlWidgetC1EPNS_11MarbleClockEP7QWidget@Base 4:15.08.0
 _ZN6Marble17TimeControlWidgetC2EPNS_11MarbleClockEP7QWidget@Base 4:15.08.0
 _ZN6Marble17TimeControlWidgetD0Ev@Base 4:15.08.0
 _ZN6Marble17TimeControlWidgetD1Ev@Base 4:15.08.0
 _ZN6Marble17TimeControlWidgetD2Ev@Base 4:15.08.0
 _ZN6Marble17TourCaptureDialog11handleErrorEv@Base 4:15.08.0
 _ZN6Marble17TourCaptureDialog11qt_metacallEN11QMetaObject4CallEiPPv@Base 4:15.08.0
 _ZN6Marble17TourCaptureDialog11qt_metacastEPKc@Base 4:15.08.0
 _ZN6Marble17TourCaptureDialog13stopRecordingEv@Base 4:15.08.0
 _ZN6Marble17TourCaptureDialog14startRecordingEv@Base 4:15.08.0
 _ZN6Marble17TourCaptureDialog14updateProgressEd@Base 4:15.08.0
 _ZN6Marble17TourCaptureDialog15recordNextFrameEv@Base 4:15.08.0
 _ZN6Marble17TourCaptureDialog15setTourPlaybackEPNS_12TourPlaybackE@Base 4:15.08.0
 _ZN6Marble17TourCaptureDialog16staticMetaObjectE@Base 4:15.08.0
 _ZN6Marble17TourCaptureDialog18setDefaultFilenameERK7QString@Base 4:15.08.0
 _ZN6Marble17TourCaptureDialog19loadDestinationFileEv@Base 4:15.08.0
 _ZN6Marble17TourCaptureDialog7setRateEd@Base 4:15.08.0
 _ZN6Marble17TourCaptureDialogC1EPNS_12MarbleWidgetEP7QWidget@Base 4:15.08.0
 _ZN6Marble17TourCaptureDialogC2EPNS_12MarbleWidgetEP7QWidget@Base 4:15.08.0
 _ZN6Marble17TourCaptureDialogD0Ev@Base 4:15.08.0
 _ZN6Marble17TourCaptureDialogD1Ev@Base 4:15.08.0
 _ZN6Marble17TourCaptureDialogD2Ev@Base 4:15.08.0
 _ZN6Marble17TourWidgetPrivate10createTourEv@Base 4:15.08.0
 _ZN6Marble17TourWidgetPrivate10saveTourAsERK7QString@Base 4:15.08.0
 _ZN6Marble17TourWidgetPrivate10saveTourAsEv@Base 4:15.08.0
 _ZN6Marble17TourWidgetPrivate11addSoundCueEv@Base 4:15.08.0
 _ZN6Marble17TourWidgetPrivate11captureTourEv@Base 4:15.08.0
 _ZN6Marble17TourWidgetPrivate11mapCenterOnERK11QModelIndex@Base 4:15.08.0
 _ZN6Marble17TourWidgetPrivate12addPlacemarkEv@Base 4:15.08.0
 _ZN6Marble17TourWidgetPrivate12openDocumentEPNS_15GeoDataDocumentE@Base 4:15.08.0
 _ZN6Marble17TourWidgetPrivate14deleteSelectedEv@Base 4:15.08.0
 _ZN6Marble17TourWidgetPrivate15updateRootIndexEv@Base 4:15.08.0
 _ZN6Marble17TourWidgetPrivate16addTourPrimitiveEPNS_20GeoDataTourPrimitiveE@Base 4:15.08.0
 _ZN6Marble17TourWidgetPrivate18addChangePlacemarkEv@Base 4:15.08.0
 _ZN6Marble17TourWidgetPrivate18addRemovePlacemarkEv@Base 4:15.08.0
 _ZN6Marble17TourWidgetPrivate19updateButtonsStatesEv@Base 4:15.08.0
 _ZN6Marble17TourWidgetPrivate21overrideModificationsEv@Base 4:15.08.0
 _ZN6Marble17TourWidgetPrivate22handlePlaybackProgressEd@Base 4:15.08.0
 _ZN6Marble17TourWidgetPrivate6moveUpEv@Base 4:15.08.0
 _ZN6Marble17TourWidgetPrivate7addWaitEv@Base 4:15.08.0
 _ZN6Marble17TourWidgetPrivate8addFlyToEv@Base 4:15.08.0
 _ZN6Marble17TourWidgetPrivate8moveDownEv@Base 4:15.08.0
 _ZN6Marble17TourWidgetPrivate8openFileERK7QString@Base 4:15.08.0
 _ZN6Marble17TourWidgetPrivate8openFileEv@Base 4:15.08.0
 _ZN6Marble17TourWidgetPrivate8saveTourEv@Base 4:15.08.0
 _ZN6Marble17TourWidgetPrivateC1EPNS_10TourWidgetE@Base 4:15.08.0
 _ZN6Marble17TourWidgetPrivateC2EPNS_10TourWidgetE@Base 4:15.08.0
 _ZN6Marble17ViewParamsPrivateC1Ev@Base 4:15.08.0
 _ZN6Marble17ViewParamsPrivateC2Ev@Base 4:15.08.0
 _ZN6Marble17ViewParamsPrivateD1Ev@Base 4:15.08.0
 _ZN6Marble17ViewParamsPrivateD2Ev@Base 4:15.08.0
 _ZN6Marble18AbstractDataPlugin11qt_metacallEN11QMetaObject4CallEiPPv@Base 4:15.08.0
 _ZN6Marble18AbstractDataPlugin11qt_metacastEPKc@Base 4:15.08.0
 _ZN6Marble18AbstractDataPlugin11setDelegateEP13QQmlComponentP13QGraphicsItem@Base 4:15.08.0
 _ZN6Marble18AbstractDataPlugin11whichItemAtERK6QPoint@Base 4:15.08.0
 _ZN6Marble18AbstractDataPlugin13delayedUpdateEv@Base 4:15.08.0
 _ZN6Marble18AbstractDataPlugin14favoritesModelEv@Base 4:15.08.0
 _ZN6Marble18AbstractDataPlugin16setNumberOfItemsEj@Base 4:15.08.0
 _ZN6Marble18AbstractDataPlugin16staticMetaObjectE@Base 4:15.08.0
 _ZN6Marble18AbstractDataPlugin20changedNumberOfItemsEj@Base 4:15.08.0
 _ZN6Marble18AbstractDataPlugin20favoriteItemsChangedERK11QStringList@Base 4:15.08.0
 _ZN6Marble18AbstractDataPlugin20handleViewportChangeEPKNS_14ViewportParamsE@Base 4:15.08.0
 _ZN6Marble18AbstractDataPlugin20setFavoriteItemsOnlyEb@Base 4:15.08.0
 _ZN6Marble18AbstractDataPlugin21favoritesModelChangedEv@Base 4:15.08.0
 _ZN6Marble18AbstractDataPlugin24favoriteItemsOnlyChangedEv@Base 4:15.08.0
 _ZN6Marble18AbstractDataPlugin5modelEv@Base 4:15.08.0
 _ZN6Marble18AbstractDataPlugin6renderEPNS_10GeoPainterEPNS_14ViewportParamsERK7QStringPNS_13GeoSceneLayerE@Base 4:15.08.0
 _ZN6Marble18AbstractDataPlugin8setModelEPNS_23AbstractDataPluginModelE@Base 4:15.08.0
 _ZN6Marble18AbstractDataPluginC1EPKNS_11MarbleModelE@Base 4:15.08.0
 _ZN6Marble18AbstractDataPluginC2EPKNS_11MarbleModelE@Base 4:15.08.0
 _ZN6Marble18AbstractDataPluginD0Ev@Base 4:15.08.0
 _ZN6Marble18AbstractDataPluginD1Ev@Base 4:15.08.0
 _ZN6Marble18AbstractDataPluginD2Ev@Base 4:15.08.0
 _ZN6Marble18AbstractProjection9setMaxLatEd@Base 4:15.08.0
 _ZN6Marble18AbstractProjection9setMinLatEd@Base 4:15.08.0
 _ZN6Marble18AbstractProjectionC1EPNS_25AbstractProjectionPrivateE@Base 4:15.08.0
 _ZN6Marble18AbstractProjectionC1Ev@Base 4:15.08.0
 _ZN6Marble18AbstractProjectionC2EPNS_25AbstractProjectionPrivateE@Base 4:15.08.0
 _ZN6Marble18AbstractProjectionC2Ev@Base 4:15.08.0
 _ZN6Marble18AbstractProjectionD0Ev@Base 4:15.08.0
 _ZN6Marble18AbstractProjectionD1Ev@Base 4:15.08.0
 _ZN6Marble18AbstractProjectionD2Ev@Base 4:15.08.0
 _ZN6Marble18CacheStoragePolicy10clearCacheEv@Base 4:15.08.0
 _ZN6Marble18CacheStoragePolicy10updateFileERK7QStringRK10QByteArray@Base 4:15.08.0
 _ZN6Marble18CacheStoragePolicy11qt_metacallEN11QMetaObject4CallEiPPv@Base 4:15.08.0
 _ZN6Marble18CacheStoragePolicy11qt_metacastEPKc@Base 4:15.08.0
 _ZN6Marble18CacheStoragePolicy13setCacheLimitEy@Base 4:15.08.0
 _ZN6Marble18CacheStoragePolicy16staticMetaObjectE@Base 4:15.08.0
 _ZN6Marble18CacheStoragePolicy4dataERK7QString@Base 4:15.08.0
 _ZN6Marble18CacheStoragePolicyC1ERK7QString@Base 4:15.08.0
 _ZN6Marble18CacheStoragePolicyC2ERK7QString@Base 4:15.08.0
 _ZN6Marble18CacheStoragePolicyD0Ev@Base 4:15.08.0
 _ZN6Marble18CacheStoragePolicyD1Ev@Base 4:15.08.0
 _ZN6Marble18CacheStoragePolicyD2Ev@Base 4:15.08.0
 _ZN6Marble18ClipPainterPrivate12clipMultipleER9QPolygonFR7QVectorIS1_Eb@Base 4:15.08.0
 _ZN6Marble18ClipPainterPrivate13labelPositionERK9QPolygonFR7QVectorI7QPointFE6QFlagsINS_17LabelPositionFlagEE@Base 4:15.08.0
 _ZN6Marble18ClipPainterPrivate14clipPolyObjectERK9QPolygonFR7QVectorIS1_Eb@Base 4:15.08.0
 _ZN6Marble18ClipPainterPrivate16pointAllowsLabelERK7QPointF@Base 4:15.08.0
 _ZN6Marble18ClipPainterPrivate21interpolateLabelPointERK7QPointFS3_6QFlagsINS_17LabelPositionFlagEE@Base 4:15.08.0
 _ZN6Marble18ClipPainterPrivateC1EPNS_11ClipPainterE@Base 4:15.08.0
 _ZN6Marble18ClipPainterPrivateC2EPNS_11ClipPainterE@Base 4:15.08.0
 _ZN6Marble18ColorDodgeBlendingD0Ev@Base 4:15.08.0
 _ZN6Marble18ColorDodgeBlendingD1Ev@Base 4:15.08.0
 _ZN6Marble18ColorDodgeBlendingD2Ev@Base 4:15.08.0
 _ZN6Marble18CustomServerLayoutC1EPNS_13GeoSceneTiledE@Base 4:15.08.0
 _ZN6Marble18CustomServerLayoutC2EPNS_13GeoSceneTiledE@Base 4:15.08.0
 _ZN6Marble18CustomServerLayoutD0Ev@Base 4:15.08.0
 _ZN6Marble18CustomServerLayoutD1Ev@Base 4:15.08.0
 _ZN6Marble18CustomServerLayoutD2Ev@Base 4:15.08.0
 _ZN6Marble18DgmlLayerTagWriterD0Ev@Base 4:15.08.0
 _ZN6Marble18DgmlLayerTagWriterD1Ev@Base 4:15.08.0
 _ZN6Marble18DgmlLayerTagWriterD2Ev@Base 4:15.08.0
 _ZN6Marble18DifferenceBlendingD0Ev@Base 4:15.08.0
 _ZN6Marble18DifferenceBlendingD1Ev@Base 4:15.08.0
 _ZN6Marble18DifferenceBlendingD2Ev@Base 4:15.08.0
 _ZN6Marble18EditBookmarkDialog11qt_metacallEN11QMetaObject4CallEiPPv@Base 4:15.08.0
 _ZN6Marble18EditBookmarkDialog11qt_metacastEPKc@Base 4:15.08.0
 _ZN6Marble18EditBookmarkDialog11setIconLinkERK7QString@Base 4:15.08.0
 _ZN6Marble18EditBookmarkDialog13setFolderNameERK7QString@Base 4:15.08.0
 _ZN6Marble18EditBookmarkDialog14setCoordinatesERKNS_18GeoDataCoordinatesE@Base 4:15.08.0
 _ZN6Marble18EditBookmarkDialog14setDescriptionERK7QString@Base 4:15.08.0
 _ZN6Marble18EditBookmarkDialog15setMarbleWidgetEPNS_12MarbleWidgetE@Base 4:15.08.0
 _ZN6Marble18EditBookmarkDialog16staticMetaObjectE@Base 4:15.08.0
 _ZN6Marble18EditBookmarkDialog21setReverseGeocodeNameEv@Base 4:15.08.0
 _ZN6Marble18EditBookmarkDialog7setNameERK7QString@Base 4:15.08.0
 _ZN6Marble18EditBookmarkDialog8setRangeEd@Base 4:15.08.0
 _ZN6Marble18EditBookmarkDialogC1EPNS_15BookmarkManagerEP7QWidget@Base 4:15.08.0
 _ZN6Marble18EditBookmarkDialogC2EPNS_15BookmarkManagerEP7QWidget@Base 4:15.08.0
 _ZN6Marble18EditBookmarkDialogD0Ev@Base 4:15.08.0
 _ZN6Marble18EditBookmarkDialogD1Ev@Base 4:15.08.0
 _ZN6Marble18EditBookmarkDialogD2Ev@Base 4:15.08.0
 _ZN6Marble18EquirectProjectionC1Ev@Base 4:15.08.0
 _ZN6Marble18EquirectProjectionC2Ev@Base 4:15.08.0
 _ZN6Marble18EquirectProjectionD0Ev@Base 4:15.08.0
 _ZN6Marble18EquirectProjectionD1Ev@Base 4:15.08.0
 _ZN6Marble18EquirectProjectionD2Ev@Base 4:15.08.0
 _ZN6Marble18FileManagerPrivate12appendLoaderEPNS_10FileLoaderE@Base 4:15.08.0
 _ZN6Marble18FileManagerPrivate13cleanupLoaderEPNS_10FileLoaderE@Base 4:15.08.0
 _ZN6Marble18FileManagerPrivate9closeFileERK7QString@Base 4:15.08.0
 _ZN6Marble18FileStorageWatcher10cacheLimitEv@Base 4:15.08.0
 _ZN6Marble18FileStorageWatcher11qt_metacallEN11QMetaObject4CallEiPPv@Base 4:15.08.0
 _ZN6Marble18FileStorageWatcher11qt_metacastEPKc@Base 4:15.08.0
 _ZN6Marble18FileStorageWatcher11sizeChangedEx@Base 4:15.08.0
 _ZN6Marble18FileStorageWatcher13setCacheLimitEy@Base 4:15.08.0
 _ZN6Marble18FileStorageWatcher16addToCurrentSizeEx@Base 4:15.08.0
 _ZN6Marble18FileStorageWatcher16resetCurrentSizeEv@Base 4:15.08.0
 _ZN6Marble18FileStorageWatcher16staticMetaObjectE@Base 4:15.08.0
 _ZN6Marble18FileStorageWatcher3runEv@Base 4:15.08.0
 _ZN6Marble18FileStorageWatcher7clearedEv@Base 4:15.08.0
 _ZN6Marble18FileStorageWatcherC1ERK7QStringP7QObject@Base 4:15.08.0
 _ZN6Marble18FileStorageWatcherC2ERK7QStringP7QObject@Base 4:15.08.0
 _ZN6Marble18FileStorageWatcherD0Ev@Base 4:15.08.0
 _ZN6Marble18FileStorageWatcherD1Ev@Base 4:15.08.0
 _ZN6Marble18FileStorageWatcherD2Ev@Base 4:15.08.0
 _ZN6Marble18GammaLightBlendingD0Ev@Base 4:15.08.0
 _ZN6Marble18GammaLightBlendingD1Ev@Base 4:15.08.0
 _ZN6Marble18GammaLightBlendingD2Ev@Base 4:15.08.0
 _ZN6Marble18GeoDataCoordinates10fromStringERK7QStringRb@Base 4:15.08.0
 _ZN6Marble18GeoDataCoordinates10s_notationE@Base 4:15.08.0
 _ZN6Marble18GeoDataCoordinates11latToStringEdNS0_8NotationENS0_4UnitEic@Base 4:15.08.0
 _ZN6Marble18GeoDataCoordinates11lonToStringEdNS0_8NotationENS0_4UnitEic@Base 4:15.08.0
 _ZN6Marble18GeoDataCoordinates11setAltitudeEd@Base 4:15.08.0
 _ZN6Marble18GeoDataCoordinates11setLatitudeEdNS0_4UnitE@Base 4:15.08.0
 _ZN6Marble18GeoDataCoordinates12normalizeLatEdNS0_4UnitE@Base 4:15.08.0
 _ZN6Marble18GeoDataCoordinates12normalizeLonEdNS0_4UnitE@Base 4:15.08.0
 _ZN6Marble18GeoDataCoordinates12setLongitudeEdNS0_4UnitE@Base 4:15.08.0
 _ZN6Marble18GeoDataCoordinates15defaultNotationEv@Base 4:15.08.0
 _ZN6Marble18GeoDataCoordinates15normalizeLonLatERdS1_NS0_4UnitE@Base 4:15.08.0
 _ZN6Marble18GeoDataCoordinates18setDefaultNotationENS0_8NotationE@Base 4:15.08.0
 _ZN6Marble18GeoDataCoordinates3setEdddNS0_4UnitE@Base 4:15.08.0
 _ZN6Marble18GeoDataCoordinates4nullE@Base 4:15.08.0
 _ZN6Marble18GeoDataCoordinates6detachEv@Base 4:15.08.0
 _ZN6Marble18GeoDataCoordinates6unpackER11QDataStream@Base 4:15.08.0
 _ZN6Marble18GeoDataCoordinates9setDetailEi@Base 4:15.08.0
 _ZN6Marble18GeoDataCoordinatesC1ERKS0_@Base 4:15.08.0
 _ZN6Marble18GeoDataCoordinatesC1EdddNS0_4UnitEi@Base 4:15.08.0
 _ZN6Marble18GeoDataCoordinatesC1Ev@Base 4:15.08.0
 _ZN6Marble18GeoDataCoordinatesC2ERKS0_@Base 4:15.08.0
 _ZN6Marble18GeoDataCoordinatesC2EdddNS0_4UnitEi@Base 4:15.08.0
 _ZN6Marble18GeoDataCoordinatesC2Ev@Base 4:15.08.0
 _ZN6Marble18GeoDataCoordinatesD0Ev@Base 4:15.08.0
 _ZN6Marble18GeoDataCoordinatesD1Ev@Base 4:15.08.0
 _ZN6Marble18GeoDataCoordinatesD2Ev@Base 4:15.08.0
 _ZN6Marble18GeoDataCoordinatesaSERKS0_@Base 4:15.08.0
 _ZN6Marble18GeoDataLinkPrivateC1Ev@Base 4:15.08.0
 _ZN6Marble18GeoDataLinkPrivateC2Ev@Base 4:15.08.0
 _ZN6Marble18GeoDataNetworkLink12setFlyToViewEb@Base 4:15.08.0
 _ZN6Marble18GeoDataNetworkLink20setRefreshVisibilityEb@Base 4:15.08.0
 _ZN6Marble18GeoDataNetworkLink4linkEv@Base 4:15.08.0
 _ZN6Marble18GeoDataNetworkLink7setLinkERKNS_11GeoDataLinkE@Base 4:15.08.0
 _ZN6Marble18GeoDataNetworkLinkC1ERKS0_@Base 4:15.08.0
 _ZN6Marble18GeoDataNetworkLinkC1Ev@Base 4:15.08.0
 _ZN6Marble18GeoDataNetworkLinkC2ERKS0_@Base 4:15.08.0
 _ZN6Marble18GeoDataNetworkLinkC2Ev@Base 4:15.08.0
 _ZN6Marble18GeoDataNetworkLinkD0Ev@Base 4:15.08.0
 _ZN6Marble18GeoDataNetworkLinkD1Ev@Base 4:15.08.0
 _ZN6Marble18GeoDataNetworkLinkD2Ev@Base 4:15.08.0
 _ZN6Marble18GeoDataNetworkLinkaSERKS0_@Base 4:15.08.0
 _ZN6Marble18GeoDataOrientation10setHeadingEd@Base 4:15.08.0
 _ZN6Marble18GeoDataOrientation7setRollEd@Base 4:15.08.0
 _ZN6Marble18GeoDataOrientation7setTiltEd@Base 4:15.08.0
 _ZN6Marble18GeoDataOrientationC1ERKS0_@Base 4:15.08.0
 _ZN6Marble18GeoDataOrientationC1Ev@Base 4:15.08.0
 _ZN6Marble18GeoDataOrientationC2ERKS0_@Base 4:15.08.0
 _ZN6Marble18GeoDataOrientationC2Ev@Base 4:15.08.0
 _ZN6Marble18GeoDataOrientationD0Ev@Base 4:15.08.0
 _ZN6Marble18GeoDataOrientationD1Ev@Base 4:15.08.0
 _ZN6Marble18GeoDataOrientationD2Ev@Base 4:15.08.0
 _ZN6Marble18GeoDataOrientationaSERKS0_@Base 4:15.08.0
 _ZN6Marble18GeoDataResourceMap13setSourceHrefERK7QString@Base 4:15.08.0
 _ZN6Marble18GeoDataResourceMap13setTargetHrefERK7QString@Base 4:15.08.0
 _ZN6Marble18GeoDataResourceMap5aliasEv@Base 4:15.08.0
 _ZN6Marble18GeoDataResourceMap8setAliasERKNS_12GeoDataAliasE@Base 4:15.08.0
 _ZN6Marble18GeoDataResourceMapC1ERKS0_@Base 4:15.08.0
 _ZN6Marble18GeoDataResourceMapC1Ev@Base 4:15.08.0
 _ZN6Marble18GeoDataResourceMapC2ERKS0_@Base 4:15.08.0
 _ZN6Marble18GeoDataResourceMapC2Ev@Base 4:15.08.0
 _ZN6Marble18GeoDataResourceMapD0Ev@Base 4:15.08.0
 _ZN6Marble18GeoDataResourceMapD1Ev@Base 4:15.08.0
 _ZN6Marble18GeoDataResourceMapD2Ev@Base 4:15.08.0
 _ZN6Marble18GeoDataResourceMapaSERKS0_@Base 4:15.08.0
 _ZN6Marble18GeoDataSimpleField14setDisplayNameERK7QString@Base 4:15.08.0
 _ZN6Marble18GeoDataSimpleField6unpackER11QDataStream@Base 4:15.08.0
 _ZN6Marble18GeoDataSimpleField7setNameERK7QString@Base 4:15.08.0
 _ZN6Marble18GeoDataSimpleField7setTypeERKNS0_15SimpleFieldTypeE@Base 4:15.08.0
 _ZN6Marble18GeoDataSimpleFieldC1ERKS0_@Base 4:15.08.0
 _ZN6Marble18GeoDataSimpleFieldC1Ev@Base 4:15.08.0
 _ZN6Marble18GeoDataSimpleFieldC2ERKS0_@Base 4:15.08.0
 _ZN6Marble18GeoDataSimpleFieldC2Ev@Base 4:15.08.0
 _ZN6Marble18GeoDataSimpleFieldD0Ev@Base 4:15.08.0
 _ZN6Marble18GeoDataSimpleFieldD1Ev@Base 4:15.08.0
 _ZN6Marble18GeoDataSimpleFieldD2Ev@Base 4:15.08.0
 _ZN6Marble18GeoDataSimpleFieldaSERKS0_@Base 4:15.08.0
 _ZN6Marble18GeoDataTourControl11setPlayModeERKNS0_8PlayModeE@Base 4:15.08.0
 _ZN6Marble18GeoDataTourControlC1Ev@Base 4:15.08.0
 _ZN6Marble18GeoDataTourControlC2Ev@Base 4:15.08.0
 _ZN6Marble18GeoDataTourControlD0Ev@Base 4:15.08.0
 _ZN6Marble18GeoDataTourControlD1Ev@Base 4:15.08.0
 _ZN6Marble18GeoDataTourControlD2Ev@Base 4:15.08.0
 _ZN6Marble18GeoDataTourPrivate4copyEv@Base 4:15.08.0
 _ZN6Marble18GeoDataTourPrivateD0Ev@Base 4:15.08.0
 _ZN6Marble18GeoDataTourPrivateD1Ev@Base 4:15.08.0
 _ZN6Marble18GeoDataTourPrivateD2Ev@Base 4:15.08.0
 _ZN6Marble18GeoDataVec2Private10parseUnitsERK7QString@Base 4:15.08.0
 _ZN6Marble18GeoDataVec2PrivateC1Ev@Base 4:15.08.0
 _ZN6Marble18GeoDataVec2PrivateC2Ev@Base 4:15.08.0
 _ZN6Marble18GeoSceneVectorTileC1ERK7QString@Base 4:15.08.0
 _ZN6Marble18GeoSceneVectorTileC2ERK7QString@Base 4:15.08.0
 _ZN6Marble18GeoSceneVectorTileD0Ev@Base 4:15.08.0
 _ZN6Marble18GeoSceneVectorTileD1Ev@Base 4:15.08.0
 _ZN6Marble18GeoSceneVectorTileD2Ev@Base 4:15.08.0
 _ZN6Marble18GnomonicProjectionC1EPNS_25GnomonicProjectionPrivateE@Base 4:15.08.0
 _ZN6Marble18GnomonicProjectionC1Ev@Base 4:15.08.0
 _ZN6Marble18GnomonicProjectionC2EPNS_25GnomonicProjectionPrivateE@Base 4:15.08.0
 _ZN6Marble18GnomonicProjectionC2Ev@Base 4:15.08.0
 _ZN6Marble18GnomonicProjectionD0Ev@Base 4:15.08.0
 _ZN6Marble18GnomonicProjectionD1Ev@Base 4:15.08.0
 _ZN6Marble18GnomonicProjectionD2Ev@Base 4:15.08.0
 _ZN6Marble18KmlCameraTagWriterD0Ev@Base 4:15.08.0
 _ZN6Marble18KmlCameraTagWriterD1Ev@Base 4:15.08.0
 _ZN6Marble18KmlCameraTagWriterD2Ev@Base 4:15.08.0
 _ZN6Marble18KmlFolderTagWriterC1Ev@Base 4:15.08.0
 _ZN6Marble18KmlFolderTagWriterC2Ev@Base 4:15.08.0
 _ZN6Marble18KmlFolderTagWriterD0Ev@Base 4:15.08.0
 _ZN6Marble18KmlFolderTagWriterD1Ev@Base 4:15.08.0
 _ZN6Marble18KmlFolderTagWriterD2Ev@Base 4:15.08.0
 _ZN6Marble18KmlLatLonBoxWriterD0Ev@Base 4:15.08.0
 _ZN6Marble18KmlLatLonBoxWriterD1Ev@Base 4:15.08.0
 _ZN6Marble18KmlLatLonBoxWriterD2Ev@Base 4:15.08.0
 _ZN6Marble18KmlLookAtTagWriterD0Ev@Base 4:15.08.0
 _ZN6Marble18KmlLookAtTagWriterD1Ev@Base 4:15.08.0
 _ZN6Marble18KmlLookAtTagWriterD2Ev@Base 4:15.08.0
 _ZN6Marble18KmlObjectTagWriter16writeIdentifiersERNS_9GeoWriterEPKNS_13GeoDataObjectE@Base 4:15.08.0
 _ZN6Marble18KmlRegionTagWriterD0Ev@Base 4:15.08.0
 _ZN6Marble18KmlRegionTagWriterD1Ev@Base 4:15.08.0
 _ZN6Marble18KmlRegionTagWriterD2Ev@Base 4:15.08.0
 _ZN6Marble18KmlSchemaTagWriterD0Ev@Base 4:15.08.0
 _ZN6Marble18KmlSchemaTagWriterD1Ev@Base 4:15.08.0
 _ZN6Marble18KmlSchemaTagWriterD2Ev@Base 4:15.08.0
 _ZN6Marble18KmlUpdateTagWriterD0Ev@Base 4:15.08.0
 _ZN6Marble18KmlUpdateTagWriterD1Ev@Base 4:15.08.0
 _ZN6Marble18KmlUpdateTagWriterD2Ev@Base 4:15.08.0
 _ZN6Marble18LinearBurnBlendingD0Ev@Base 4:15.08.0
 _ZN6Marble18LinearBurnBlendingD1Ev@Base 4:15.08.0
 _ZN6Marble18LinearBurnBlendingD2Ev@Base 4:15.08.0
 _ZN6Marble18MarbleClockPrivate12timerTimeoutEv@Base 4:15.08.0
 _ZN6Marble18MarbleClockPrivateC1EPNS_11MarbleClockE@Base 4:15.08.0
 _ZN6Marble18MarbleClockPrivateC2EPNS_11MarbleClockE@Base 4:15.08.0
 _ZN6Marble18MarbleGraphicsItem10paintEventEP8QPainterPKNS_14ViewportParamsE@Base 4:15.08.0
 _ZN6Marble18MarbleGraphicsItem10setVisibleEb@Base 4:15.08.0
 _ZN6Marble18MarbleGraphicsItem11eventFilterEP7QObjectP6QEvent@Base 4:15.08.0
 _ZN6Marble18MarbleGraphicsItem12setCacheModeENS0_9CacheModeE@Base 4:15.08.0
 _ZN6Marble18MarbleGraphicsItem13setProjectionEPKNS_14ViewportParamsE@Base 4:15.08.0
 _ZN6Marble18MarbleGraphicsItem14setContentSizeERK6QSizeF@Base 4:15.08.0
 _ZN6Marble18MarbleGraphicsItem1pEv@Base 4:15.08.0
 _ZN6Marble18MarbleGraphicsItem4hideEv@Base 4:15.08.0
 _ZN6Marble18MarbleGraphicsItem4showEv@Base 4:15.08.0
 _ZN6Marble18MarbleGraphicsItem5paintEP8QPainter@Base 4:15.08.0
 _ZN6Marble18MarbleGraphicsItem6updateEv@Base 4:15.08.0
 _ZN6Marble18MarbleGraphicsItem7setSizeERK6QSizeF@Base 4:15.08.0
 _ZN6Marble18MarbleGraphicsItem9setLayoutEPNS_28AbstractMarbleGraphicsLayoutE@Base 4:15.08.0
 _ZN6Marble18MarbleGraphicsItemC1EPNS_25MarbleGraphicsItemPrivateE@Base 4:15.08.0
 _ZN6Marble18MarbleGraphicsItemC2EPNS_25MarbleGraphicsItemPrivateE@Base 4:15.08.0
 _ZN6Marble18MarbleGraphicsItemD0Ev@Base 4:15.08.0
 _ZN6Marble18MarbleGraphicsItemD1Ev@Base 4:15.08.0
 _ZN6Marble18MarbleGraphicsItemD2Ev@Base 4:15.08.0
 _ZN6Marble18MarbleInputHandler10lmbRequestEii@Base 4:15.08.0
 _ZN6Marble18MarbleInputHandler10rmbRequestEii@Base 4:15.08.0
 _ZN6Marble18MarbleInputHandler11qt_metacallEN11QMetaObject4CallEiPPv@Base 4:15.08.0
 _ZN6Marble18MarbleInputHandler11qt_metacastEPKc@Base 4:15.08.0
 _ZN6Marble18MarbleInputHandler16staticMetaObjectE@Base 4:15.08.0
 _ZN6Marble18MarbleInputHandler18restoreViewContextEv@Base 4:15.08.0
 _ZN6Marble18MarbleInputHandler20mouseMoveGeoPositionE7QString@Base 4:15.08.0
 _ZN6Marble18MarbleInputHandler21mouseClickGeoPositionEddNS_18GeoDataCoordinates4UnitE@Base 4:15.08.0
 _ZN6Marble18MarbleInputHandler22setPanViaArrowsEnabledEb@Base 4:15.08.0
 _ZN6Marble18MarbleInputHandler24mouseClickScreenPositionEii@Base 4:15.08.0
 _ZN6Marble18MarbleInputHandler26setMouseButtonPopupEnabledEN2Qt11MouseButtonEb@Base 4:15.08.0
 _ZN6Marble18MarbleInputHandler26setPositionSignalConnectedEb@Base 4:15.08.0
 _ZN6Marble18MarbleInputHandler31setInertialEarthRotationEnabledEb@Base 4:15.08.0
 _ZN6Marble18MarbleInputHandler9ProtectedC1EPNS_23MarbleAbstractPresenterE@Base 4:15.08.0
 _ZN6Marble18MarbleInputHandler9ProtectedC2EPNS_23MarbleAbstractPresenterE@Base 4:15.08.0
 _ZN6Marble18MarbleInputHandlerC1EPNS_23MarbleAbstractPresenterE@Base 4:15.08.0
 _ZN6Marble18MarbleInputHandlerC2EPNS_23MarbleAbstractPresenterE@Base 4:15.08.0
 _ZN6Marble18MarbleInputHandlerD0Ev@Base 4:15.08.0
 _ZN6Marble18MarbleInputHandlerD1Ev@Base 4:15.08.0
 _ZN6Marble18MarbleInputHandlerD2Ev@Base 4:15.08.0
 _ZN6Marble18MarbleModelPrivate14assignNewStyleERK7QStringRKNS_12GeoDataStyleE@Base 4:15.08.0
 _ZN6Marble18MarbleModelPrivate16assignFillColorsERK7QString@Base 4:15.08.0
 _ZN6Marble18MarbleModelPrivate17addHighlightStyleEPNS_15GeoDataDocumentE@Base 4:15.08.0
 _ZN6Marble18MarbleServerLayoutC1EPNS_13GeoSceneTiledE@Base 4:15.08.0
 _ZN6Marble18MarbleServerLayoutC2EPNS_13GeoSceneTiledE@Base 4:15.08.0
 _ZN6Marble18MarbleServerLayoutD0Ev@Base 4:15.08.0
 _ZN6Marble18MarbleServerLayoutD1Ev@Base 4:15.08.0
 _ZN6Marble18MarbleServerLayoutD2Ev@Base 4:15.08.0
 _ZN6Marble18MercatorProjectionC1Ev@Base 4:15.08.0
 _ZN6Marble18MercatorProjectionC2Ev@Base 4:15.08.0
 _ZN6Marble18MercatorProjectionD0Ev@Base 4:15.08.0
 _ZN6Marble18MercatorProjectionD1Ev@Base 4:15.08.0
 _ZN6Marble18MercatorProjectionD2Ev@Base 4:15.08.0
 _ZN6Marble18MovieCaptureDialog11qt_metacallEN11QMetaObject4CallEiPPv@Base 4:15.08.0
 _ZN6Marble18MovieCaptureDialog11qt_metacastEPKc@Base 4:15.08.0
 _ZN6Marble18MovieCaptureDialog13stopRecordingEv@Base 4:15.08.0
 _ZN6Marble18MovieCaptureDialog14startRecordingEv@Base 4:15.08.0
 _ZN6Marble18MovieCaptureDialog16staticMetaObjectE@Base 4:15.08.0
 _ZN6Marble18MovieCaptureDialog19loadDestinationFileEv@Base 4:15.08.0
 _ZN6Marble18MovieCaptureDialog7startedEv@Base 4:15.08.0
 _ZN6Marble18MovieCaptureDialogC1EPNS_12MarbleWidgetEP7QWidget@Base 4:15.08.0
 _ZN6Marble18MovieCaptureDialogC2EPNS_12MarbleWidgetEP7QWidget@Base 4:15.08.0
 _ZN6Marble18MovieCaptureDialogD0Ev@Base 4:15.08.0
 _ZN6Marble18MovieCaptureDialogD1Ev@Base 4:15.08.0
 _ZN6Marble18MovieCaptureDialogD2Ev@Base 4:15.08.0
 _ZN6Marble18PluginItemDelegate11editorEventEP6QEventP18QAbstractItemModelRK20QStyleOptionViewItemRK11QModelIndex@Base 4:15.08.0
 _ZN6Marble18PluginItemDelegate11qt_metacallEN11QMetaObject4CallEiPPv@Base 4:15.08.0
 _ZN6Marble18PluginItemDelegate11qt_metacastEPKc@Base 4:15.08.0
 _ZN6Marble18PluginItemDelegate12setAboutIconERK5QIcon@Base 4:15.08.0
 _ZN6Marble18PluginItemDelegate13setConfigIconERK5QIcon@Base 4:15.08.0
 _ZN6Marble18PluginItemDelegate14checkboxOptionERK20QStyleOptionViewItemRK11QModelIndexiN2Qt13AlignmentFlagE@Base 4:15.08.0
 _ZN6Marble18PluginItemDelegate16staticMetaObjectE@Base 4:15.08.0
 _ZN6Marble18PluginItemDelegate18aboutPluginClickedERK11QModelIndex@Base 4:15.08.0
 _ZN6Marble18PluginItemDelegate19configPluginClickedERK11QModelIndex@Base 4:15.08.0
 _ZN6Marble18PluginItemDelegate8nameSizeERK11QModelIndex@Base 4:15.08.0
 _ZN6Marble18PluginItemDelegate9alignRectE5QRectS1_iN2Qt13AlignmentFlagE@Base 4:15.08.0
 _ZN6Marble18PluginItemDelegateC1EP17QAbstractItemViewP7QObject@Base 4:15.08.0
 _ZN6Marble18PluginItemDelegateC2EP17QAbstractItemViewP7QObject@Base 4:15.08.0
 _ZN6Marble18PluginItemDelegateD0Ev@Base 4:15.08.0
 _ZN6Marble18PluginItemDelegateD1Ev@Base 4:15.08.0
 _ZN6Marble18PluginItemDelegateD2Ev@Base 4:15.08.0
 _ZN6Marble18PrintOptionsWidget11qt_metacallEN11QMetaObject4CallEiPPv@Base 4:15.08.0
 _ZN6Marble18PrintOptionsWidget11qt_metacastEPKc@Base 4:15.08.0
 _ZN6Marble18PrintOptionsWidget11setPrintMapEb@Base 4:15.08.0
 _ZN6Marble18PrintOptionsWidget14setPrintLegendEb@Base 4:15.08.0
 _ZN6Marble18PrintOptionsWidget16staticMetaObjectE@Base 4:15.08.0
 _ZN6Marble18PrintOptionsWidget18setPrintBackgroundEb@Base 4:15.08.0
 _ZN6Marble18PrintOptionsWidget20setPrintRouteSummaryEb@Base 4:15.08.0
 _ZN6Marble18PrintOptionsWidget23setRouteControlsEnabledEb@Base 4:15.08.0
 _ZN6Marble18PrintOptionsWidget24setLegendControlsEnabledEb@Base 4:15.08.0
 _ZN6Marble18PrintOptionsWidget27setPrintDrivingInstructionsEb@Base 4:15.08.0
 _ZN6Marble18PrintOptionsWidget28setBackgroundControlsEnabledEb@Base 4:15.08.0
 _ZN6Marble18PrintOptionsWidget33setPrintDrivingInstructionsAdviceEb@Base 4:15.08.0
 _ZN6Marble18PrintOptionsWidgetC1EP7QWidget6QFlagsIN2Qt10WindowTypeEE@Base 4:15.08.0
 _ZN6Marble18PrintOptionsWidgetC2EP7QWidget6QFlagsIN2Qt10WindowTypeEE@Base 4:15.08.0
 _ZN6Marble18PrintOptionsWidgetD0Ev@Base 4:15.08.0
 _ZN6Marble18PrintOptionsWidgetD1Ev@Base 4:15.08.0
 _ZN6Marble18PrintOptionsWidgetD2Ev@Base 4:15.08.0
 _ZN6Marble18RoutingInputWidget10setInvalidEv@Base 4:15.08.0
 _ZN6Marble18RoutingInputWidget11qt_metacallEN11QMetaObject4CallEiPPv@Base 4:15.08.0
 _ZN6Marble18RoutingInputWidget11qt_metacastEPKc@Base 4:15.08.0
 _ZN6Marble18RoutingInputWidget12finishSearchEv@Base 4:15.08.0
 _ZN6Marble18RoutingInputWidget14findPlacemarksEv@Base 4:15.08.0
 _ZN6Marble18RoutingInputWidget14removalRequestEPS0_@Base 4:15.08.0
 _ZN6Marble18RoutingInputWidget14requestRemovalEv@Base 4:15.08.0
 _ZN6Marble18RoutingInputWidget14searchFinishedEPS0_@Base 4:15.08.0
 _ZN6Marble18RoutingInputWidget14updatePositionEiRKNS_18GeoDataCoordinatesE@Base 4:15.08.0
 _ZN6Marble18RoutingInputWidget15activityRequestEPS0_@Base 4:15.08.0
 _ZN6Marble18RoutingInputWidget15reloadBookmarksEv@Base 4:15.08.0
 _ZN6Marble18RoutingInputWidget15requestActivityEv@Base 4:15.08.0
 _ZN6Marble18RoutingInputWidget15setHomePositionEv@Base 4:15.08.0
 _ZN6Marble18RoutingInputWidget16reverseGeocodingEv@Base 4:15.08.0
 _ZN6Marble18RoutingInputWidget16staticMetaObjectE@Base 4:15.08.0
 _ZN6Marble18RoutingInputWidget17searchResultModelEv@Base 4:15.08.0
 _ZN6Marble18RoutingInputWidget17setPlacemarkModelEP18QAbstractItemModel@Base 4:15.08.0
 _ZN6Marble18RoutingInputWidget17setTargetPositionERKNS_18GeoDataCoordinatesERK7QString@Base 4:15.08.0
 _ZN6Marble18RoutingInputWidget18setCurrentLocationEv@Base 4:15.08.0
 _ZN6Marble18RoutingInputWidget18updateCenterButtonEb@Base 4:15.08.0
 _ZN6Marble18RoutingInputWidget19mapInputModeEnabledEPS0_b@Base 4:15.08.0
 _ZN6Marble18RoutingInputWidget19setBookmarkPositionEP7QAction@Base 4:15.08.0
 _ZN6Marble18RoutingInputWidget20abortMapInputRequestEv@Base 4:15.08.0
 _ZN6Marble18RoutingInputWidget21targetValidityChangedEb@Base 4:15.08.0
 _ZN6Marble18RoutingInputWidget22setMapInputModeEnabledEb@Base 4:15.08.0
 _ZN6Marble18RoutingInputWidget25openTargetSelectionDialogEv@Base 4:15.08.0
 _ZN6Marble18RoutingInputWidget27updateCurrentLocationButtonENS_22PositionProviderStatusE@Base 4:15.08.0
 _ZN6Marble18RoutingInputWidget30retrieveReverseGeocodingResultERKNS_18GeoDataCoordinatesERKNS_16GeoDataPlacemarkE@Base 4:15.08.0
 _ZN6Marble18RoutingInputWidget5clearEv@Base 4:15.08.0
 _ZN6Marble18RoutingInputWidget8setIndexEi@Base 4:15.08.0
 _ZN6Marble18RoutingInputWidget8showMenuEv@Base 4:15.08.0
 _ZN6Marble18RoutingInputWidgetC1EPNS_11MarbleModelEiP7QWidget@Base 4:15.08.0
 _ZN6Marble18RoutingInputWidgetC2EPNS_11MarbleModelEiP7QWidget@Base 4:15.08.0
 _ZN6Marble18RoutingInputWidgetD0Ev@Base 4:15.08.0
 _ZN6Marble18RoutingInputWidgetD1Ev@Base 4:15.08.0
 _ZN6Marble18RoutingInputWidgetD2Ev@Base 4:15.08.0
 _ZN6Marble18RoutingInstruction11predecessorEv@Base 4:15.08.0
 _ZN6Marble18RoutingInstruction12setSuccessorEPS0_@Base 4:15.08.0
 _ZN6Marble18RoutingInstruction14calculateAngleEv@Base 4:15.08.0
 _ZN6Marble18RoutingInstruction14setPredecessorEPS0_@Base 4:15.08.0
 _ZN6Marble18RoutingInstruction17calculateTurnTypeEv@Base 4:15.08.0
 _ZN6Marble18RoutingInstruction23generateRoadInstructionENS0_8TurnTypeERK7QString@Base 4:15.08.0
 _ZN6Marble18RoutingInstruction6appendERKNS_15RoutingWaypointEi@Base 4:15.08.0
 _ZN6Marble18RoutingInstruction9successorEv@Base 4:15.08.0
 _ZN6Marble18RoutingInstructionC1ERKNS_15RoutingWaypointE@Base 4:15.08.0
 _ZN6Marble18RoutingInstructionC2ERKNS_15RoutingWaypointE@Base 4:15.08.0
 _ZN6Marble18RoutingInstructionD1Ev@Base 4:15.08.0
 _ZN6Marble18RoutingInstructionD2Ev@Base 4:15.08.0
 _ZN6Marble18ScreenGraphicsItem11eventFilterEP7QObjectP6QEvent@Base 4:15.08.0
 _ZN6Marble18ScreenGraphicsItem11setPositionERK7QPointF@Base 4:15.08.0
 _ZN6Marble18ScreenGraphicsItem1pEv@Base 4:15.08.0
 _ZN6Marble18ScreenGraphicsItem8setFlagsE6QFlagsINS0_16GraphicsItemFlagEE@Base 4:15.08.0
 _ZN6Marble18ScreenGraphicsItemC1EPNS_18MarbleGraphicsItemE@Base 4:15.08.0
 _ZN6Marble18ScreenGraphicsItemC1EPNS_25ScreenGraphicsItemPrivateE@Base 4:15.08.0
 _ZN6Marble18ScreenGraphicsItemC2EPNS_18MarbleGraphicsItemE@Base 4:15.08.0
 _ZN6Marble18ScreenGraphicsItemC2EPNS_25ScreenGraphicsItemPrivateE@Base 4:15.08.0
 _ZN6Marble18ScreenGraphicsItemD0Ev@Base 4:15.08.0
 _ZN6Marble18ScreenGraphicsItemD1Ev@Base 4:15.08.0
 _ZN6Marble18ScreenGraphicsItemD2Ev@Base 4:15.08.0
 _ZN6Marble18SearchRunnerPlugin11qt_metacallEN11QMetaObject4CallEiPPv@Base 4:15.08.0
 _ZN6Marble18SearchRunnerPlugin11qt_metacastEPKc@Base 4:15.08.0
 _ZN6Marble18SearchRunnerPlugin16staticMetaObjectE@Base 4:15.08.0
 _ZN6Marble18SearchRunnerPlugin17setCanWorkOfflineEb@Base 4:15.08.0
 _ZN6Marble18SearchRunnerPlugin27setSupportedCelestialBodiesERK11QStringList@Base 4:15.08.0
 _ZN6Marble18SearchRunnerPlugin7PrivateC1Ev@Base 4:15.08.0
 _ZN6Marble18SearchRunnerPlugin7PrivateC2Ev@Base 4:15.08.0
 _ZN6Marble18SearchRunnerPluginC1EP7QObject@Base 4:15.08.0
 _ZN6Marble18SearchRunnerPluginC2EP7QObject@Base 4:15.08.0
 _ZN6Marble18SearchRunnerPluginD0Ev@Base 4:15.08.0
 _ZN6Marble18SearchRunnerPluginD1Ev@Base 4:15.08.0
 _ZN6Marble18SearchRunnerPluginD2Ev@Base 4:15.08.0
 _ZN6Marble18SoundCueEditWidget11editingDoneERK11QModelIndex@Base 4:15.08.0
 _ZN6Marble18SoundCueEditWidget11qt_metacallEN11QMetaObject4CallEiPPv@Base 4:15.08.0
 _ZN6Marble18SoundCueEditWidget11qt_metacastEPKc@Base 4:15.08.0
 _ZN6Marble18SoundCueEditWidget11setEditableEb@Base 4:15.08.0
 _ZN6Marble18SoundCueEditWidget15soundCueElementEv@Base 4:15.08.0
 _ZN6Marble18SoundCueEditWidget16staticMetaObjectE@Base 4:15.08.0
 _ZN6Marble18SoundCueEditWidget4openEv@Base 4:15.08.0
 _ZN6Marble18SoundCueEditWidget4saveEv@Base 4:15.08.0
 _ZN6Marble18SoundCueEditWidgetC1ERK11QModelIndexP7QWidget@Base 4:15.08.0
 _ZN6Marble18SoundCueEditWidgetC2ERK11QModelIndexP7QWidget@Base 4:15.08.0
 _ZN6Marble18SoundCueEditWidgetD0Ev@Base 4:15.08.0
 _ZN6Marble18SoundCueEditWidgetD1Ev@Base 4:15.08.0
 _ZN6Marble18SoundCueEditWidgetD2Ev@Base 4:15.08.0
 _ZN6Marble18VividLightBlendingD0Ev@Base 4:15.08.0
 _ZN6Marble18VividLightBlendingD1Ev@Base 4:15.08.0
 _ZN6Marble18VividLightBlendingD2Ev@Base 4:15.08.0
 _ZN6Marble18WidgetGraphicsItem11eventFilterEP7QObjectP6QEvent@Base 4:15.08.0
 _ZN6Marble18WidgetGraphicsItem5paintEP8QPainter@Base 4:15.08.0
 _ZN6Marble18WidgetGraphicsItem9setWidgetEP7QWidget@Base 4:15.08.0
 _ZN6Marble18WidgetGraphicsItemC1EPNS_18MarbleGraphicsItemE@Base 4:15.08.0
 _ZN6Marble18WidgetGraphicsItemC2EPNS_18MarbleGraphicsItemE@Base 4:15.08.0
 _ZN6Marble18WidgetGraphicsItemD0Ev@Base 4:15.08.0
 _ZN6Marble18WidgetGraphicsItemD1Ev@Base 4:15.08.0
 _ZN6Marble18WidgetGraphicsItemD2Ev@Base 4:15.08.0
 _ZN6Marble19AnimatedUpdateTrack11qt_metacallEN11QMetaObject4CallEiPPv@Base 4:15.08.0
 _ZN6Marble19AnimatedUpdateTrack11qt_metacastEPKc@Base 4:15.08.0
 _ZN6Marble19AnimatedUpdateTrack12balloonShownEPNS_16GeoDataPlacemarkE@Base 4:15.08.0
 _ZN6Marble19AnimatedUpdateTrack13balloonHiddenEv@Base 4:15.08.0
 _ZN6Marble19AnimatedUpdateTrack16staticMetaObjectE@Base 4:15.08.0
 _ZN6Marble19AnimatedUpdateTrack25setDelayBeforeTrackStartsEd@Base 4:15.08.0
 _ZN6Marble19AnimatedUpdateTrack4playEv@Base 4:15.08.0
 _ZN6Marble19AnimatedUpdateTrack4seekEd@Base 4:15.08.0
 _ZN6Marble19AnimatedUpdateTrack4stopEv@Base 4:15.08.0
 _ZN6Marble19AnimatedUpdateTrack5addedEPNS_16GeoDataContainerEPNS_14GeoDataFeatureEi@Base 4:15.08.0
 _ZN6Marble19AnimatedUpdateTrack5pauseEv@Base 4:15.08.0
 _ZN6Marble19AnimatedUpdateTrack7removedEPKNS_14GeoDataFeatureE@Base 4:15.08.0
 _ZN6Marble19AnimatedUpdateTrack7updatedEPNS_14GeoDataFeatureE@Base 4:15.08.0
 _ZN6Marble19AnimatedUpdateTrack8playSlotEv@Base 4:15.08.0
 _ZN6Marble19AnimatedUpdateTrack9setPausedEb@Base 4:15.08.0
 _ZN6Marble19AnimatedUpdateTrackC1EPNS_26PlaybackAnimatedUpdateItemE@Base 4:15.08.0
 _ZN6Marble19AnimatedUpdateTrackC2EPNS_26PlaybackAnimatedUpdateItemE@Base 4:15.08.0
 _ZN6Marble19AnimatedUpdateTrackD0Ev@Base 4:15.08.0
 _ZN6Marble19AnimatedUpdateTrackD1Ev@Base 4:15.08.0
 _ZN6Marble19AnimatedUpdateTrackD2Ev@Base 4:15.08.0
 _ZN6Marble19AzimuthalProjectionC1EPNS_26AzimuthalProjectionPrivateE@Base 4:15.08.0
 _ZN6Marble19AzimuthalProjectionC2EPNS_26AzimuthalProjectionPrivateE@Base 4:15.08.0
 _ZN6Marble19AzimuthalProjectionD0Ev@Base 4:15.08.0
 _ZN6Marble19AzimuthalProjectionD1Ev@Base 4:15.08.0
 _ZN6Marble19AzimuthalProjectionD2Ev@Base 4:15.08.0
 _ZN6Marble19BookmarkSyncManager11qt_metacallEN11QMetaObject4CallEiPPv@Base 4:15.08.0
 _ZN6Marble19BookmarkSyncManager11qt_metacastEPKc@Base 4:15.08.0
 _ZN6Marble19BookmarkSyncManager12syncCompleteEv@Base 4:15.08.0
 _ZN6Marble19BookmarkSyncManager13mergeConflictEPNS_9MergeItemE@Base 4:15.08.0
 _ZN6Marble19BookmarkSyncManager14uploadProgressExx@Base 4:15.08.0
 _ZN6Marble19BookmarkSyncManager15resolveConflictEPNS_9MergeItemE@Base 4:15.08.0
 _ZN6Marble19BookmarkSyncManager16downloadProgressExx@Base 4:15.08.0
 _ZN6Marble19BookmarkSyncManager16staticMetaObjectE@Base 4:15.08.0
 _ZN6Marble19BookmarkSyncManager17startBookmarkSyncEv@Base 4:15.08.0
 _ZN6Marble19BookmarkSyncManager18setBookmarkManagerEPNS_15BookmarkManagerE@Base 4:15.08.0
 _ZN6Marble19BookmarkSyncManager22setBookmarkSyncEnabledEb@Base 4:15.08.0
 _ZN6Marble19BookmarkSyncManager26bookmarkSyncEnabledChangedEb@Base 4:15.08.0
 _ZN6Marble19BookmarkSyncManager7Private10clearCacheEv@Base 4:15.08.0
 _ZN6Marble19BookmarkSyncManager7Private13completeMergeEv@Base 4:15.08.0
 _ZN6Marble19BookmarkSyncManager7Private13createFoldersEPNS_16GeoDataContainerER11QStringList@Base 4:15.08.0
 _ZN6Marble19BookmarkSyncManager7Private13getPlacemarksEPNS_13GeoDataFolderER7QStringPNS_15GeoDataDocumentENS_8DiffItem6StatusE@Base 4:15.08.0
 _ZN6Marble19BookmarkSyncManager7Private13getPlacemarksEPNS_15GeoDataDocumentES3_NS_8DiffItem6StatusE@Base 4:15.08.0
 _ZN6Marble19BookmarkSyncManager7Private14completeUploadEv@Base 4:15.08.0
 _ZN6Marble19BookmarkSyncManager7Private14parseTimestampEv@Base 4:15.08.0
 _ZN6Marble19BookmarkSyncManager7Private15uploadBookmarksEv@Base 4:15.08.0
 _ZN6Marble19BookmarkSyncManager7Private16copyLocalToCacheEv@Base 4:15.08.0
 _ZN6Marble19BookmarkSyncManager7Private17constructDocumentERK5QListINS_8DiffItemEE@Base 4:15.08.0
 _ZN6Marble19BookmarkSyncManager7Private17downloadBookmarksEv@Base 4:15.08.0
 _ZN6Marble19BookmarkSyncManager7Private17downloadTimestampEv@Base 4:15.08.0
 _ZN6Marble19BookmarkSyncManager7Private21saveDownloadedToCacheERK10QByteArray@Base 4:15.08.0
 _ZN6Marble19BookmarkSyncManager7Private23completeSynchronizationEv@Base 4:15.08.0
 _ZN6Marble19BookmarkSyncManager7Private23continueSynchronizationEv@Base 4:15.08.0
 _ZN6Marble19BookmarkSyncManager7Private4diffEP9QIODeviceR7QString@Base 4:15.08.0
 _ZN6Marble19BookmarkSyncManager7Private4diffEP9QIODeviceS3_@Base 4:15.08.0
 _ZN6Marble19BookmarkSyncManager7Private4diffER7QStringP9QIODevice@Base 4:15.08.0
 _ZN6Marble19BookmarkSyncManager7Private4diffER7QStringS3_@Base 4:15.08.0
 _ZN6Marble19BookmarkSyncManager7Private5mergeEv@Base 4:15.08.0
 _ZN6Marble19BookmarkSyncManager7PrivateC1EPS0_PNS_16CloudSyncManagerE@Base 4:15.08.0
 _ZN6Marble19BookmarkSyncManager7PrivateC2EPS0_PNS_16CloudSyncManagerE@Base 4:15.08.0
 _ZN6Marble19BookmarkSyncManagerC1EPNS_16CloudSyncManagerE@Base 4:15.08.0
 _ZN6Marble19BookmarkSyncManagerC2EPNS_16CloudSyncManagerE@Base 4:15.08.0
 _ZN6Marble19BookmarkSyncManagerD0Ev@Base 4:15.08.0
 _ZN6Marble19BookmarkSyncManagerD1Ev@Base 4:15.08.0
 _ZN6Marble19BookmarkSyncManagerD2Ev@Base 4:15.08.0
 _ZN6Marble19DecimalInputHandler11setupMinMaxENS_9DimensionE@Base 4:15.08.0
 _ZN6Marble19DecimalInputHandler19handleIntEditChangeEv@Base 4:15.08.0
 _ZN6Marble19DecimalInputHandler20handleUIntEditChangeEv@Base 4:15.08.0
 _ZN6Marble19DecimalInputHandler21handleFloatEditChangeEv@Base 4:15.08.0
 _ZN6Marble19DecimalInputHandler7setupUiEv@Base 4:15.08.0
 _ZN6Marble19DecimalInputHandler8setValueEd@Base 4:15.08.0
 _ZN6Marble19DecimalInputHandlerD0Ev@Base 4:15.08.0
 _ZN6Marble19DecimalInputHandlerD1Ev@Base 4:15.08.0
 _ZN6Marble19DecimalInputHandlerD2Ev@Base 4:15.08.0
 _ZN6Marble19DgmlLegendTagWriterD0Ev@Base 4:15.08.0
 _ZN6Marble19DgmlLegendTagWriterD1Ev@Base 4:15.08.0
 _ZN6Marble19DgmlLegendTagWriterD2Ev@Base 4:15.08.0
 _ZN6Marble19DgmlVectorTagWriterD0Ev@Base 4:15.08.0
 _ZN6Marble19DgmlVectorTagWriterD1Ev@Base 4:15.08.0
 _ZN6Marble19DgmlVectorTagWriterD2Ev@Base 4:15.08.0
 _ZN6Marble19EditPlacemarkDialog11checkFieldsEv@Base 4:15.08.0
 _ZN6Marble19EditPlacemarkDialog11qt_metacallEN11QMetaObject4CallEiPPv@Base 4:15.08.0
 _ZN6Marble19EditPlacemarkDialog11qt_metacastEPKc@Base 4:15.08.0
 _ZN6Marble19EditPlacemarkDialog11setIdFilterERK11QStringList@Base 4:15.08.0
 _ZN6Marble19EditPlacemarkDialog11setReadOnlyEb@Base 4:15.08.0
 _ZN6Marble19EditPlacemarkDialog12setTargetIdsERK11QStringList@Base 4:15.08.0
 _ZN6Marble19EditPlacemarkDialog13setLabelColorERK6QColor@Base 4:15.08.0
 _ZN6Marble19EditPlacemarkDialog14restoreInitialEi@Base 4:15.08.0
 _ZN6Marble19EditPlacemarkDialog16staticMetaObjectE@Base 4:15.08.0
 _ZN6Marble19EditPlacemarkDialog16updateIconDialogERK6QColor@Base 4:15.08.0
 _ZN6Marble19EditPlacemarkDialog17setIdFieldVisibleEb@Base 4:15.08.0
 _ZN6Marble19EditPlacemarkDialog17updateLabelDialogERK6QColor@Base 4:15.08.0
 _ZN6Marble19EditPlacemarkDialog18updateDialogFieldsEv@Base 4:15.08.0
 _ZN6Marble19EditPlacemarkDialog20updateTextAnnotationEv@Base 4:15.08.0
 _ZN6Marble19EditPlacemarkDialog21textAnnotationUpdatedEPNS_14GeoDataFeatureE@Base 4:15.08.0
 _ZN6Marble19EditPlacemarkDialog23setTargetIdFieldVisibleEb@Base 4:15.08.0
 _ZN6Marble19EditPlacemarkDialog23updatePlacemarkAltitudeEv@Base 4:15.08.0
 _ZN6Marble19EditPlacemarkDialog7PrivateC1EPNS_16GeoDataPlacemarkE@Base 4:15.08.0
 _ZN6Marble19EditPlacemarkDialog7PrivateC2EPNS_16GeoDataPlacemarkE@Base 4:15.08.0
 _ZN6Marble19EditPlacemarkDialog7PrivateD1Ev@Base 4:15.08.0
 _ZN6Marble19EditPlacemarkDialog7PrivateD2Ev@Base 4:15.08.0
 _ZN6Marble19EditPlacemarkDialogC1EPNS_16GeoDataPlacemarkEP7QWidget@Base 4:15.08.0
 _ZN6Marble19EditPlacemarkDialogC2EPNS_16GeoDataPlacemarkEP7QWidget@Base 4:15.08.0
 _ZN6Marble19EditPlacemarkDialogD0Ev@Base 4:15.08.0
 _ZN6Marble19EditPlacemarkDialogD1Ev@Base 4:15.08.0
 _ZN6Marble19EditPlacemarkDialogD2Ev@Base 4:15.08.0
 _ZN6Marble19EquivalenceBlendingD0Ev@Base 4:15.08.0
 _ZN6Marble19EquivalenceBlendingD1Ev@Base 4:15.08.0
 _ZN6Marble19EquivalenceBlendingD2Ev@Base 4:15.08.0
 _ZN6Marble19FormattedTextWidget11qt_metacallEN11QMetaObject4CallEiPPv@Base 4:15.08.0
 _ZN6Marble19FormattedTextWidget11qt_metacastEPKc@Base 4:15.08.0
 _ZN6Marble19FormattedTextWidget11setReadOnlyEb@Base 4:15.08.0
 _ZN6Marble19FormattedTextWidget11textUpdatedEv@Base 4:15.08.0
 _ZN6Marble19FormattedTextWidget16staticMetaObjectE@Base 4:15.08.0
 _ZN6Marble19FormattedTextWidget17setTextCursorBoldEb@Base 4:15.08.0
 _ZN6Marble19FormattedTextWidget17setTextCursorFontERK5QFont@Base 4:15.08.0
 _ZN6Marble19FormattedTextWidget18setTextCursorColorERK6QColor@Base 4:15.08.0
 _ZN6Marble19FormattedTextWidget19setTextCursorItalicEb@Base 4:15.08.0
 _ZN6Marble19FormattedTextWidget20addLinkToDescriptionEv@Base 4:15.08.0
 _ZN6Marble19FormattedTextWidget21addImageToDescriptionEv@Base 4:15.08.0
 _ZN6Marble19FormattedTextWidget21setTextCursorFontSizeERK7QString@Base 4:15.08.0
 _ZN6Marble19FormattedTextWidget23setTextCursorUnderlinedEb@Base 4:15.08.0
 _ZN6Marble19FormattedTextWidget25toggleDescriptionEditModeEb@Base 4:15.08.0
 _ZN6Marble19FormattedTextWidget28updateDescriptionEditButtonsEv@Base 4:15.08.0
 _ZN6Marble19FormattedTextWidget4textEv@Base 4:15.08.0
 _ZN6Marble19FormattedTextWidget7PrivateC1Ev@Base 4:15.08.0
 _ZN6Marble19FormattedTextWidget7PrivateC2Ev@Base 4:15.08.0
 _ZN6Marble19FormattedTextWidget7PrivateD1Ev@Base 4:15.08.0
 _ZN6Marble19FormattedTextWidget7PrivateD2Ev@Base 4:15.08.0
 _ZN6Marble19FormattedTextWidget7setTextERK7QString@Base 4:15.08.0
 _ZN6Marble19FormattedTextWidgetC1EP7QWidget@Base 4:15.08.0
 _ZN6Marble19FormattedTextWidgetC2EP7QWidget@Base 4:15.08.0
 _ZN6Marble19FormattedTextWidgetD0Ev@Base 4:15.08.0
 _ZN6Marble19FormattedTextWidgetD1Ev@Base 4:15.08.0
 _ZN6Marble19FormattedTextWidgetD2Ev@Base 4:15.08.0
 _ZN6Marble19GeoDataAbstractView11setTimeSpanERKNS_15GeoDataTimeSpanE@Base 4:15.08.0
 _ZN6Marble19GeoDataAbstractView12setTimeStampERKNS_16GeoDataTimeStampE@Base 4:15.08.0
 _ZN6Marble19GeoDataAbstractView15setAltitudeModeENS_12AltitudeModeE@Base 4:15.08.0
 _ZN6Marble19GeoDataAbstractView8timeSpanEv@Base 4:15.08.0
 _ZN6Marble19GeoDataAbstractView9timeStampEv@Base 4:15.08.0
 _ZN6Marble19GeoDataAbstractViewC1ERKS0_@Base 4:15.08.0
 _ZN6Marble19GeoDataAbstractViewC1Ev@Base 4:15.08.0
 _ZN6Marble19GeoDataAbstractViewC2ERKS0_@Base 4:15.08.0
 _ZN6Marble19GeoDataAbstractViewC2Ev@Base 4:15.08.0
 _ZN6Marble19GeoDataAbstractViewD0Ev@Base 4:15.08.0
 _ZN6Marble19GeoDataAbstractViewD1Ev@Base 4:15.08.0
 _ZN6Marble19GeoDataAbstractViewD2Ev@Base 4:15.08.0
 _ZN6Marble19GeoDataAbstractViewaSERKS0_@Base 4:15.08.0
 _ZN6Marble19GeoDataAliasPrivateC1Ev@Base 4:15.08.0
 _ZN6Marble19GeoDataAliasPrivateC2Ev@Base 4:15.08.0
 _ZN6Marble19GeoDataBalloonStyle12setTextColorERK6QColor@Base 4:15.08.0
 _ZN6Marble19GeoDataBalloonStyle14setDisplayModeERKNS0_11DisplayModeE@Base 4:15.08.0
 _ZN6Marble19GeoDataBalloonStyle18setBackgroundColorERK6QColor@Base 4:15.08.0
 _ZN6Marble19GeoDataBalloonStyle6unpackER11QDataStream@Base 4:15.08.0
 _ZN6Marble19GeoDataBalloonStyle7setTextERK7QString@Base 4:15.08.0
 _ZN6Marble19GeoDataBalloonStyleC1ERKS0_@Base 4:15.08.0
 _ZN6Marble19GeoDataBalloonStyleC1Ev@Base 4:15.08.0
 _ZN6Marble19GeoDataBalloonStyleC2ERKS0_@Base 4:15.08.0
 _ZN6Marble19GeoDataBalloonStyleC2Ev@Base 4:15.08.0
 _ZN6Marble19GeoDataBalloonStyleD0Ev@Base 4:15.08.0
 _ZN6Marble19GeoDataBalloonStyleD1Ev@Base 4:15.08.0
 _ZN6Marble19GeoDataBalloonStyleD2Ev@Base 4:15.08.0
 _ZN6Marble19GeoDataBalloonStyleaSERKS0_@Base 4:15.08.0
 _ZN6Marble19GeoDataExtendedData13addSchemaDataERKNS_17GeoDataSchemaDataE@Base 4:15.08.0
 _ZN6Marble19GeoDataExtendedData16removeSchemaDataERK7QString@Base 4:15.08.0
 _ZN6Marble19GeoDataExtendedData18setSimpleArrayDataERK7QStringPNS_22GeoDataSimpleArrayDataE@Base 4:15.08.0
 _ZN6Marble19GeoDataExtendedData6unpackER11QDataStream@Base 4:15.08.0
 _ZN6Marble19GeoDataExtendedData8addValueERKNS_11GeoDataDataE@Base 4:15.08.0
 _ZN6Marble19GeoDataExtendedDataC1ERKS0_@Base 4:15.08.0
 _ZN6Marble19GeoDataExtendedDataC1Ev@Base 4:15.08.0
 _ZN6Marble19GeoDataExtendedDataC2ERKS0_@Base 4:15.08.0
 _ZN6Marble19GeoDataExtendedDataC2Ev@Base 4:15.08.0
 _ZN6Marble19GeoDataExtendedDataD0Ev@Base 4:15.08.0
 _ZN6Marble19GeoDataExtendedDataD1Ev@Base 4:15.08.0
 _ZN6Marble19GeoDataExtendedDataD2Ev@Base 4:15.08.0
 _ZN6Marble19GeoDataExtendedDataaSERKS0_@Base 4:15.08.0
 _ZN6Marble19GeoDataFlyToPrivateC1Ev@Base 4:15.08.0
 _ZN6Marble19GeoDataFlyToPrivateC2Ev@Base 4:15.08.0
 _ZN6Marble19GeoDataImagePyramid11setMaxWidthERKi@Base 4:15.08.0
 _ZN6Marble19GeoDataImagePyramid11setTileSizeERKi@Base 4:15.08.0
 _ZN6Marble19GeoDataImagePyramid12setMaxHeightERKi@Base 4:15.08.0
 _ZN6Marble19GeoDataImagePyramid13setGridOriginERKNS0_10GridOriginE@Base 4:15.08.0
 _ZN6Marble19GeoDataImagePyramidC1ERKS0_@Base 4:15.08.0
 _ZN6Marble19GeoDataImagePyramidC1Ev@Base 4:15.08.0
 _ZN6Marble19GeoDataImagePyramidC2ERKS0_@Base 4:15.08.0
 _ZN6Marble19GeoDataImagePyramidC2Ev@Base 4:15.08.0
 _ZN6Marble19GeoDataImagePyramidD0Ev@Base 4:15.08.0
 _ZN6Marble19GeoDataImagePyramidD1Ev@Base 4:15.08.0
 _ZN6Marble19GeoDataImagePyramidD2Ev@Base 4:15.08.0
 _ZN6Marble19GeoDataImagePyramidaSERKS0_@Base 4:15.08.0
 _ZN6Marble19GeoDataImagePyramideqERKS0_@Base 4:15.08.0
 _ZN6Marble19GeoDataImagePyramidneERKS0_@Base 4:15.08.0
 _ZN6Marble19GeoDataLatLonAltBox14fromLineStringERKNS_17GeoDataLineStringE@Base 4:15.08.0
 _ZN6Marble19GeoDataLatLonAltBox14setMaxAltitudeEd@Base 4:15.08.0
 _ZN6Marble19GeoDataLatLonAltBox14setMinAltitudeEd@Base 4:15.08.0
 _ZN6Marble19GeoDataLatLonAltBox15setAltitudeModeENS_12AltitudeModeE@Base 4:15.08.0
 _ZN6Marble19GeoDataLatLonAltBox5clearEv@Base 4:15.08.0
 _ZN6Marble19GeoDataLatLonAltBox6unpackER11QDataStream@Base 4:15.08.0
 _ZN6Marble19GeoDataLatLonAltBoxC1ERKNS_16GeoDataLatLonBoxEdd@Base 4:15.08.0
 _ZN6Marble19GeoDataLatLonAltBoxC1ERKNS_18GeoDataCoordinatesE@Base 4:15.08.0
 _ZN6Marble19GeoDataLatLonAltBoxC1ERKS0_@Base 4:15.08.0
 _ZN6Marble19GeoDataLatLonAltBoxC1Ev@Base 4:15.08.0
 _ZN6Marble19GeoDataLatLonAltBoxC2ERKNS_16GeoDataLatLonBoxEdd@Base 4:15.08.0
 _ZN6Marble19GeoDataLatLonAltBoxC2ERKNS_18GeoDataCoordinatesE@Base 4:15.08.0
 _ZN6Marble19GeoDataLatLonAltBoxC2ERKS0_@Base 4:15.08.0
 _ZN6Marble19GeoDataLatLonAltBoxC2Ev@Base 4:15.08.0
 _ZN6Marble19GeoDataLatLonAltBoxD0Ev@Base 4:15.08.0
 _ZN6Marble19GeoDataLatLonAltBoxD1Ev@Base 4:15.08.0
 _ZN6Marble19GeoDataLatLonAltBoxD2Ev@Base 4:15.08.0
 _ZN6Marble19GeoDataLatLonAltBoxaSERKNS_18GeoDataCoordinatesE@Base 4:15.08.0
 _ZN6Marble19GeoDataLatLonAltBoxaSERKS0_@Base 4:15.08.0
 _ZN6Marble19GeoDataModelPrivate4copyEv@Base 4:15.08.0
 _ZN6Marble19GeoDataModelPrivateC1Ev@Base 4:15.08.0
 _ZN6Marble19GeoDataModelPrivateC2Ev@Base 4:15.08.0
 _ZN6Marble19GeoDataModelPrivateD0Ev@Base 4:15.08.0
 _ZN6Marble19GeoDataModelPrivateD1Ev@Base 4:15.08.0
 _ZN6Marble19GeoDataModelPrivateD2Ev@Base 4:15.08.0
 _ZN6Marble19GeoDataPhotoOverlay10viewVolumeEv@Base 4:15.08.0
 _ZN6Marble19GeoDataPhotoOverlay11setRotationEd@Base 4:15.08.0
 _ZN6Marble19GeoDataPhotoOverlay12imagePyramidEv@Base 4:15.08.0
 _ZN6Marble19GeoDataPhotoOverlay13setViewVolumeERKNS_17GeoDataViewVolumeE@Base 4:15.08.0
 _ZN6Marble19GeoDataPhotoOverlay15setImagePyramidERKNS_19GeoDataImagePyramidE@Base 4:15.08.0
 _ZN6Marble19GeoDataPhotoOverlay5pointEv@Base 4:15.08.0
 _ZN6Marble19GeoDataPhotoOverlay8setPointERKNS_12GeoDataPointE@Base 4:15.08.0
 _ZN6Marble19GeoDataPhotoOverlay8setShapeENS0_5ShapeE@Base 4:15.08.0
 _ZN6Marble19GeoDataPhotoOverlayC1ERKS0_@Base 4:15.08.0
 _ZN6Marble19GeoDataPhotoOverlayC1Ev@Base 4:15.08.0
 _ZN6Marble19GeoDataPhotoOverlayC2ERKS0_@Base 4:15.08.0
 _ZN6Marble19GeoDataPhotoOverlayC2Ev@Base 4:15.08.0
 _ZN6Marble19GeoDataPhotoOverlayD0Ev@Base 4:15.08.0
 _ZN6Marble19GeoDataPhotoOverlayD1Ev@Base 4:15.08.0
 _ZN6Marble19GeoDataPhotoOverlayD2Ev@Base 4:15.08.0
 _ZN6Marble19GeoDataPhotoOverlayaSERKS0_@Base 4:15.08.0
 _ZN6Marble19GeoDataPointPrivate4copyEv@Base 4:15.08.0
 _ZN6Marble19GeoDataPointPrivateD0Ev@Base 4:15.08.0
 _ZN6Marble19GeoDataPointPrivateD1Ev@Base 4:15.08.0
 _ZN6Marble19GeoDataPointPrivateD2Ev@Base 4:15.08.0
 _ZN6Marble19GeoDataScalePrivateC1Ev@Base 4:15.08.0
 _ZN6Marble19GeoDataScalePrivateC2Ev@Base 4:15.08.0
 _ZN6Marble19GeoDataTrackPrivate4copyEv@Base 4:15.08.0
 _ZN6Marble19GeoDataTrackPrivateD0Ev@Base 4:15.08.0
 _ZN6Marble19GeoDataTrackPrivateD1Ev@Base 4:15.08.0
 _ZN6Marble19GeoDataTrackPrivateD2Ev@Base 4:15.08.0
 _ZN6Marble19GeoSceneTextureTile12setLatLonBoxERKNS_16GeoDataLatLonBoxE@Base 4:15.08.0
 _ZN6Marble19GeoSceneTextureTileC1ERK7QString@Base 4:15.08.0
 _ZN6Marble19GeoSceneTextureTileC2ERK7QString@Base 4:15.08.0
 _ZN6Marble19GeoSceneTextureTileD0Ev@Base 4:15.08.0
 _ZN6Marble19GeoSceneTextureTileD1Ev@Base 4:15.08.0
 _ZN6Marble19GeoSceneTextureTileD2Ev@Base 4:15.08.0
 _ZN6Marble19HttpDownloadManager10jobRemovedEv@Base 4:15.08.0
 _ZN6Marble19HttpDownloadManager11qt_metacallEN11QMetaObject4CallEiPPv@Base 4:15.08.0
 _ZN6Marble19HttpDownloadManager11qt_metacastEPKc@Base 4:15.08.0
 _ZN6Marble19HttpDownloadManager15progressChangedEii@Base 4:15.08.0
 _ZN6Marble19HttpDownloadManager16downloadCompleteE10QByteArray7QString@Base 4:15.08.0
 _ZN6Marble19HttpDownloadManager16downloadCompleteE7QStringS1_@Base 4:15.08.0
 _ZN6Marble19HttpDownloadManager16staticMetaObjectE@Base 4:15.08.0
 _ZN6Marble19HttpDownloadManager17addDownloadPolicyERKNS_14DownloadPolicyE@Base 4:15.08.0
 _ZN6Marble19HttpDownloadManager18setDownloadEnabledEb@Base 4:15.08.0
 _ZN6Marble19HttpDownloadManager6addJobERK4QUrlRK7QStringS6_NS_13DownloadUsageE@Base 4:15.08.0
 _ZN6Marble19HttpDownloadManager7Private10findQueuesERK7QStringNS_13DownloadUsageE@Base 4:15.08.0
 _ZN6Marble19HttpDownloadManager7Private15connectQueueSetEPNS_16DownloadQueueSetE@Base 4:15.08.0
 _ZN6Marble19HttpDownloadManager7Private15startRetryTimerEv@Base 4:15.08.0
 _ZN6Marble19HttpDownloadManager7Private23connectDefaultQueueSetsEv@Base 4:15.08.0
 _ZN6Marble19HttpDownloadManager7Private7requeueEv@Base 4:15.08.0
 _ZN6Marble19HttpDownloadManager7Private9finishJobERK10QByteArrayRK7QStringS7_@Base 4:15.08.0
 _ZN6Marble19HttpDownloadManager7PrivateC1EPS0_PNS_13StoragePolicyE@Base 4:15.08.0
 _ZN6Marble19HttpDownloadManager7PrivateC2EPS0_PNS_13StoragePolicyE@Base 4:15.08.0
 _ZN6Marble19HttpDownloadManager7PrivateD1Ev@Base 4:15.08.0
 _ZN6Marble19HttpDownloadManager7PrivateD2Ev@Base 4:15.08.0
 _ZN6Marble19HttpDownloadManager8jobAddedEv@Base 4:15.08.0
 _ZN6Marble19HttpDownloadManager9userAgentERK7QStringS3_@Base 4:15.08.0
 _ZN6Marble19HttpDownloadManagerC1EPNS_13StoragePolicyE@Base 4:15.08.0
 _ZN6Marble19HttpDownloadManagerC2EPNS_13StoragePolicyE@Base 4:15.08.0
 _ZN6Marble19HttpDownloadManagerD0Ev@Base 4:15.08.0
 _ZN6Marble19HttpDownloadManagerD1Ev@Base 4:15.08.0
 _ZN6Marble19HttpDownloadManagerD2Ev@Base 4:15.08.0
 _ZN6Marble19KmlFeatureTagWriterC1ERK7QString@Base 4:15.08.0
 _ZN6Marble19KmlFeatureTagWriterC2ERK7QString@Base 4:15.08.0
 _ZN6Marble19KmlLatLonQuadWriterD0Ev@Base 4:15.08.0
 _ZN6Marble19KmlLatLonQuadWriterD1Ev@Base 4:15.08.0
 _ZN6Marble19KmlLatLonQuadWriterD2Ev@Base 4:15.08.0
 _ZN6Marble19KmlObjectTagHandler16parseIdentifiersERKNS_9GeoParserEPNS_13GeoDataObjectE@Base 4:15.08.0
 _ZN6Marble19KmlOverlayTagWriterC1ERK7QString@Base 4:15.08.0
 _ZN6Marble19KmlOverlayTagWriterC2ERK7QString@Base 4:15.08.0
 _ZN6Marble19KmlPolygonTagWriterD0Ev@Base 4:15.08.0
 _ZN6Marble19KmlPolygonTagWriterD1Ev@Base 4:15.08.0
 _ZN6Marble19KmlPolygonTagWriterD2Ev@Base 4:15.08.0
 _ZN6Marble19LegendWidgetPrivateC1Ev@Base 4:15.08.0
 _ZN6Marble19LegendWidgetPrivateC2Ev@Base 4:15.08.0
 _ZN6Marble19LinearLightBlendingD0Ev@Base 4:15.08.0
 _ZN6Marble19LinearLightBlendingD1Ev@Base 4:15.08.0
 _ZN6Marble19LinearLightBlendingD2Ev@Base 4:15.08.0
 _ZN6Marble19MapViewItemDelegate11qt_metacallEN11QMetaObject4CallEiPPv@Base 4:15.08.0
 _ZN6Marble19MapViewItemDelegate11qt_metacastEPKc@Base 4:15.08.0
 _ZN6Marble19MapViewItemDelegate16staticMetaObjectE@Base 4:15.08.0
 _ZN6Marble19MapViewItemDelegate4textERK11QModelIndex@Base 4:15.08.0
 _ZN6Marble19MapViewItemDelegateC1EP9QListView@Base 4:15.08.0
 _ZN6Marble19MapViewItemDelegateC2EP9QListView@Base 4:15.08.0
 _ZN6Marble19MapViewItemDelegateD0Ev@Base 4:15.08.0
 _ZN6Marble19MapViewItemDelegateD1Ev@Base 4:15.08.0
 _ZN6Marble19MapViewItemDelegateD2Ev@Base 4:15.08.0
 _ZN6Marble19MarbleDBusInterface11qt_metacallEN11QMetaObject4CallEiPPv@Base 4:15.08.0
 _ZN6Marble19MarbleDBusInterface11qt_metacastEPKc@Base 4:15.08.0
 _ZN6Marble19MarbleDBusInterface11setMapThemeERK7QString@Base 4:15.08.0
 _ZN6Marble19MarbleDBusInterface11zoomChangedEi@Base 4:15.08.0
 _ZN6Marble19MarbleDBusInterface13centerChangedERK7QPointF@Base 4:15.08.0
 _ZN6Marble19MarbleDBusInterface15mapThemeChangedERK7QString@Base 4:15.08.0
 _ZN6Marble19MarbleDBusInterface16staticMetaObjectE@Base 4:15.08.0
 _ZN6Marble19MarbleDBusInterface16tileLevelChangedEi@Base 4:15.08.0
 _ZN6Marble19MarbleDBusInterface18setPropertyEnabledERK7QStringb@Base 4:15.08.0
 _ZN6Marble19MarbleDBusInterface31handleVisibleLatLonAltBoxChangeEv@Base 4:15.08.0
 _ZN6Marble19MarbleDBusInterface7PrivateC1EPNS_12MarbleWidgetE@Base 4:15.08.0
 _ZN6Marble19MarbleDBusInterface7PrivateC2EPNS_12MarbleWidgetE@Base 4:15.08.0
 _ZN6Marble19MarbleDBusInterface7setZoomEi@Base 4:15.08.0
 _ZN6Marble19MarbleDBusInterfaceC1EPNS_12MarbleWidgetE@Base 4:15.08.0
 _ZN6Marble19MarbleDBusInterfaceC2EPNS_12MarbleWidgetE@Base 4:15.08.0
 _ZN6Marble19MarbleDBusInterfaceD0Ev@Base 4:15.08.0
 _ZN6Marble19MarbleDBusInterfaceD1Ev@Base 4:15.08.0
 _ZN6Marble19MarbleDBusInterfaceD2Ev@Base 4:15.08.0
 _ZN6Marble19MarbleGlobalPrivateC1Ev@Base 4:15.08.0
 _ZN6Marble19MarbleGlobalPrivateC2Ev@Base 4:15.08.0
 _ZN6Marble19MarbleGlobalPrivateD0Ev@Base 4:15.08.0
 _ZN6Marble19MarbleGlobalPrivateD1Ev@Base 4:15.08.0
 _ZN6Marble19MarbleGlobalPrivateD2Ev@Base 4:15.08.0
 _ZN6Marble19MarbleLegendBrowser10loadLegendEv@Base 4:15.08.0
 _ZN6Marble19MarbleLegendBrowser11qt_metacallEN11QMetaObject4CallEiPPv@Base 4:15.08.0
 _ZN6Marble19MarbleLegendBrowser11qt_metacastEPKc@Base 4:15.08.0
 _ZN6Marble19MarbleLegendBrowser13translateHtmlER7QString@Base 4:15.08.0
 _ZN6Marble19MarbleLegendBrowser14setMarbleModelEPNS_11MarbleModelE@Base 4:15.08.0
 _ZN6Marble19MarbleLegendBrowser15tourLinkClickedERK7QString@Base 4:15.08.0
 _ZN6Marble19MarbleLegendBrowser16staticMetaObjectE@Base 4:15.08.0
 _ZN6Marble19MarbleLegendBrowser18openLinkExternallyERK4QUrl@Base 4:15.08.0
 _ZN6Marble19MarbleLegendBrowser18setCheckedPropertyERK7QStringb@Base 4:15.08.0
 _ZN6Marble19MarbleLegendBrowser19toggledShowPropertyE7QStringb@Base 4:15.08.0
 _ZN6Marble19MarbleLegendBrowser20generateSectionsHtmlEv@Base 4:15.08.0
 _ZN6Marble19MarbleLegendBrowser21injectCheckBoxCheckerEv@Base 4:15.08.0
 _ZN6Marble19MarbleLegendBrowser23setRadioCheckedPropertyERK7QStringS3_b@Base 4:15.08.0
 _ZN6Marble19MarbleLegendBrowser24reverseSupportCheckboxesER7QString@Base 4:15.08.0
 _ZN6Marble19MarbleLegendBrowser5eventEP6QEvent@Base 4:15.08.0
 _ZN6Marble19MarbleLegendBrowser8readHtmlERK4QUrl@Base 4:15.08.0
 _ZN6Marble19MarbleLegendBrowser9initThemeEv@Base 4:15.08.0
 _ZN6Marble19MarbleLegendBrowserC1EP7QWidget@Base 4:15.08.0
 _ZN6Marble19MarbleLegendBrowserC2EP7QWidget@Base 4:15.08.0
 _ZN6Marble19MarbleLegendBrowserD0Ev@Base 4:15.08.0
 _ZN6Marble19MarbleLegendBrowserD1Ev@Base 4:15.08.0
 _ZN6Marble19MarbleLegendBrowserD2Ev@Base 4:15.08.0
 _ZN6Marble19MarbleLocalePrivateC1Ev@Base 4:15.08.0
 _ZN6Marble19MarbleLocalePrivateC2Ev@Base 4:15.08.0
 _ZN6Marble19MarbleLocalePrivateD0Ev@Base 4:15.08.0
 _ZN6Marble19MarbleLocalePrivateD1Ev@Base 4:15.08.0
 _ZN6Marble19MarbleLocalePrivateD2Ev@Base 4:15.08.0
 _ZN6Marble19MarbleWidgetPrivate14updateMapThemeEv@Base 4:15.08.0
 _ZN6Marble19MarbleWidgetPrivate15setInputHandlerEPNS_24MarbleWidgetInputHandlerE@Base 4:15.08.0
 _ZN6Marble19MarbleWidgetPrivate15setInputHandlerEv@Base 4:15.08.0
 _ZN6Marble19MarbleWidgetPrivate31updateSystemBackgroundAttributeEv@Base 4:15.08.0
 _ZN6Marble19MarbleWidgetPrivate9constructEv@Base 4:15.08.0
 _ZN6Marble19MarbleWidgetPrivateD0Ev@Base 4:15.08.0
 _ZN6Marble19MarbleWidgetPrivateD1Ev@Base 4:15.08.0
 _ZN6Marble19MarbleWidgetPrivateD2Ev@Base 4:15.08.0
 _ZN6Marble19OwncloudSyncBackend11deleteRouteERK7QString@Base 4:15.08.0
 _ZN6Marble19OwncloudSyncBackend11qt_metacallEN11QMetaObject4CallEiPPv@Base 4:15.08.0
 _ZN6Marble19OwncloudSyncBackend11qt_metacastEPKc@Base 4:15.08.0
 _ZN6Marble19OwncloudSyncBackend11uploadRouteERK7QString@Base 4:15.08.0
 _ZN6Marble19OwncloudSyncBackend12cancelUploadEv@Base 4:15.08.0
 _ZN6Marble19OwncloudSyncBackend12routeDeletedEv@Base 4:15.08.0
 _ZN6Marble19OwncloudSyncBackend13downloadRouteERK7QString@Base 4:15.08.0
 _ZN6Marble19OwncloudSyncBackend14checkAuthErrorEN13QNetworkReply12NetworkErrorE@Base 4:15.08.0
 _ZN6Marble19OwncloudSyncBackend14checkAuthReplyEv@Base 4:15.08.0
 _ZN6Marble19OwncloudSyncBackend15removeFromCacheERK4QDirRK7QString@Base 4:15.08.0
 _ZN6Marble19OwncloudSyncBackend15routeDownloadedEv@Base 4:15.08.0
 _ZN6Marble19OwncloudSyncBackend16prepareRouteListEv@Base 4:15.08.0
 _ZN6Marble19OwncloudSyncBackend16removedFromCacheERK7QString@Base 4:15.08.0
 _ZN6Marble19OwncloudSyncBackend16staticMetaObjectE@Base 4:15.08.0
 _ZN6Marble19OwncloudSyncBackend16validateSettingsEv@Base 4:15.08.0
 _ZN6Marble19OwncloudSyncBackend17downloadRouteListEv@Base 4:15.08.0
 _ZN6Marble19OwncloudSyncBackend19routeListDownloadedERK7QVectorINS_9RouteItemEE@Base 4:15.08.0
 _ZN6Marble19OwncloudSyncBackend19routeUploadProgressExx@Base 4:15.08.0
 _ZN6Marble19OwncloudSyncBackend19saveDownloadedRouteEv@Base 4:15.08.0
 _ZN6Marble19OwncloudSyncBackend21routeDownloadProgressExx@Base 4:15.08.0
 _ZN6Marble19OwncloudSyncBackend25routeListDownloadProgressExx@Base 4:15.08.0
 _ZN6Marble19OwncloudSyncBackend7PrivateC1EPNS_16CloudSyncManagerE@Base 4:15.08.0
 _ZN6Marble19OwncloudSyncBackend7PrivateC2EPNS_16CloudSyncManagerE@Base 4:15.08.0
 _ZN6Marble19OwncloudSyncBackendC1EPNS_16CloudSyncManagerE@Base 4:15.08.0
 _ZN6Marble19OwncloudSyncBackendC2EPNS_16CloudSyncManagerE@Base 4:15.08.0
 _ZN6Marble19OwncloudSyncBackendD0Ev@Base 4:15.08.0
 _ZN6Marble19OwncloudSyncBackendD1Ev@Base 4:15.08.0
 _ZN6Marble19OwncloudSyncBackendD2Ev@Base 4:15.08.0
 _ZN6Marble19PlacemarkEditHeader11qt_metacallEN11QMetaObject4CallEiPPv@Base 4:15.08.0
 _ZN6Marble19PlacemarkEditHeader11qt_metacastEPKc@Base 4:15.08.0
 _ZN6Marble19PlacemarkEditHeader11setIconLinkERK7QString@Base 4:15.08.0
 _ZN6Marble19PlacemarkEditHeader11setIdFilterERK11QStringList@Base 4:15.08.0
 _ZN6Marble19PlacemarkEditHeader11setLatitudeEd@Base 4:15.08.0
 _ZN6Marble19PlacemarkEditHeader11setNotationENS_18GeoDataCoordinates8NotationE@Base 4:15.08.0
 _ZN6Marble19PlacemarkEditHeader11setReadOnlyEb@Base 4:15.08.0
 _ZN6Marble19PlacemarkEditHeader11setTargetIdERK7QString@Base 4:15.08.0
 _ZN6Marble19PlacemarkEditHeader12setIdVisibleEb@Base 4:15.08.0
 _ZN6Marble19PlacemarkEditHeader12setLongitudeEd@Base 4:15.08.0
 _ZN6Marble19PlacemarkEditHeader12updateValuesEv@Base 4:15.08.0
 _ZN6Marble19PlacemarkEditHeader12valueChangedEv@Base 4:15.08.0
 _ZN6Marble19PlacemarkEditHeader15setTargetIdListERK11QStringList@Base 4:15.08.0
 _ZN6Marble19PlacemarkEditHeader16staticMetaObjectE@Base 4:15.08.0
 _ZN6Marble19PlacemarkEditHeader18setPositionVisibleEb@Base 4:15.08.0
 _ZN6Marble19PlacemarkEditHeader18setTargetIdVisibleEb@Base 4:15.08.0
 _ZN6Marble19PlacemarkEditHeader5setIdERK7QString@Base 4:15.08.0
 _ZN6Marble19PlacemarkEditHeader7setNameERK7QString@Base 4:15.08.0
 _ZN6Marble19PlacemarkEditHeader9selectAllEv@Base 4:15.08.0
 _ZN6Marble19PlacemarkEditHeaderC1EP7QWidgetNS_18GeoDataCoordinates8NotationE7QStringS5_S5_RK11QStringList@Base 4:15.08.0
 _ZN6Marble19PlacemarkEditHeaderC2EP7QWidgetNS_18GeoDataCoordinates8NotationE7QStringS5_S5_RK11QStringList@Base 4:15.08.0
 _ZN6Marble19PlacemarkEditHeaderD0Ev@Base 4:15.08.0
 _ZN6Marble19PlacemarkEditHeaderD1Ev@Base 4:15.08.0
 _ZN6Marble19PlacemarkEditHeaderD2Ev@Base 4:15.08.0
 _ZN6Marble19RoutingLayerPrivate11renderRouteEPNS_10GeoPainterE@Base 4:15.08.0
 _ZN6Marble19RoutingLayerPrivate15handleMouseMoveEP11QMouseEvent@Base 4:15.08.0
 (arch=amd64 arm64 ppc64el)_ZN6Marble19RoutingLayerPrivate16renderPlacemarksEPNS_10GeoPainterE@Base 4:15.08.0
 _ZN6Marble19RoutingLayerPrivate17storeDragPositionERK6QPoint@Base 4:15.08.0
 _ZN6Marble19RoutingLayerPrivate22handleMouseButtonPressEP11QMouseEvent@Base 4:15.08.0
 _ZN6Marble19RoutingLayerPrivateC1EPNS_12RoutingLayerEPNS_12MarbleWidgetE@Base 4:15.08.0
 _ZN6Marble19RoutingLayerPrivateC2EPNS_12RoutingLayerEPNS_12MarbleWidgetE@Base 4:15.08.0
 _ZN6Marble19RoutingModelPrivate15updateViaPointsERKNS_18GeoDataCoordinatesE@Base 4:15.08.0
 _ZN6Marble19RoutingModelPrivateC1EPNS_12RouteRequestE@Base 4:15.08.0
 _ZN6Marble19RoutingModelPrivateC2EPNS_12RouteRequestE@Base 4:15.08.0
 _ZN6Marble19RoutingRunnerPlugin11qt_metacallEN11QMetaObject4CallEiPPv@Base 4:15.08.0
 _ZN6Marble19RoutingRunnerPlugin11qt_metacastEPKc@Base 4:15.08.0
 _ZN6Marble19RoutingRunnerPlugin12configWidgetEv@Base 4:15.08.0
 _ZN6Marble19RoutingRunnerPlugin16setStatusMessageERK7QString@Base 4:15.08.0
 _ZN6Marble19RoutingRunnerPlugin16staticMetaObjectE@Base 4:15.08.0
 _ZN6Marble19RoutingRunnerPlugin17setCanWorkOfflineEb@Base 4:15.08.0
 _ZN6Marble19RoutingRunnerPlugin27setSupportedCelestialBodiesERK11QStringList@Base 4:15.08.0
 _ZN6Marble19RoutingRunnerPlugin7PrivateC1Ev@Base 4:15.08.0
 _ZN6Marble19RoutingRunnerPlugin7PrivateC2Ev@Base 4:15.08.0
 _ZN6Marble19RoutingRunnerPluginC1EP7QObject@Base 4:15.08.0
 _ZN6Marble19RoutingRunnerPluginC2EP7QObject@Base 4:15.08.0
 _ZN6Marble19RoutingRunnerPluginD0Ev@Base 4:15.08.0
 _ZN6Marble19RoutingRunnerPluginD1Ev@Base 4:15.08.0
 _ZN6Marble19RoutingRunnerPluginD2Ev@Base 4:15.08.0
 _ZN6Marble19SearchRunnerManager11qt_metacallEN11QMetaObject4CallEiPPv@Base 4:15.08.0
 _ZN6Marble19SearchRunnerManager11qt_metacastEPKc@Base 4:15.08.0
 _ZN6Marble19SearchRunnerManager14findPlacemarksERK7QStringRKNS_16GeoDataLatLonBoxE@Base 4:15.08.0
 _ZN6Marble19SearchRunnerManager14searchFinishedERK7QString@Base 4:15.08.0
 _ZN6Marble19SearchRunnerManager16searchPlacemarksERK7QStringRKNS_16GeoDataLatLonBoxEi@Base 4:15.08.0
 _ZN6Marble19SearchRunnerManager16staticMetaObjectE@Base 4:15.08.0
 _ZN6Marble19SearchRunnerManager19searchResultChangedEP18QAbstractItemModel@Base 4:15.08.0
 _ZN6Marble19SearchRunnerManager19searchResultChangedERK7QVectorIPNS_16GeoDataPlacemarkEE@Base 4:15.08.0
 _ZN6Marble19SearchRunnerManager23placemarkSearchFinishedEv@Base 4:15.08.0
 _ZN6Marble19SearchRunnerManager7Private15addSearchResultERK7QVectorIPNS_16GeoDataPlacemarkEE@Base 4:15.08.0
 _ZN6Marble19SearchRunnerManager7Private17cleanupSearchTaskEPNS_10SearchTaskE@Base 4:15.08.0
 _ZN6Marble19SearchRunnerManager7PrivateC1EPS0_PKNS_11MarbleModelE@Base 4:15.08.0
 _ZN6Marble19SearchRunnerManager7PrivateC2EPS0_PKNS_11MarbleModelE@Base 4:15.08.0
 _ZN6Marble19SearchRunnerManagerC1EPKNS_11MarbleModelEP7QObject@Base 4:15.08.0
 _ZN6Marble19SearchRunnerManagerC2EPKNS_11MarbleModelEP7QObject@Base 4:15.08.0
 _ZN6Marble19SearchRunnerManagerD0Ev@Base 4:15.08.0
 _ZN6Marble19SearchRunnerManagerD1Ev@Base 4:15.08.0
 _ZN6Marble19SearchRunnerManagerD2Ev@Base 4:15.08.0
 _ZN6Marble19SearchWidgetPrivate11centerMapOnERK11QModelIndex@Base 4:15.08.0
 _ZN6Marble19SearchWidgetPrivate11clearSearchEv@Base 4:15.08.0
 _ZN6Marble19SearchWidgetPrivate15setSearchResultE7QVectorIPNS_16GeoDataPlacemarkEE@Base 4:15.08.0
 _ZN6Marble19SearchWidgetPrivate6searchERK7QStringNS_10SearchModeE@Base 4:15.08.0
 _ZN6Marble19SearchWidgetPrivateC1Ev@Base 4:15.08.0
 _ZN6Marble19SearchWidgetPrivateC2Ev@Base 4:15.08.0
 _ZN6Marble19SphericalProjectionC1EPNS_26SphericalProjectionPrivateE@Base 4:15.08.0
 _ZN6Marble19SphericalProjectionC1Ev@Base 4:15.08.0
 _ZN6Marble19SphericalProjectionC2EPNS_26SphericalProjectionPrivateE@Base 4:15.08.0
 _ZN6Marble19SphericalProjectionC2Ev@Base 4:15.08.0
 _ZN6Marble19SphericalProjectionD0Ev@Base 4:15.08.0
 _ZN6Marble19SphericalProjectionD1Ev@Base 4:15.08.0
 _ZN6Marble19SphericalProjectionD2Ev@Base 4:15.08.0
 _ZN6Marble19SubtractiveBlendingD0Ev@Base 4:15.08.0
 _ZN6Marble19SubtractiveBlendingD1Ev@Base 4:15.08.0
 _ZN6Marble19SubtractiveBlendingD2Ev@Base 4:15.08.0
 _ZN6Marble19TourPlaybackPrivateC1Ev@Base 4:15.08.0
 _ZN6Marble19TourPlaybackPrivateC2Ev@Base 4:15.08.0
 _ZN6Marble19TourPlaybackPrivateD1Ev@Base 4:15.08.0
 _ZN6Marble19TourPlaybackPrivateD2Ev@Base 4:15.08.0
 _ZN6Marble20AbstractWorkerThread11qt_metacallEN11QMetaObject4CallEiPPv@Base 4:15.08.0
 _ZN6Marble20AbstractWorkerThread11qt_metacastEPKc@Base 4:15.08.0
 _ZN6Marble20AbstractWorkerThread13ensureRunningEv@Base 4:15.08.0
 _ZN6Marble20AbstractWorkerThread16staticMetaObjectE@Base 4:15.08.0
 _ZN6Marble20AbstractWorkerThread3runEv@Base 4:15.08.0
 _ZN6Marble20AbstractWorkerThreadC1EP7QObject@Base 4:15.08.0
 _ZN6Marble20AbstractWorkerThreadC2EP7QObject@Base 4:15.08.0
 _ZN6Marble20AbstractWorkerThreadD0Ev@Base 4:15.08.0
 _ZN6Marble20AbstractWorkerThreadD1Ev@Base 4:15.08.0
 _ZN6Marble20AbstractWorkerThreadD2Ev@Base 4:15.08.0
 _ZN6Marble20ArcusTangentBlendingD0Ev@Base 4:15.08.0
 _ZN6Marble20ArcusTangentBlendingD1Ev@Base 4:15.08.0
 _ZN6Marble20ArcusTangentBlendingD2Ev@Base 4:15.08.0
 _ZN6Marble20DgmlGeodataTagWriterD0Ev@Base 4:15.08.0
 _ZN6Marble20DgmlGeodataTagWriterD1Ev@Base 4:15.08.0
 _ZN6Marble20DgmlGeodataTagWriterD2Ev@Base 4:15.08.0
 _ZN6Marble20DgmlSectionTagWriterD0Ev@Base 4:15.08.0
 _ZN6Marble20DgmlSectionTagWriterD1Ev@Base 4:15.08.0
 _ZN6Marble20DgmlSectionTagWriterD2Ev@Base 4:15.08.0
 _ZN6Marble20DgmlTextureTagWriterD0Ev@Base 4:15.08.0
 _ZN6Marble20DgmlTextureTagWriterD1Ev@Base 4:15.08.0
 _ZN6Marble20DgmlTextureTagWriterD2Ev@Base 4:15.08.0
 _ZN6Marble20DownloadRegionDialog11qt_metacallEN11QMetaObject4CallEiPPv@Base 4:15.08.0
 _ZN6Marble20DownloadRegionDialog11qt_metacastEPKc@Base 4:15.08.0
 _ZN6Marble20DownloadRegionDialog13setOffsetUnitEv@Base 4:15.08.0
 _ZN6Marble20DownloadRegionDialog16staticMetaObjectE@Base 4:15.08.0
 _ZN6Marble20DownloadRegionDialog16updateTilesCountEv@Base 4:15.08.0
 _ZN6Marble20DownloadRegionDialog17updateRouteDialogEv@Base 4:15.08.0
 _ZN6Marble20DownloadRegionDialog18setSelectionMethodENS0_15SelectionMethodE@Base 4:15.08.0
 _ZN6Marble20DownloadRegionDialog18updateTextureLayerEv@Base 4:15.08.0
 _ZN6Marble20DownloadRegionDialog19setVisibleTileLevelEi@Base 4:15.08.0
 _ZN6Marble20DownloadRegionDialog21toggleSelectionMethodEv@Base 4:15.08.0
 _ZN6Marble20DownloadRegionDialog22setVisibleLatLonAltBoxERKNS_19GeoDataLatLonAltBoxE@Base 4:15.08.0
 _ZN6Marble20DownloadRegionDialog24setAllowedTileLevelRangeEii@Base 4:15.08.0
 _ZN6Marble20DownloadRegionDialog24setSpecifiedLatLonAltBoxERKNS_19GeoDataLatLonAltBoxE@Base 4:15.08.0
 _ZN6Marble20DownloadRegionDialog5shownEv@Base 4:15.08.0
 _ZN6Marble20DownloadRegionDialog6hiddenEv@Base 4:15.08.0
 _ZN6Marble20DownloadRegionDialog7Private18createTilesCounterEv@Base 4:15.08.0
 _ZN6Marble20DownloadRegionDialog7Private23createOkCancelButtonBoxEv@Base 4:15.08.0
 _ZN6Marble20DownloadRegionDialog7Private24createSelectionMethodBoxEv@Base 4:15.08.0
 _ZN6Marble20DownloadRegionDialog7PrivateC1EPNS_12MarbleWidgetEP7QDialog@Base 4:15.08.0
 _ZN6Marble20DownloadRegionDialog7PrivateC2EPNS_12MarbleWidgetEP7QDialog@Base 4:15.08.0
 _ZN6Marble20DownloadRegionDialog7appliedEv@Base 4:15.08.0
 _ZN6Marble20DownloadRegionDialog9hideEventEP10QHideEvent@Base 4:15.08.0
 _ZN6Marble20DownloadRegionDialog9showEventEP10QShowEvent@Base 4:15.08.0
 _ZN6Marble20DownloadRegionDialogC1EPNS_12MarbleWidgetEP7QWidget6QFlagsIN2Qt10WindowTypeEE@Base 4:15.08.0
 _ZN6Marble20DownloadRegionDialogC2EPNS_12MarbleWidgetEP7QWidget6QFlagsIN2Qt10WindowTypeEE@Base 4:15.08.0
 _ZN6Marble20DownloadRegionDialogD0Ev@Base 4:15.08.0
 _ZN6Marble20DownloadRegionDialogD1Ev@Base 4:15.08.0
 _ZN6Marble20DownloadRegionDialogD2Ev@Base 4:15.08.0
 _ZN6Marble20ExternalEditorDialog11qt_metacallEN11QMetaObject4CallEiPPv@Base 4:15.08.0
 _ZN6Marble20ExternalEditorDialog11qt_metacastEPKc@Base 4:15.08.0
 _ZN6Marble20ExternalEditorDialog16staticMetaObjectE@Base 4:15.08.0
 _ZN6Marble20ExternalEditorDialog19updateDefaultEditorEi@Base 4:15.08.0
 _ZN6Marble20ExternalEditorDialogC1EP7QWidget6QFlagsIN2Qt10WindowTypeEE@Base 4:15.08.0
 _ZN6Marble20ExternalEditorDialogC2EP7QWidget6QFlagsIN2Qt10WindowTypeEE@Base 4:15.08.0
 _ZN6Marble20ExternalEditorDialogD0Ev@Base 4:15.08.0
 _ZN6Marble20ExternalEditorDialogD1Ev@Base 4:15.08.0
 _ZN6Marble20ExternalEditorDialogD2Ev@Base 4:15.08.0
 _ZN6Marble20GeoDataChangePrivateC1Ev@Base 4:15.08.0
 _ZN6Marble20GeoDataChangePrivateC2Ev@Base 4:15.08.0
 _ZN6Marble20GeoDataCreatePrivateC1Ev@Base 4:15.08.0
 _ZN6Marble20GeoDataCreatePrivateC2Ev@Base 4:15.08.0
 _ZN6Marble20GeoDataDeletePrivateC1Ev@Base 4:15.08.0
 _ZN6Marble20GeoDataDeletePrivateC2Ev@Base 4:15.08.0
 _ZN6Marble20GeoDataFolderPrivate4copyEv@Base 4:15.08.0
 _ZN6Marble20GeoDataFolderPrivateD0Ev@Base 4:15.08.0
 _ZN6Marble20GeoDataFolderPrivateD1Ev@Base 4:15.08.0
 _ZN6Marble20GeoDataFolderPrivateD2Ev@Base 4:15.08.0
 _ZN6Marble20GeoDataGroundOverlay10latLonQuadEv@Base 4:15.08.0
 _ZN6Marble20GeoDataGroundOverlay11setAltitudeEd@Base 4:15.08.0
 _ZN6Marble20GeoDataGroundOverlay12setLatLonBoxERKNS_16GeoDataLatLonBoxE@Base 4:15.08.0
 _ZN6Marble20GeoDataGroundOverlay13setLatLonQuadERKNS_17GeoDataLatLonQuadE@Base 4:15.08.0
 _ZN6Marble20GeoDataGroundOverlay15setAltitudeModeENS_12AltitudeModeE@Base 4:15.08.0
 _ZN6Marble20GeoDataGroundOverlayC1ERKS0_@Base 4:15.08.0
 _ZN6Marble20GeoDataGroundOverlayC1Ev@Base 4:15.08.0
 _ZN6Marble20GeoDataGroundOverlayC2ERKS0_@Base 4:15.08.0
 _ZN6Marble20GeoDataGroundOverlayC2Ev@Base 4:15.08.0
 _ZN6Marble20GeoDataGroundOverlayD0Ev@Base 4:15.08.0
 _ZN6Marble20GeoDataGroundOverlayD1Ev@Base 4:15.08.0
 _ZN6Marble20GeoDataGroundOverlayD2Ev@Base 4:15.08.0
 _ZN6Marble20GeoDataGroundOverlayaSERKS0_@Base 4:15.08.0
 _ZN6Marble20GeoDataMultiGeometry1pEv@Base 4:15.08.0
 _ZN6Marble20GeoDataMultiGeometry2atEi@Base 4:15.08.0
 _ZN6Marble20GeoDataMultiGeometry3endEv@Base 4:15.08.0
 _ZN6Marble20GeoDataMultiGeometry4lastEv@Base 4:15.08.0
 _ZN6Marble20GeoDataMultiGeometry5beginEv@Base 4:15.08.0
 _ZN6Marble20GeoDataMultiGeometry5childEi@Base 4:15.08.0
 _ZN6Marble20GeoDataMultiGeometry5clearEv@Base 4:15.08.0
 _ZN6Marble20GeoDataMultiGeometry5firstEv@Base 4:15.08.0
 _ZN6Marble20GeoDataMultiGeometry6appendEPNS_15GeoDataGeometryE@Base 4:15.08.0
 _ZN6Marble20GeoDataMultiGeometry6unpackER11QDataStream@Base 4:15.08.0
 _ZN6Marble20GeoDataMultiGeometryC1ERKNS_15GeoDataGeometryE@Base 4:15.08.0
 _ZN6Marble20GeoDataMultiGeometryC1Ev@Base 4:15.08.0
 _ZN6Marble20GeoDataMultiGeometryC2ERKNS_15GeoDataGeometryE@Base 4:15.08.0
 _ZN6Marble20GeoDataMultiGeometryC2Ev@Base 4:15.08.0
 _ZN6Marble20GeoDataMultiGeometryD0Ev@Base 4:15.08.0
 _ZN6Marble20GeoDataMultiGeometryD1Ev@Base 4:15.08.0
 _ZN6Marble20GeoDataMultiGeometryD2Ev@Base 4:15.08.0
 _ZN6Marble20GeoDataMultiGeometryixEi@Base 4:15.08.0
 _ZN6Marble20GeoDataMultiGeometrylsERKNS_15GeoDataGeometryE@Base 4:15.08.0
 _ZN6Marble20GeoDataScreenOverlay11setRotationEd@Base 4:15.08.0
 _ZN6Marble20GeoDataScreenOverlay11setScreenXYERKNS_11GeoDataVec2E@Base 4:15.08.0
 _ZN6Marble20GeoDataScreenOverlay11setScreenXYERKdS2_RKNS_11GeoDataVec24UnitES6_@Base 4:15.08.0
 _ZN6Marble20GeoDataScreenOverlay12setOverlayXYERKNS_11GeoDataVec2E@Base 4:15.08.0
 _ZN6Marble20GeoDataScreenOverlay12setOverlayXYERKdS2_RKNS_11GeoDataVec24UnitES6_@Base 4:15.08.0
 _ZN6Marble20GeoDataScreenOverlay13setRotationXYERKNS_11GeoDataVec2E@Base 4:15.08.0
 _ZN6Marble20GeoDataScreenOverlay13setRotationXYERKdS2_RKNS_11GeoDataVec24UnitES6_@Base 4:15.08.0
 _ZN6Marble20GeoDataScreenOverlay7setSizeERKNS_11GeoDataVec2E@Base 4:15.08.0
 _ZN6Marble20GeoDataScreenOverlay7setSizeERKdS2_RKNS_11GeoDataVec24UnitES6_@Base 4:15.08.0
 _ZN6Marble20GeoDataScreenOverlayC1ERKS0_@Base 4:15.08.0
 _ZN6Marble20GeoDataScreenOverlayC1Ev@Base 4:15.08.0
 _ZN6Marble20GeoDataScreenOverlayC2ERKS0_@Base 4:15.08.0
 _ZN6Marble20GeoDataScreenOverlayC2Ev@Base 4:15.08.0
 _ZN6Marble20GeoDataScreenOverlayD0Ev@Base 4:15.08.0
 _ZN6Marble20GeoDataScreenOverlayD1Ev@Base 4:15.08.0
 _ZN6Marble20GeoDataScreenOverlayD2Ev@Base 4:15.08.0
 _ZN6Marble20GeoDataScreenOverlayaSERKS0_@Base 4:15.08.0
 _ZN6Marble20GeoDataStyleSelector6unpackER11QDataStream@Base 4:15.08.0
 _ZN6Marble20GeoDataStyleSelectorC1ERKS0_@Base 4:15.08.0
 _ZN6Marble20GeoDataStyleSelectorC1Ev@Base 4:15.08.0
 _ZN6Marble20GeoDataStyleSelectorC2ERKS0_@Base 4:15.08.0
 _ZN6Marble20GeoDataStyleSelectorC2Ev@Base 4:15.08.0
 _ZN6Marble20GeoDataStyleSelectorD0Ev@Base 4:15.08.0
 _ZN6Marble20GeoDataStyleSelectorD1Ev@Base 4:15.08.0
 _ZN6Marble20GeoDataStyleSelectorD2Ev@Base 4:15.08.0
 _ZN6Marble20GeoDataStyleSelectoraSERKS0_@Base 4:15.08.0
 _ZN6Marble20GeoDataTimePrimitive6unpackER11QDataStream@Base 4:15.08.0
 _ZN6Marble20GeoDataTimePrimitiveC1ERKS0_@Base 4:15.08.0
 _ZN6Marble20GeoDataTimePrimitiveC1Ev@Base 4:15.08.0
 _ZN6Marble20GeoDataTimePrimitiveC2ERKS0_@Base 4:15.08.0
 _ZN6Marble20GeoDataTimePrimitiveC2Ev@Base 4:15.08.0
 _ZN6Marble20GeoDataTimePrimitiveD0Ev@Base 4:15.08.0
 _ZN6Marble20GeoDataTimePrimitiveD1Ev@Base 4:15.08.0
 _ZN6Marble20GeoDataTimePrimitiveD2Ev@Base 4:15.08.0
 _ZN6Marble20GeoDataTimePrimitiveaSERKS0_@Base 4:15.08.0
 _ZN6Marble20GeoDataUpdatePrivateC1Ev@Base 4:15.08.0
 _ZN6Marble20GeoDataUpdatePrivateC2Ev@Base 4:15.08.0
 _ZN6Marble20GeoPhotoGraphicsItem5paintEPNS_10GeoPainterEPKNS_14ViewportParamsE@Base 4:15.08.0
 _ZN6Marble20GeoPhotoGraphicsItem8setPointERKNS_12GeoDataPointE@Base 4:15.08.0
 _ZN6Marble20GeoPhotoGraphicsItemC1EPKNS_14GeoDataFeatureE@Base 4:15.08.0
 _ZN6Marble20GeoPhotoGraphicsItemC2EPKNS_14GeoDataFeatureE@Base 4:15.08.0
 _ZN6Marble20GeoPhotoGraphicsItemD0Ev@Base 4:15.08.0
 _ZN6Marble20GeoPhotoGraphicsItemD1Ev@Base 4:15.08.0
 _ZN6Marble20GeoPhotoGraphicsItemD2Ev@Base 4:15.08.0
 _ZN6Marble20GeoPointGraphicsItem5paintEPNS_10GeoPainterEPKNS_14ViewportParamsE@Base 4:15.08.0
 _ZN6Marble20GeoPointGraphicsItem8setPointERKNS_12GeoDataPointE@Base 4:15.08.0
 _ZN6Marble20GeoPointGraphicsItemC1EPKNS_14GeoDataFeatureE@Base 4:15.08.0
 _ZN6Marble20GeoPointGraphicsItemC2EPKNS_14GeoDataFeatureE@Base 4:15.08.0
 _ZN6Marble20GeoPointGraphicsItemD0Ev@Base 4:15.08.0
 _ZN6Marble20GeoPointGraphicsItemD1Ev@Base 4:15.08.0
 _ZN6Marble20GeoPointGraphicsItemD2Ev@Base 4:15.08.0
 _ZN6Marble20GeoTrackGraphicsItem5paintEPNS_10GeoPainterEPKNS_14ViewportParamsE@Base 4:15.08.0
 _ZN6Marble20GeoTrackGraphicsItem6updateEv@Base 4:15.08.0
 _ZN6Marble20GeoTrackGraphicsItem8setTrackEPKNS_12GeoDataTrackE@Base 4:15.08.0
 _ZN6Marble20GeoTrackGraphicsItemC1EPKNS_14GeoDataFeatureEPKNS_12GeoDataTrackE@Base 4:15.08.0
 _ZN6Marble20GeoTrackGraphicsItemC2EPKNS_14GeoDataFeatureEPKNS_12GeoDataTrackE@Base 4:15.08.0
 _ZN6Marble20GeoTrackGraphicsItemD0Ev@Base 4:15.08.0
 _ZN6Marble20GeoTrackGraphicsItemD1Ev@Base 4:15.08.0
 _ZN6Marble20GeoTrackGraphicsItemD2Ev@Base 4:15.08.0
 _ZN6Marble20GeometryLayerPrivate15s_defaultZValueE@Base 4:15.08.0
 _ZN6Marble20GeometryLayerPrivate16maximumZoomLevelEv@Base 4:15.08.0
 _ZN6Marble20GeometryLayerPrivate16s_defaultZValuesE@Base 4:15.08.0
 _ZN6Marble20GeometryLayerPrivate18s_maximumZoomLevelE@Base 4:15.08.0
 _ZN6Marble20GeometryLayerPrivate19createGraphicsItemsEPKNS_13GeoDataObjectE@Base 4:15.08.0
 _ZN6Marble20GeometryLayerPrivate19removeGraphicsItemsEPKNS_14GeoDataFeatureE@Base 4:15.08.0
 _ZN6Marble20GeometryLayerPrivate22s_defaultMinZoomLevelsE@Base 4:15.08.0
 _ZN6Marble20GeometryLayerPrivate23initializeDefaultValuesEv@Base 4:15.08.0
 _ZN6Marble20GeometryLayerPrivate26s_defaultValuesInitializedE@Base 4:15.08.0
 _ZN6Marble20GeometryLayerPrivate29createGraphicsItemFromOverlayEPKNS_14GeoDataOverlayE@Base 4:15.08.0
 _ZN6Marble20GeometryLayerPrivate30createGraphicsItemFromGeometryEPKNS_15GeoDataGeometryEPKNS_16GeoDataPlacemarkE@Base 4:15.08.0
 _ZN6Marble20GeometryLayerPrivateC1EPK18QAbstractItemModel@Base 4:15.08.0
 _ZN6Marble20GeometryLayerPrivateC2EPK18QAbstractItemModel@Base 4:15.08.0
 _ZN6Marble20KmlDocumentTagWriterC1Ev@Base 4:15.08.0
 _ZN6Marble20KmlDocumentTagWriterC2Ev@Base 4:15.08.0
 _ZN6Marble20KmlDocumentTagWriterD0Ev@Base 4:15.08.0
 _ZN6Marble20KmlDocumentTagWriterD1Ev@Base 4:15.08.0
 _ZN6Marble20KmlDocumentTagWriterD2Ev@Base 4:15.08.0
 _ZN6Marble20KmlPlaylistTagWriter13writeSoundCueEPKNS_15GeoDataSoundCueERNS_9GeoWriterE@Base 4:15.08.0
 _ZN6Marble20KmlPlaylistTagWriter16playModeToStringENS_18GeoDataTourControl8PlayModeE@Base 4:15.08.0
 _ZN6Marble20KmlPlaylistTagWriter16writeTourControlEPKNS_18GeoDataTourControlERNS_9GeoWriterE@Base 4:15.08.0
 _ZN6Marble20KmlPlaylistTagWriter9writeWaitEPKNS_11GeoDataWaitERNS_9GeoWriterE@Base 4:15.08.0
 _ZN6Marble20KmlPlaylistTagWriterD0Ev@Base 4:15.08.0
 _ZN6Marble20KmlPlaylistTagWriterD1Ev@Base 4:15.08.0
 _ZN6Marble20KmlPlaylistTagWriterD2Ev@Base 4:15.08.0
 _ZN6Marble20KmlStyleMapTagWriterD0Ev@Base 4:15.08.0
 _ZN6Marble20KmlStyleMapTagWriterD1Ev@Base 4:15.08.0
 _ZN6Marble20KmlStyleMapTagWriterD2Ev@Base 4:15.08.0
 _ZN6Marble20MarblePlacemarkModel11qt_metacallEN11QMetaObject4CallEiPPv@Base 4:15.08.0
 _ZN6Marble20MarblePlacemarkModel11qt_metacastEPKc@Base 4:15.08.0
 _ZN6Marble20MarblePlacemarkModel12countChangedEv@Base 4:15.08.0
 _ZN6Marble20MarblePlacemarkModel13addPlacemarksEii@Base 4:15.08.0
 _ZN6Marble20MarblePlacemarkModel16removePlacemarksERK7QStringii@Base 4:15.08.0
 _ZN6Marble20MarblePlacemarkModel16staticMetaObjectE@Base 4:15.08.0
 _ZN6Marble20MarblePlacemarkModel21setPlacemarkContainerEP7QVectorIPNS_16GeoDataPlacemarkEE@Base 4:15.08.0
 _ZN6Marble20MarblePlacemarkModelC1EP7QObject@Base 4:15.08.0
 _ZN6Marble20MarblePlacemarkModelC2EP7QObject@Base 4:15.08.0
 _ZN6Marble20MarblePlacemarkModelD0Ev@Base 4:15.08.0
 _ZN6Marble20MarblePlacemarkModelD1Ev@Base 4:15.08.0
 _ZN6Marble20MarblePlacemarkModelD2Ev@Base 4:15.08.0
 _ZN6Marble20MergedLayerDecorator10updateTileERKNS_11StackedTileERKNS_6TileIdERK6QImage@Base 4:15.08.0
 _ZN6Marble20MergedLayerDecorator13setShowTileIdEb@Base 4:15.08.0
 _ZN6Marble20MergedLayerDecorator16setTextureLayersERK7QVectorIPKNS_19GeoSceneTextureTileEE@Base 4:15.08.0
 _ZN6Marble20MergedLayerDecorator17setShowCityLightsEb@Base 4:15.08.0
 _ZN6Marble20MergedLayerDecorator17setShowSunShadingEb@Base 4:15.08.0
 _ZN6Marble20MergedLayerDecorator19downloadStackedTileERKNS_6TileIdENS_13DownloadUsageE@Base 4:15.08.0
 _ZN6Marble20MergedLayerDecorator20updateGroundOverlaysERK5QListIPKNS_20GeoDataGroundOverlayEE@Base 4:15.08.0
 _ZN6Marble20MergedLayerDecorator7Private10maxDivisorEii@Base 4:15.08.0
 _ZN6Marble20MergedLayerDecorator7Private18detectMaxTileLevelEv@Base 4:15.08.0
 _ZN6Marble20MergedLayerDecorator7PrivateC1EPNS_10TileLoaderEPKNS_10SunLocatorE@Base 4:15.08.0
 _ZN6Marble20MergedLayerDecorator7PrivateC2EPNS_10TileLoaderEPKNS_10SunLocatorE@Base 4:15.08.0
 _ZN6Marble20MergedLayerDecorator8loadTileERKNS_6TileIdE@Base 4:15.08.0
 _ZN6Marble20MergedLayerDecoratorC1EPNS_10TileLoaderEPKNS_10SunLocatorE@Base 4:15.08.0
 _ZN6Marble20MergedLayerDecoratorC2EPNS_10TileLoaderEPKNS_10SunLocatorE@Base 4:15.08.0
 _ZN6Marble20MergedLayerDecoratorD0Ev@Base 4:15.08.0
 _ZN6Marble20MergedLayerDecoratorD1Ev@Base 4:15.08.0
 _ZN6Marble20MergedLayerDecoratorD2Ev@Base 4:15.08.0
 _ZN6Marble20NewstuffModelPrivate10canExecuteERK7QString@Base 4:15.08.0
 _ZN6Marble20NewstuffModelPrivate10changeNodeER8QDomNodeR12QDomDocumentRK7QStringS7_NS0_10NodeActionE@Base 4:15.08.0
 _ZN6Marble20NewstuffModelPrivate10importNodeERK8QDomNode@Base 4:15.08.0
 _ZN6Marble20NewstuffModelPrivate10installMapEv@Base 4:15.08.0
 _ZN6Marble20NewstuffModelPrivate10setPreviewEiRK5QIcon@Base 4:15.08.0
 _ZN6Marble20NewstuffModelPrivate11updateModelEv@Base 4:15.08.0
 _ZN6Marble20NewstuffModelPrivate12processQueueEv@Base 4:15.08.0
 _ZN6Marble20NewstuffModelPrivate12saveRegistryEv@Base 4:15.08.0
 _ZN6Marble20NewstuffModelPrivate18handleProviderDataEP13QNetworkReply@Base 4:15.08.0
 _ZN6Marble20NewstuffModelPrivate7previewEi@Base 4:15.08.0
 (optional=templinst)_ZN6Marble20NewstuffModelPrivate9readValueI4QUrlEEvRK8QDomNodeRK7QStringPT_@Base 4:15.08.0
 (optional=templinst)_ZN6Marble20NewstuffModelPrivate9readValueI7QStringEEvRK8QDomNodeRKS2_PT_@Base 4:15.08.0
 _ZN6Marble20NewstuffModelPrivate9uninstallEi@Base 4:15.08.0
 _ZN6Marble20NewstuffModelPrivateC1EPNS_13NewstuffModelE@Base 4:15.08.0
 _ZN6Marble20NewstuffModelPrivateC2EPNS_13NewstuffModelE@Base 4:15.08.0
 _ZN6Marble20ParsingRunnerManager11qt_metacallEN11QMetaObject4CallEiPPv@Base 4:15.08.0
 _ZN6Marble20ParsingRunnerManager11qt_metacastEPKc@Base 4:15.08.0
 _ZN6Marble20ParsingRunnerManager15parsingFinishedEPNS_15GeoDataDocumentERK7QString@Base 4:15.08.0
 _ZN6Marble20ParsingRunnerManager15parsingFinishedEv@Base 4:15.08.0
 _ZN6Marble20ParsingRunnerManager16staticMetaObjectE@Base 4:15.08.0
 _ZN6Marble20ParsingRunnerManager7Private16addParsingResultEPNS_15GeoDataDocumentERK7QString@Base 4:15.08.0
 _ZN6Marble20ParsingRunnerManager7Private18cleanupParsingTaskEPNS_11ParsingTaskE@Base 4:15.08.0
 _ZN6Marble20ParsingRunnerManager7PrivateC1EPS0_PKNS_13PluginManagerE@Base 4:15.08.0
 _ZN6Marble20ParsingRunnerManager7PrivateC2EPS0_PKNS_13PluginManagerE@Base 4:15.08.0
 _ZN6Marble20ParsingRunnerManager7PrivateD1Ev@Base 4:15.08.0
 _ZN6Marble20ParsingRunnerManager7PrivateD2Ev@Base 4:15.08.0
 _ZN6Marble20ParsingRunnerManager8openFileERK7QStringNS_12DocumentRoleEi@Base 4:15.08.0
 _ZN6Marble20ParsingRunnerManager9parseFileERK7QStringNS_12DocumentRoleE@Base 4:15.08.0
 _ZN6Marble20ParsingRunnerManagerC1EPKNS_13PluginManagerEP7QObject@Base 4:15.08.0
 _ZN6Marble20ParsingRunnerManagerC2EPKNS_13PluginManagerEP7QObject@Base 4:15.08.0
 _ZN6Marble20ParsingRunnerManagerD0Ev@Base 4:15.08.0
 _ZN6Marble20ParsingRunnerManagerD1Ev@Base 4:15.08.0
 _ZN6Marble20ParsingRunnerManagerD2Ev@Base 4:15.08.0
 _ZN6Marble20PlaybackSoundCueItem11qt_metacallEN11QMetaObject4CallEiPPv@Base 4:15.08.0
 _ZN6Marble20PlaybackSoundCueItem11qt_metacastEPKc@Base 4:15.08.0
 _ZN6Marble20PlaybackSoundCueItem16staticMetaObjectE@Base 4:15.08.0
 _ZN6Marble20PlaybackSoundCueItem4playEv@Base 4:15.08.0
 _ZN6Marble20PlaybackSoundCueItem4seekEd@Base 4:15.08.0
 _ZN6Marble20PlaybackSoundCueItem4stopEv@Base 4:15.08.0
 _ZN6Marble20PlaybackSoundCueItem5pauseEv@Base 4:15.08.0
 _ZN6Marble20PlaybackSoundCueItemC1EPKNS_15GeoDataSoundCueE@Base 4:15.08.0
 _ZN6Marble20PlaybackSoundCueItemC2EPKNS_15GeoDataSoundCueE@Base 4:15.08.0
 _ZN6Marble20PlaybackSoundCueItemD0Ev@Base 4:15.08.0
 _ZN6Marble20PlaybackSoundCueItemD1Ev@Base 4:15.08.0
 _ZN6Marble20PlaybackSoundCueItemD2Ev@Base 4:15.08.0
 _ZN6Marble20PluginManagerPrivate11loadPluginsEv@Base 4:15.08.0
 _ZN6Marble20PluginManagerPrivateD1Ev@Base 4:15.08.0
 _ZN6Marble20PluginManagerPrivateD2Ev@Base 4:15.08.0
 _ZN6Marble20QtMarbleConfigDialog11qt_metacallEN11QMetaObject4CallEiPPv@Base 4:15.08.0
 _ZN6Marble20QtMarbleConfigDialog11qt_metacastEPKc@Base 4:15.08.0
 _ZN6Marble20QtMarbleConfigDialog12readSettingsEv@Base 4:15.08.0
 _ZN6Marble20QtMarbleConfigDialog12syncSettingsEv@Base 4:15.08.0
 _ZN6Marble20QtMarbleConfigDialog13enableSyncNowEv@Base 4:15.08.0
 _ZN6Marble20QtMarbleConfigDialog13writeSettingsEv@Base 4:15.08.0
 _ZN6Marble20QtMarbleConfigDialog14disableSyncNowEv@Base 4:15.08.0
 _ZN6Marble20QtMarbleConfigDialog14syncNowClickedEv@Base 4:15.08.0
 _ZN6Marble20QtMarbleConfigDialog14updateLastSyncEv@Base 4:15.08.0
 _ZN6Marble20QtMarbleConfigDialog15settingsChangedEv@Base 4:15.08.0
 _ZN6Marble20QtMarbleConfigDialog16staticMetaObjectE@Base 4:15.08.0
 _ZN6Marble20QtMarbleConfigDialog21updateCloudSyncStatusERK7QString@Base 4:15.08.0
 _ZN6Marble20QtMarbleConfigDialog24initializeCustomTimezoneEv@Base 4:15.08.0
 _ZN6Marble20QtMarbleConfigDialog25clearVolatileCacheClickedEv@Base 4:15.08.0
 _ZN6Marble20QtMarbleConfigDialog26updateCloudSyncCredentialsEv@Base 4:15.08.0
 _ZN6Marble20QtMarbleConfigDialog27clearPersistentCacheClickedEv@Base 4:15.08.0
 _ZN6Marble20QtMarbleConfigDialogC1EPNS_12MarbleWidgetEPNS_16CloudSyncManagerEP7QWidget@Base 4:15.08.0
 _ZN6Marble20QtMarbleConfigDialogC2EPNS_12MarbleWidgetEPNS_16CloudSyncManagerEP7QWidget@Base 4:15.08.0
 _ZN6Marble20QtMarbleConfigDialogD0Ev@Base 4:15.08.0
 _ZN6Marble20QtMarbleConfigDialogD1Ev@Base 4:15.08.0
 _ZN6Marble20QtMarbleConfigDialogD2Ev@Base 4:15.08.0
 _ZN6Marble20QuadTreeServerLayout14encodeQuadTreeERKNS_6TileIdE@Base 4:15.08.0
 _ZN6Marble20QuadTreeServerLayoutC1EPNS_13GeoSceneTiledE@Base 4:15.08.0
 _ZN6Marble20QuadTreeServerLayoutC2EPNS_13GeoSceneTiledE@Base 4:15.08.0
 _ZN6Marble20QuadTreeServerLayoutD0Ev@Base 4:15.08.0
 _ZN6Marble20QuadTreeServerLayoutD1Ev@Base 4:15.08.0
 _ZN6Marble20QuadTreeServerLayoutD2Ev@Base 4:15.08.0
 _ZN6Marble20RemoveItemEditWidget11editingDoneERK11QModelIndex@Base 4:15.08.0
 _ZN6Marble20RemoveItemEditWidget11qt_metacallEN11QMetaObject4CallEiPPv@Base 4:15.08.0
 _ZN6Marble20RemoveItemEditWidget11qt_metacastEPKc@Base 4:15.08.0
 _ZN6Marble20RemoveItemEditWidget11setEditableEb@Base 4:15.08.0
 _ZN6Marble20RemoveItemEditWidget13setFeatureIdsERK11QStringList@Base 4:15.08.0
 _ZN6Marble20RemoveItemEditWidget16staticMetaObjectE@Base 4:15.08.0
 _ZN6Marble20RemoveItemEditWidget19setDefaultFeatureIdERK7QString@Base 4:15.08.0
 _ZN6Marble20RemoveItemEditWidget21animatedUpdateElementEv@Base 4:15.08.0
 _ZN6Marble20RemoveItemEditWidget4saveEv@Base 4:15.08.0
 _ZN6Marble20RemoveItemEditWidgetC1ERK11QModelIndexP7QWidget@Base 4:15.08.0
 _ZN6Marble20RemoveItemEditWidgetC2ERK11QModelIndexP7QWidget@Base 4:15.08.0
 _ZN6Marble20RemoveItemEditWidgetD0Ev@Base 4:15.08.0
 _ZN6Marble20RemoveItemEditWidgetD1Ev@Base 4:15.08.0
 _ZN6Marble20RemoveItemEditWidgetD2Ev@Base 4:15.08.0
 _ZN6Marble20ReverseGeocodingTask11qt_metacallEN11QMetaObject4CallEiPPv@Base 4:15.08.0
 _ZN6Marble20ReverseGeocodingTask11qt_metacastEPKc@Base 4:15.08.0
 _ZN6Marble20ReverseGeocodingTask16staticMetaObjectE@Base 4:15.08.0
 _ZN6Marble20ReverseGeocodingTask3runEv@Base 4:15.08.0
 _ZN6Marble20ReverseGeocodingTask8finishedEPS0_@Base 4:15.08.0
 _ZN6Marble20ReverseGeocodingTaskC1EPNS_22ReverseGeocodingRunnerEPNS_29ReverseGeocodingRunnerManagerEPKNS_11MarbleModelERKNS_18GeoDataCoordinatesE@Base 4:15.08.0
 _ZN6Marble20ReverseGeocodingTaskC2EPNS_22ReverseGeocodingRunnerEPNS_29ReverseGeocodingRunnerManagerEPKNS_11MarbleModelERKNS_18GeoDataCoordinatesE@Base 4:15.08.0
 _ZN6Marble20ReverseGeocodingTaskD0Ev@Base 4:15.08.0
 _ZN6Marble20ReverseGeocodingTaskD1Ev@Base 4:15.08.0
 _ZN6Marble20ReverseGeocodingTaskD2Ev@Base 4:15.08.0
 _ZN6Marble20RoutingInputLineEdit13keyPressEventEP9QKeyEvent@Base 4:15.08.0
 _ZN6Marble20RoutingInputLineEditC1EP7QWidget@Base 4:15.08.0
 _ZN6Marble20RoutingInputLineEditC2EP7QWidget@Base 4:15.08.0
 _ZN6Marble20RoutingInputLineEditD0Ev@Base 4:15.08.0
 _ZN6Marble20RoutingInputLineEditD1Ev@Base 4:15.08.0
 _ZN6Marble20RoutingInputLineEditD2Ev@Base 4:15.08.0
 _ZN6Marble20RoutingProfilesModel10addProfileERK7QString@Base 4:15.08.0
 _ZN6Marble20RoutingProfilesModel10removeRowsEiiRK11QModelIndex@Base 4:15.08.0
 _ZN6Marble20RoutingProfilesModel11qt_metacallEN11QMetaObject4CallEiPPv@Base 4:15.08.0
 _ZN6Marble20RoutingProfilesModel11qt_metacastEPKc@Base 4:15.08.0
 _ZN6Marble20RoutingProfilesModel11setProfilesERK5QListINS_14RoutingProfileEE@Base 4:15.08.0
 _ZN6Marble20RoutingProfilesModel14setProfileNameEiRK7QString@Base 4:15.08.0
 _ZN6Marble20RoutingProfilesModel16staticMetaObjectE@Base 4:15.08.0
 _ZN6Marble20RoutingProfilesModel19loadDefaultProfilesEv@Base 4:15.08.0
 _ZN6Marble20RoutingProfilesModel24setProfilePluginSettingsEiRK5QHashI7QStringS1_IS2_8QVariantEE@Base 4:15.08.0
 _ZN6Marble20RoutingProfilesModel6moveUpEi@Base 4:15.08.0
 _ZN6Marble20RoutingProfilesModel8moveDownEi@Base 4:15.08.0
 _ZN6Marble20RoutingProfilesModelC1EPKNS_13PluginManagerEP7QObject@Base 4:15.08.0
 _ZN6Marble20RoutingProfilesModelC2EPKNS_13PluginManagerEP7QObject@Base 4:15.08.0
 _ZN6Marble20RoutingProfilesModelD0Ev@Base 4:15.08.0
 _ZN6Marble20RoutingProfilesModelD1Ev@Base 4:15.08.0
 _ZN6Marble20RoutingProfilesModelD2Ev@Base 4:15.08.0
 _ZN6Marble20RoutingRunnerManager11qt_metacallEN11QMetaObject4CallEiPPv@Base 4:15.08.0
 _ZN6Marble20RoutingRunnerManager11qt_metacastEPKc@Base 4:15.08.0
 _ZN6Marble20RoutingRunnerManager11searchRouteEPKNS_12RouteRequestEi@Base 4:15.08.0
 _ZN6Marble20RoutingRunnerManager13retrieveRouteEPKNS_12RouteRequestE@Base 4:15.08.0
 _ZN6Marble20RoutingRunnerManager14routeRetrievedEPNS_15GeoDataDocumentE@Base 4:15.08.0
 _ZN6Marble20RoutingRunnerManager15routingFinishedEv@Base 4:15.08.0
 _ZN6Marble20RoutingRunnerManager16staticMetaObjectE@Base 4:15.08.0
 _ZN6Marble20RoutingRunnerManager7Private16addRoutingResultEPNS_15GeoDataDocumentE@Base 4:15.08.0
 _ZN6Marble20RoutingRunnerManager7Private18cleanupRoutingTaskEPNS_11RoutingTaskE@Base 4:15.08.0
 _ZN6Marble20RoutingRunnerManager7PrivateC1EPS0_PKNS_11MarbleModelE@Base 4:15.08.0
 _ZN6Marble20RoutingRunnerManager7PrivateC2EPS0_PKNS_11MarbleModelE@Base 4:15.08.0
 _ZN6Marble20RoutingRunnerManager7PrivateD1Ev@Base 4:15.08.0
 _ZN6Marble20RoutingRunnerManager7PrivateD2Ev@Base 4:15.08.0
 _ZN6Marble20RoutingRunnerManagerC1EPKNS_11MarbleModelEP7QObject@Base 4:15.08.0
 _ZN6Marble20RoutingRunnerManagerC2EPKNS_11MarbleModelEP7QObject@Base 4:15.08.0
 _ZN6Marble20RoutingRunnerManagerD0Ev@Base 4:15.08.0
 _ZN6Marble20RoutingRunnerManagerD1Ev@Base 4:15.08.0
 _ZN6Marble20RoutingRunnerManagerD2Ev@Base 4:15.08.0
 _ZN6Marble20RoutingWidgetPrivate12setupToolBarEv@Base 4:15.08.0
 _ZN6Marble20RoutingWidgetPrivate14setActiveInputEPNS_18RoutingInputWidgetE@Base 4:15.08.0
 _ZN6Marble20RoutingWidgetPrivate18adjustInputWidgetsEv@Base 4:15.08.0
 _ZN6Marble20RoutingWidgetPrivate18adjustSearchButtonEv@Base 4:15.08.0
 _ZN6Marble20RoutingWidgetPrivate23createProgressAnimationEv@Base 4:15.08.0
 _ZN6Marble20RoutingWidgetPrivateC1EPNS_13RoutingWidgetEPNS_12MarbleWidgetE@Base 4:15.08.0
 _ZN6Marble20RoutingWidgetPrivateC2EPNS_13RoutingWidgetEPNS_12MarbleWidgetE@Base 4:15.08.0
 _ZN6Marble20SpeakersModelPrivate18handleInstallationEi@Base 4:15.08.0
 _ZN6Marble20SpeakersModelPrivate26handleInstallationProgressEid@Base 4:15.08.0
 _ZN6Marble20SpeakersModelPrivate9fillModelEv@Base 4:15.08.0
 _ZN6Marble20SpeakersModelPrivateC1EPNS_13SpeakersModelE@Base 4:15.08.0
 _ZN6Marble20SpeakersModelPrivateC2EPNS_13SpeakersModelE@Base 4:15.08.0
 _ZN6Marble20TileLevelRangeWidget11qt_metacallEN11QMetaObject4CallEiPPv@Base 4:15.08.0
 _ZN6Marble20TileLevelRangeWidget11qt_metacastEPKc@Base 4:15.08.0
 _ZN6Marble20TileLevelRangeWidget15setDefaultLevelEi@Base 4:15.08.0
 _ZN6Marble20TileLevelRangeWidget15topLevelChangedEi@Base 4:15.08.0
 _ZN6Marble20TileLevelRangeWidget16staticMetaObjectE@Base 4:15.08.0
 _ZN6Marble20TileLevelRangeWidget18bottomLevelChangedEi@Base 4:15.08.0
 _ZN6Marble20TileLevelRangeWidget18setMaximumTopLevelEi@Base 4:15.08.0
 _ZN6Marble20TileLevelRangeWidget20setAllowedLevelRangeEii@Base 4:15.08.0
 _ZN6Marble20TileLevelRangeWidget21setMinimumBottomLevelEi@Base 4:15.08.0
 _ZN6Marble20TileLevelRangeWidget7PrivateC1EP7QWidget@Base 4:15.08.0
 _ZN6Marble20TileLevelRangeWidget7PrivateC2EP7QWidget@Base 4:15.08.0
 _ZN6Marble20TileLevelRangeWidgetC1EP7QWidget6QFlagsIN2Qt10WindowTypeEE@Base 4:15.08.0
 _ZN6Marble20TileLevelRangeWidgetC2EP7QWidget6QFlagsIN2Qt10WindowTypeEE@Base 4:15.08.0
 _ZN6Marble20TileLevelRangeWidgetD0Ev@Base 4:15.08.0
 _ZN6Marble20TileLevelRangeWidgetD1Ev@Base 4:15.08.0
 _ZN6Marble20TileLevelRangeWidgetD2Ev@Base 4:15.08.0
 _ZN6Marble20VoiceNavigationModel10setSpeakerERK7QString@Base 4:15.08.0
 _ZN6Marble20VoiceNavigationModel11qt_metacallEN11QMetaObject4CallEiPPv@Base 4:15.08.0
 _ZN6Marble20VoiceNavigationModel11qt_metacastEPKc@Base 4:15.08.0
 _ZN6Marble20VoiceNavigationModel14previewChangedEv@Base 4:15.08.0
 _ZN6Marble20VoiceNavigationModel14speakerChangedEv@Base 4:15.08.0
 _ZN6Marble20VoiceNavigationModel16staticMetaObjectE@Base 4:15.08.0
 _ZN6Marble20VoiceNavigationModel17setSpeakerEnabledEb@Base 4:15.08.0
 _ZN6Marble20VoiceNavigationModel18instructionChangedEv@Base 4:15.08.0
 _ZN6Marble20VoiceNavigationModel23isSpeakerEnabledChangedEv@Base 4:15.08.0
 _ZN6Marble20VoiceNavigationModel26handleTrackingStatusChangeENS_22PositionProviderStatusE@Base 4:15.08.0
 _ZN6Marble20VoiceNavigationModel5resetEv@Base 4:15.08.0
 _ZN6Marble20VoiceNavigationModel6updateERKNS_5RouteEddb@Base 4:15.08.0
 _ZN6Marble20VoiceNavigationModelC1EP7QObject@Base 4:15.08.0
 _ZN6Marble20VoiceNavigationModelC2EP7QObject@Base 4:15.08.0
 _ZN6Marble20VoiceNavigationModelD0Ev@Base 4:15.08.0
 _ZN6Marble20VoiceNavigationModelD1Ev@Base 4:15.08.0
 _ZN6Marble20VoiceNavigationModelD2Ev@Base 4:15.08.0
 _ZN6Marble21BillboardGraphicsItem12setAlignmentE6QFlagsIN2Qt13AlignmentFlagEE@Base 4:15.08.0
 _ZN6Marble21BillboardGraphicsItem13setCoordinateERKNS_18GeoDataCoordinatesE@Base 4:15.08.0
 _ZN6Marble21BillboardGraphicsItem1pEv@Base 4:15.08.0
 _ZN6Marble21BillboardGraphicsItem7Private13setProjectionEPKNS_14ViewportParamsE@Base 4:15.08.0
 _ZN6Marble21BillboardGraphicsItem7PrivateD0Ev@Base 4:15.08.0
 _ZN6Marble21BillboardGraphicsItem7PrivateD1Ev@Base 4:15.08.0
 _ZN6Marble21BillboardGraphicsItem7PrivateD2Ev@Base 4:15.08.0
 _ZN6Marble21BillboardGraphicsItemC1Ev@Base 4:15.08.0
 _ZN6Marble21BillboardGraphicsItemC2Ev@Base 4:15.08.0
 _ZN6Marble21BillboardGraphicsItemD0Ev@Base 4:15.08.0
 _ZN6Marble21BillboardGraphicsItemD1Ev@Base 4:15.08.0
 _ZN6Marble21BillboardGraphicsItemD2Ev@Base 4:15.08.0
 _ZN6Marble21BookmarkManagerDialog11qt_metacallEN11QMetaObject4CallEiPPv@Base 4:15.08.0
 _ZN6Marble21BookmarkManagerDialog11qt_metacastEPKc@Base 4:15.08.0
 _ZN6Marble21BookmarkManagerDialog13saveBookmarksEv@Base 4:15.08.0
 _ZN6Marble21BookmarkManagerDialog15exportBookmarksEv@Base 4:15.08.0
 _ZN6Marble21BookmarkManagerDialog15importBookmarksEv@Base 4:15.08.0
 _ZN6Marble21BookmarkManagerDialog16bookmarkDocumentEv@Base 4:15.08.0
 _ZN6Marble21BookmarkManagerDialog16staticMetaObjectE@Base 4:15.08.0
 _ZN6Marble21BookmarkManagerDialog19setButtonBoxVisibleEb@Base 4:15.08.0
 _ZN6Marble21BookmarkManagerDialogC1EPNS_11MarbleModelEP7QWidget@Base 4:15.08.0
 _ZN6Marble21BookmarkManagerDialogC2EPNS_11MarbleModelEP7QWidget@Base 4:15.08.0
 _ZN6Marble21BookmarkManagerDialogD0Ev@Base 4:15.08.0
 _ZN6Marble21BookmarkManagerDialogD1Ev@Base 4:15.08.0
 _ZN6Marble21BookmarkManagerDialogD2Ev@Base 4:15.08.0
 _ZN6Marble21CurrentLocationWidget11qt_metacallEN11QMetaObject4CallEiPPv@Base 4:15.08.0
 _ZN6Marble21CurrentLocationWidget11qt_metacastEPKc@Base 4:15.08.0
 _ZN6Marble21CurrentLocationWidget11setAutoZoomEb@Base 4:15.08.0
 _ZN6Marble21CurrentLocationWidget15setLastOpenPathERK7QString@Base 4:15.08.0
 _ZN6Marble21CurrentLocationWidget15setLastSavePathERK7QString@Base 4:15.08.0
 _ZN6Marble21CurrentLocationWidget15setMarbleWidgetEPNS_12MarbleWidgetE@Base 4:15.08.0
 _ZN6Marble21CurrentLocationWidget15setRecenterModeEi@Base 4:15.08.0
 _ZN6Marble21CurrentLocationWidget15setTrackVisibleEb@Base 4:15.08.0
 _ZN6Marble21CurrentLocationWidget16staticMetaObjectE@Base 4:15.08.0
 _ZN6Marble21CurrentLocationWidgetC1EP7QWidget6QFlagsIN2Qt10WindowTypeEE@Base 4:15.08.0
 _ZN6Marble21CurrentLocationWidgetC2EP7QWidget6QFlagsIN2Qt10WindowTypeEE@Base 4:15.08.0
 _ZN6Marble21CurrentLocationWidgetD0Ev@Base 4:15.08.0
 _ZN6Marble21CurrentLocationWidgetD1Ev@Base 4:15.08.0
 _ZN6Marble21CurrentLocationWidgetD2Ev@Base 4:15.08.0
 _ZN6Marble21CylindricalProjectionC1EPNS_28CylindricalProjectionPrivateE@Base 4:15.08.0
 _ZN6Marble21CylindricalProjectionC1Ev@Base 4:15.08.0
 _ZN6Marble21CylindricalProjectionC2EPNS_28CylindricalProjectionPrivateE@Base 4:15.08.0
 _ZN6Marble21CylindricalProjectionC2Ev@Base 4:15.08.0
 _ZN6Marble21CylindricalProjectionD0Ev@Base 4:15.08.0
 _ZN6Marble21CylindricalProjectionD1Ev@Base 4:15.08.0
 _ZN6Marble21CylindricalProjectionD2Ev@Base 4:15.08.0
 _ZN6Marble21DgmlDocumentTagWriterD0Ev@Base 4:15.08.0
 _ZN6Marble21DgmlDocumentTagWriterD1Ev@Base 4:15.08.0
 _ZN6Marble21DgmlDocumentTagWriterD2Ev@Base 4:15.08.0
 _ZN6Marble21DgmlSettingsTagWriterD0Ev@Base 4:15.08.0
 _ZN6Marble21DgmlSettingsTagWriterD1Ev@Base 4:15.08.0
 _ZN6Marble21DgmlSettingsTagWriterD2Ev@Base 4:15.08.0
 _ZN6Marble21DownloadRegionPrivateC1Ev@Base 4:15.08.0
 _ZN6Marble21DownloadRegionPrivateC2Ev@Base 4:15.08.0
 _ZN6Marble21FileViewWidgetPrivate11contextMenuERK6QPoint@Base 4:15.08.0
 _ZN6Marble21FileViewWidgetPrivate12setTreeModelEPNS_16GeoDataTreeModelE@Base 4:15.08.0
 _ZN6Marble21FileViewWidgetPrivate14setFileManagerEPNS_11FileManagerE@Base 4:15.08.0
 _ZN6Marble21FileViewWidgetPrivate19showPlacemarkDialogEv@Base 4:15.08.0
 _ZN6Marble21FileViewWidgetPrivate21enableFileViewActionsEv@Base 4:15.08.0
 _ZN6Marble21FileViewWidgetPrivate8saveFileEv@Base 4:15.08.0
 _ZN6Marble21FileViewWidgetPrivate9closeFileEv@Base 4:15.08.0
 _ZN6Marble21FileViewWidgetPrivateC1EPNS_14FileViewWidgetE@Base 4:15.08.0
 _ZN6Marble21FileViewWidgetPrivateC2EPNS_14FileViewWidgetE@Base 4:15.08.0
 _ZN6Marble21GeoDataAnimatedUpdate11setDurationEd@Base 4:15.08.0
 _ZN6Marble21GeoDataAnimatedUpdate15setDelayedStartEd@Base 4:15.08.0
 _ZN6Marble21GeoDataAnimatedUpdate6updateEv@Base 4:15.08.0
 _ZN6Marble21GeoDataAnimatedUpdate9setUpdateEPNS_13GeoDataUpdateE@Base 4:15.08.0
 _ZN6Marble21GeoDataAnimatedUpdateC1ERKS0_@Base 4:15.08.0
 _ZN6Marble21GeoDataAnimatedUpdateC1Ev@Base 4:15.08.0
 _ZN6Marble21GeoDataAnimatedUpdateC2ERKS0_@Base 4:15.08.0
 _ZN6Marble21GeoDataAnimatedUpdateC2Ev@Base 4:15.08.0
 _ZN6Marble21GeoDataAnimatedUpdateD0Ev@Base 4:15.08.0
 _ZN6Marble21GeoDataAnimatedUpdateD1Ev@Base 4:15.08.0
 _ZN6Marble21GeoDataAnimatedUpdateD2Ev@Base 4:15.08.0
 _ZN6Marble21GeoDataAnimatedUpdateaSERKS0_@Base 4:15.08.0
 _ZN6Marble21GeoDataFeaturePrivate11createStyleEddRK6QColorS3_bbN2Qt10BrushStyleENS4_8PenStyleENS4_11PenCapStyleEbRK7QVectorIdE@Base 4:15.08.0
 _ZN6Marble21GeoDataFeaturePrivate13s_defaultFontE@Base 4:15.08.0
 (arch=!ppc64el)_ZN6Marble21GeoDataFeaturePrivate14createWayStyleERK6QColorS3_bbN2Qt10BrushStyleE@Base 4:15.08.0
 _ZN6Marble21GeoDataFeaturePrivate14s_defaultStyleE@Base 4:15.08.0
 _ZN6Marble21GeoDataFeaturePrivate17createOsmPOIStyleERK5QFontRK7QStringRK6QColorS9_@Base 4:15.08.0
 _ZN6Marble21GeoDataFeaturePrivate18createHighwayStyleERK7QStringRK6QColorddN2Qt8PenStyleENS7_11PenCapStyleE@Base 4:15.08.0
 _ZN6Marble21GeoDataFeaturePrivate18s_visualCategoriesE@Base 4:15.08.0
 _ZN6Marble21GeoDataFeaturePrivate19s_defaultLabelColorE@Base 4:15.08.0
 _ZN6Marble21GeoDataFeaturePrivate23initializeDefaultStylesEv@Base 4:15.08.0
 _ZN6Marble21GeoDataFeaturePrivate25s_defaultStyleInitializedE@Base 4:15.08.0
 _ZN6Marble21GeoDataFeaturePrivate29initializeOsmVisualCategoriesEv@Base 4:15.08.0
 _ZN6Marble21GeoDataFeaturePrivate4copyEv@Base 4:15.08.0
 _ZN6Marble21GeoDataFeaturePrivateD0Ev@Base 4:15.08.0
 _ZN6Marble21GeoDataFeaturePrivateD1Ev@Base 4:15.08.0
 _ZN6Marble21GeoDataFeaturePrivateD2Ev@Base 4:15.08.0
 _ZN6Marble21GeoDataOverlayPrivateC1Ev@Base 4:15.08.0
 _ZN6Marble21GeoDataOverlayPrivateC2Ev@Base 4:15.08.0
 _ZN6Marble21GeoDataPolygonPrivate4copyEv@Base 4:15.08.0
 _ZN6Marble21GeoDataPolygonPrivateD0Ev@Base 4:15.08.0
 _ZN6Marble21GeoDataPolygonPrivateD1Ev@Base 4:15.08.0
 _ZN6Marble21GeoDataPolygonPrivateD2Ev@Base 4:15.08.0
 _ZN6Marble21GeometricMeanBlendingD0Ev@Base 4:15.08.0
 _ZN6Marble21GeometricMeanBlendingD1Ev@Base 4:15.08.0
 _ZN6Marble21GeometricMeanBlendingD2Ev@Base 4:15.08.0
 _ZN6Marble21KmlIconStyleTagWriter10unitStringENS_14GeoDataHotSpot5UnitsE@Base 4:15.08.0
 _ZN6Marble21KmlIconStyleTagWriterC1Ev@Base 4:15.08.0
 _ZN6Marble21KmlIconStyleTagWriterC2Ev@Base 4:15.08.0
 _ZN6Marble21KmlIconStyleTagWriterD0Ev@Base 4:15.08.0
 _ZN6Marble21KmlIconStyleTagWriterD1Ev@Base 4:15.08.0
 _ZN6Marble21KmlIconStyleTagWriterD2Ev@Base 4:15.08.0
 _ZN6Marble21KmlLatLonAltBoxWriterD0Ev@Base 4:15.08.0
 _ZN6Marble21KmlLatLonAltBoxWriterD1Ev@Base 4:15.08.0
 _ZN6Marble21KmlLatLonAltBoxWriterD2Ev@Base 4:15.08.0
 _ZN6Marble21KmlLineStyleTagWriterC1Ev@Base 4:15.08.0
 _ZN6Marble21KmlLineStyleTagWriterC2Ev@Base 4:15.08.0
 _ZN6Marble21KmlLineStyleTagWriterD0Ev@Base 4:15.08.0
 _ZN6Marble21KmlLineStyleTagWriterD1Ev@Base 4:15.08.0
 _ZN6Marble21KmlLineStyleTagWriterD2Ev@Base 4:15.08.0
 _ZN6Marble21KmlListStyleTagWriter16itemTypeToStringENS_16GeoDataListStyle12ListItemTypeE@Base 4:15.08.0
 _ZN6Marble21KmlListStyleTagWriter17iconStateToStringE6QFlagsINS_15GeoDataItemIcon13ItemIconStateEE@Base 4:15.08.0
 _ZN6Marble21KmlListStyleTagWriterD0Ev@Base 4:15.08.0
 _ZN6Marble21KmlListStyleTagWriterD1Ev@Base 4:15.08.0
 _ZN6Marble21KmlListStyleTagWriterD2Ev@Base 4:15.08.0
 _ZN6Marble21KmlPhotoOverlayWriterC1Ev@Base 4:15.08.0
 _ZN6Marble21KmlPhotoOverlayWriterC2Ev@Base 4:15.08.0
 _ZN6Marble21KmlPhotoOverlayWriterD0Ev@Base 4:15.08.0
 _ZN6Marble21KmlPhotoOverlayWriterD1Ev@Base 4:15.08.0
 _ZN6Marble21KmlPhotoOverlayWriterD2Ev@Base 4:15.08.0
 _ZN6Marble21KmlPlacemarkTagWriterC1Ev@Base 4:15.08.0
 _ZN6Marble21KmlPlacemarkTagWriterC2Ev@Base 4:15.08.0
 _ZN6Marble21KmlPlacemarkTagWriterD0Ev@Base 4:15.08.0
 _ZN6Marble21KmlPlacemarkTagWriterD1Ev@Base 4:15.08.0
 _ZN6Marble21KmlPlacemarkTagWriterD2Ev@Base 4:15.08.0
 _ZN6Marble21KmlPolyStyleTagWriterC1Ev@Base 4:15.08.0
 _ZN6Marble21KmlPolyStyleTagWriterC2Ev@Base 4:15.08.0
 _ZN6Marble21KmlPolyStyleTagWriterD0Ev@Base 4:15.08.0
 _ZN6Marble21KmlPolyStyleTagWriterD1Ev@Base 4:15.08.0
 _ZN6Marble21KmlPolyStyleTagWriterD2Ev@Base 4:15.08.0
 _ZN6Marble21KmlTimeStampTagWriter8toStringERKNS_16GeoDataTimeStampE@Base 4:15.08.0
 _ZN6Marble21KmlTimeStampTagWriterD0Ev@Base 4:15.08.0
 _ZN6Marble21KmlTimeStampTagWriterD1Ev@Base 4:15.08.0
 _ZN6Marble21KmlTimeStampTagWriterD2Ev@Base 4:15.08.0
 _ZN6Marble21MarbleLineEditPrivate23createProgressAnimationEv@Base 4:15.08.0
 _ZN6Marble21MarbleLineEditPrivateC1EPNS_14MarbleLineEditE@Base 4:15.08.0
 _ZN6Marble21MarbleLineEditPrivateC2EPNS_14MarbleLineEditE@Base 4:15.08.0
 _ZN6Marble21MarbleWidgetPopupMenu11addBookmarkEv@Base 4:15.08.0
 _ZN6Marble21MarbleWidgetPopupMenu11qt_metacallEN11QMetaObject4CallEiPPv@Base 4:15.08.0
 _ZN6Marble21MarbleWidgetPopupMenu11qt_metacastEPKc@Base 4:15.08.0
 _ZN6Marble21MarbleWidgetPopupMenu11showLmbMenuEii@Base 4:15.08.0
 _ZN6Marble21MarbleWidgetPopupMenu11showRmbMenuEii@Base 4:15.08.0
 _ZN6Marble21MarbleWidgetPopupMenu14slotInfoDialogEv@Base 4:15.08.0
 _ZN6Marble21MarbleWidgetPopupMenu15slotAboutDialogEv@Base 4:15.08.0
 _ZN6Marble21MarbleWidgetPopupMenu16directionsToHereEv@Base 4:15.08.0
 _ZN6Marble21MarbleWidgetPopupMenu16staticMetaObjectE@Base 4:15.08.0
 _ZN6Marble21MarbleWidgetPopupMenu16toggleFullscreenEb@Base 4:15.08.0
 _ZN6Marble21MarbleWidgetPopupMenu18directionsFromHereEv@Base 4:15.08.0
 _ZN6Marble21MarbleWidgetPopupMenu19slotCopyCoordinatesEv@Base 4:15.08.0
 _ZN6Marble21MarbleWidgetPopupMenu21startReverseGeocodingEv@Base 4:15.08.0
 _ZN6Marble21MarbleWidgetPopupMenu22showAddressInformationERKNS_18GeoDataCoordinatesERKNS_16GeoDataPlacemarkE@Base 4:15.08.0
 _ZN6Marble21MarbleWidgetPopupMenu7Private15setupDialogCityEPNS_10PopupLayerEPKNS_16GeoDataPlacemarkE@Base 4:15.08.0
 _ZN6Marble21MarbleWidgetPopupMenu7Private17createInfoBoxMenuEv@Base 4:15.08.0
 _ZN6Marble21MarbleWidgetPopupMenu7Private17setupDialogNationEPNS_10PopupLayerEPKNS_16GeoDataPlacemarkE@Base 4:15.08.0
 _ZN6Marble21MarbleWidgetPopupMenu7Private20setupDialogGeoPlacesEPNS_10PopupLayerEPKNS_16GeoDataPlacemarkE@Base 4:15.08.0
 _ZN6Marble21MarbleWidgetPopupMenu7Private20setupDialogSatelliteEPKNS_16GeoDataPlacemarkE@Base 4:15.08.0
 _ZN6Marble21MarbleWidgetPopupMenu7Private20setupDialogSkyPlacesEPNS_10PopupLayerEPKNS_16GeoDataPlacemarkE@Base 4:15.08.0
 _ZN6Marble21MarbleWidgetPopupMenu7Private23setupDialogPhotoOverlayEPNS_10PopupLayerEPKNS_19GeoDataPhotoOverlayE@Base 4:15.08.0
 _ZN6Marble21MarbleWidgetPopupMenu7Private27filterEmptyShortDescriptionERK7QString@Base 4:15.08.0
 _ZN6Marble21MarbleWidgetPopupMenu7PrivateC1EPNS_12MarbleWidgetEPKNS_11MarbleModelEPS0_@Base 4:15.08.0
 _ZN6Marble21MarbleWidgetPopupMenu7PrivateC2EPNS_12MarbleWidgetEPKNS_11MarbleModelEPS0_@Base 4:15.08.0
 _ZN6Marble21MarbleWidgetPopupMenu9addActionEN2Qt11MouseButtonEP7QAction@Base 4:15.08.0
 _ZN6Marble21MarbleWidgetPopupMenu9resetMenuEv@Base 4:15.08.0
 _ZN6Marble21MarbleWidgetPopupMenuC1EPNS_12MarbleWidgetEPKNS_11MarbleModelE@Base 4:15.08.0
 _ZN6Marble21MarbleWidgetPopupMenuC2EPNS_12MarbleWidgetEPKNS_11MarbleModelE@Base 4:15.08.0
 _ZN6Marble21MarbleWidgetPopupMenuD0Ev@Base 4:15.08.0
 _ZN6Marble21MarbleWidgetPopupMenuD1Ev@Base 4:15.08.0
 _ZN6Marble21MarbleWidgetPopupMenuD2Ev@Base 4:15.08.0
 _ZN6Marble21RenderPluginInterfaceD0Ev@Base 4:15.08.0
 _ZN6Marble21RenderPluginInterfaceD1Ev@Base 4:15.08.0
 _ZN6Marble21RenderPluginInterfaceD2Ev@Base 4:15.08.0
 _ZN6Marble21RoutingManagerPrivate15importPlacemarkERNS_12RouteSegmentER7QVectorIS1_EPKNS_16GeoDataPlacemarkE@Base 4:15.08.0
 _ZN6Marble21RoutingManagerPrivate15routingFinishedEv@Base 4:15.08.0
 _ZN6Marble21RoutingManagerPrivate15setCurrentRouteEPNS_15GeoDataDocumentE@Base 4:15.08.0
 _ZN6Marble21RoutingManagerPrivate16recalculateRouteEb@Base 4:15.08.0
 _ZN6Marble21RoutingManagerPrivate8addRouteEPNS_15GeoDataDocumentE@Base 4:15.08.0
 _ZN6Marble21RoutingManagerPrivate9loadRouteERK7QString@Base 4:15.08.0
 _ZN6Marble21RoutingManagerPrivate9saveRouteERK7QString@Base 4:15.08.0
 _ZN6Marble21RoutingManagerPrivate9stateFileERK7QString@Base 4:15.08.0
 _ZN6Marble21RoutingManagerPrivateC1EPNS_11MarbleModelEPNS_14RoutingManagerEP7QObject@Base 4:15.08.0
 _ZN6Marble21RoutingManagerPrivateC2EPNS_11MarbleModelEPNS_14RoutingManagerEP7QObject@Base 4:15.08.0
 _ZN6Marble21RoutingProfilesWidget11qt_metacallEN11QMetaObject4CallEiPPv@Base 4:15.08.0
 _ZN6Marble21RoutingProfilesWidget11qt_metacastEPKc@Base 4:15.08.0
 _ZN6Marble21RoutingProfilesWidget16staticMetaObjectE@Base 4:15.08.0
 _ZN6Marble21RoutingProfilesWidget7Private13updateButtonsEv@Base 4:15.08.0
 _ZN6Marble21RoutingProfilesWidget7Private3addEv@Base 4:15.08.0
 _ZN6Marble21RoutingProfilesWidget7Private6moveUpEv@Base 4:15.08.0
 _ZN6Marble21RoutingProfilesWidget7Private6removeEv@Base 4:15.08.0
 _ZN6Marble21RoutingProfilesWidget7Private8moveDownEv@Base 4:15.08.0
 _ZN6Marble21RoutingProfilesWidget7Private9configureEv@Base 4:15.08.0
 _ZN6Marble21RoutingProfilesWidget7PrivateC1EPNS_11MarbleModelEPS0_@Base 4:15.08.0
 _ZN6Marble21RoutingProfilesWidget7PrivateC2EPNS_11MarbleModelEPS0_@Base 4:15.08.0
 _ZN6Marble21RoutingProfilesWidgetC1EPNS_11MarbleModelE@Base 4:15.08.0
 _ZN6Marble21RoutingProfilesWidgetC2EPNS_11MarbleModelE@Base 4:15.08.0
 _ZN6Marble21RoutingProfilesWidgetD0Ev@Base 4:15.08.0
 _ZN6Marble21RoutingProfilesWidgetD1Ev@Base 4:15.08.0
 _ZN6Marble21RoutingProfilesWidgetD2Ev@Base 4:15.08.0
 _ZN6Marble21TourControlEditWidget11editingDoneERK11QModelIndex@Base 4:15.08.0
 _ZN6Marble21TourControlEditWidget11qt_metacallEN11QMetaObject4CallEiPPv@Base 4:15.08.0
 _ZN6Marble21TourControlEditWidget11qt_metacastEPKc@Base 4:15.08.0
 _ZN6Marble21TourControlEditWidget11setEditableEb@Base 4:15.08.0
 _ZN6Marble21TourControlEditWidget16staticMetaObjectE@Base 4:15.08.0
 _ZN6Marble21TourControlEditWidget18tourControlElementEv@Base 4:15.08.0
 _ZN6Marble21TourControlEditWidget4saveEv@Base 4:15.08.0
 _ZN6Marble21TourControlEditWidgetC1ERK11QModelIndexP7QWidget@Base 4:15.08.0
 _ZN6Marble21TourControlEditWidgetC2ERK11QModelIndexP7QWidget@Base 4:15.08.0
 _ZN6Marble21TourControlEditWidgetD0Ev@Base 4:15.08.0
 _ZN6Marble21TourControlEditWidgetD1Ev@Base 4:15.08.0
 _ZN6Marble21TourControlEditWidgetD2Ev@Base 4:15.08.0
 _ZN6Marble21ViewportParamsPrivate18abstractProjectionENS_10ProjectionE@Base 4:15.08.0
 _ZN6Marble21ViewportParamsPrivate20s_equirectProjectionE@Base 4:15.08.0
 _ZN6Marble21ViewportParamsPrivate20s_gnomonicProjectionE@Base 4:15.08.0
 _ZN6Marble21ViewportParamsPrivate20s_mercatorProjectionE@Base 4:15.08.0
 _ZN6Marble21ViewportParamsPrivate21s_sphericalProjectionE@Base 4:15.08.0
 _ZN6Marble21ViewportParamsPrivate25s_stereographicProjectionE@Base 4:15.08.0
 _ZN6Marble21ViewportParamsPrivate28s_lambertAzimuthalProjectionE@Base 4:15.08.0
 _ZN6Marble21ViewportParamsPrivate31s_verticalPerspectiveProjectionE@Base 4:15.08.0
 _ZN6Marble21ViewportParamsPrivate32s_azimuthalEquidistantProjectionE@Base 4:15.08.0
 _ZN6Marble21ViewportParamsPrivateC1ENS_10ProjectionEddiRK5QSize@Base 4:15.08.0
 _ZN6Marble21ViewportParamsPrivateC2ENS_10ProjectionEddiRK5QSize@Base 4:15.08.0
 _ZN6Marble22AbstractDataPluginItem10setToolTipERK7QString@Base 4:15.08.0
 _ZN6Marble22AbstractDataPluginItem11qt_metacallEN11QMetaObject4CallEiPPv@Base 4:15.08.0
 _ZN6Marble22AbstractDataPluginItem11qt_metacastEPKc@Base 4:15.08.0
 _ZN6Marble22AbstractDataPluginItem11setFavoriteEb@Base 4:15.08.0
 _ZN6Marble22AbstractDataPluginItem11setSettingsERK5QHashI7QString8QVariantE@Base 4:15.08.0
 _ZN6Marble22AbstractDataPluginItem13stickyChangedEv@Base 4:15.08.0
 _ZN6Marble22AbstractDataPluginItem14toggleFavoriteEv@Base 4:15.08.0
 _ZN6Marble22AbstractDataPluginItem15favoriteChangedERK7QStringb@Base 4:15.08.0
 _ZN6Marble22AbstractDataPluginItem16staticMetaObjectE@Base 4:15.08.0
 _ZN6Marble22AbstractDataPluginItem17addDownloadedFileERK7QStringS3_@Base 4:15.08.0
 _ZN6Marble22AbstractDataPluginItem25setAddedAngularResolutionEd@Base 4:15.08.0
 _ZN6Marble22AbstractDataPluginItem5setIdERK7QString@Base 4:15.08.0
 _ZN6Marble22AbstractDataPluginItem6actionEv@Base 4:15.08.0
 _ZN6Marble22AbstractDataPluginItem7actionsEv@Base 4:15.08.0
 _ZN6Marble22AbstractDataPluginItem7updatedEv@Base 4:15.08.0
 _ZN6Marble22AbstractDataPluginItem9idChangedEv@Base 4:15.08.0
 _ZN6Marble22AbstractDataPluginItem9setStickyEb@Base 4:15.08.0
 _ZN6Marble22AbstractDataPluginItemC1EP7QObject@Base 4:15.08.0
 _ZN6Marble22AbstractDataPluginItemC2EP7QObject@Base 4:15.08.0
 _ZN6Marble22AbstractDataPluginItemD0Ev@Base 4:15.08.0
 _ZN6Marble22AbstractDataPluginItemD1Ev@Base 4:15.08.0
 _ZN6Marble22AbstractDataPluginItemD2Ev@Base 4:15.08.0
 _ZN6Marble22AlternativeRoutesModel10newRequestEPNS_12RouteRequestE@Base 4:15.08.0
 _ZN6Marble22AlternativeRoutesModel11qt_metacallEN11QMetaObject4CallEiPPv@Base 4:15.08.0
 _ZN6Marble22AlternativeRoutesModel11qt_metacastEPKc@Base 4:15.08.0
 _ZN6Marble22AlternativeRoutesModel12currentRouteEv@Base 4:15.08.0
 _ZN6Marble22AlternativeRoutesModel15setCurrentRouteEi@Base 4:15.08.0
 _ZN6Marble22AlternativeRoutesModel16staticMetaObjectE@Base 4:15.08.0
 _ZN6Marble22AlternativeRoutesModel19addRestrainedRoutesEv@Base 4:15.08.0
 _ZN6Marble22AlternativeRoutesModel19currentRouteChangedEPNS_15GeoDataDocumentE@Base 4:15.08.0
 _ZN6Marble22AlternativeRoutesModel19currentRouteChangedEi@Base 4:15.08.0
 _ZN6Marble22AlternativeRoutesModel5clearEv@Base 4:15.08.0
 _ZN6Marble22AlternativeRoutesModel5routeEi@Base 4:15.08.0
 _ZN6Marble22AlternativeRoutesModel7Private10similarityEPKNS_15GeoDataDocumentES4_@Base 4:15.08.0
 _ZN6Marble22AlternativeRoutesModel7Private11coordinatesERKNS_18GeoDataCoordinatesEdd@Base 4:15.08.0
 _ZN6Marble22AlternativeRoutesModel7Private11higherScoreEPKNS_15GeoDataDocumentES4_@Base 4:15.08.0
 _ZN6Marble22AlternativeRoutesModel7Private16instructionScoreEPKNS_15GeoDataDocumentE@Base 4:15.08.0
 _ZN6Marble22AlternativeRoutesModel7Private24unidirectionalSimilarityEPKNS_15GeoDataDocumentES4_@Base 4:15.08.0
 _ZN6Marble22AlternativeRoutesModel7Private7bearingERKNS_18GeoDataCoordinatesES4_@Base 4:15.08.0
 _ZN6Marble22AlternativeRoutesModel7Private7nonZeroERK6QImage@Base 4:15.08.0
 _ZN6Marble22AlternativeRoutesModel7Private7polygonERKNS_17GeoDataLineStringEdddd@Base 4:15.08.0
 _ZN6Marble22AlternativeRoutesModel7Private8distanceERKNS_17GeoDataLineStringERKNS_18GeoDataCoordinatesE@Base 4:15.08.0
 _ZN6Marble22AlternativeRoutesModel7Private8distanceERKNS_18GeoDataCoordinatesES4_S4_@Base 4:15.08.0
 _ZN6Marble22AlternativeRoutesModel7Private9waypointsEPKNS_15GeoDataDocumentE@Base 4:15.08.0
 _ZN6Marble22AlternativeRoutesModel7PrivateC1Ev@Base 4:15.08.0
 _ZN6Marble22AlternativeRoutesModel7PrivateC2Ev@Base 4:15.08.0
 _ZN6Marble22AlternativeRoutesModel8addRouteEPNS_15GeoDataDocumentENS0_11WritePolicyE@Base 4:15.08.0
 _ZN6Marble22AlternativeRoutesModel9waypointsEPKNS_15GeoDataDocumentE@Base 4:15.08.0
 _ZN6Marble22AlternativeRoutesModelC1EP7QObject@Base 4:15.08.0
 _ZN6Marble22AlternativeRoutesModelC2EP7QObject@Base 4:15.08.0
 _ZN6Marble22AlternativeRoutesModelD0Ev@Base 4:15.08.0
 _ZN6Marble22AlternativeRoutesModelD1Ev@Base 4:15.08.0
 _ZN6Marble22AlternativeRoutesModelD2Ev@Base 4:15.08.0
 _ZN6Marble22BookmarkManagerPrivate17setVisualCategoryEPNS_16GeoDataContainerE@Base 4:15.08.0
 _ZN6Marble22BookmarkManagerPrivate21resetBookmarkDocumentEv@Base 4:15.08.0
 _ZN6Marble22BookmarkManagerPrivateC1EPNS_16GeoDataTreeModelE@Base 4:15.08.0
 _ZN6Marble22BookmarkManagerPrivateC2EPNS_16GeoDataTreeModelE@Base 4:15.08.0
 _ZN6Marble22BookmarkManagerPrivateD1Ev@Base 4:15.08.0
 _ZN6Marble22BookmarkManagerPrivateD2Ev@Base 4:15.08.0
 _ZN6Marble22BranchFilterProxyModel14setBranchIndexEPNS_16GeoDataTreeModelERK11QModelIndex@Base 4:15.08.0
 _ZN6Marble22BranchFilterProxyModelC1EP7QObject@Base 4:15.08.0
 _ZN6Marble22BranchFilterProxyModelC2EP7QObject@Base 4:15.08.0
 _ZN6Marble22BranchFilterProxyModelD0Ev@Base 4:15.08.0
 _ZN6Marble22BranchFilterProxyModelD1Ev@Base 4:15.08.0
 _ZN6Marble22BranchFilterProxyModelD2Ev@Base 4:15.08.0
 _ZN6Marble22GeoDataDocumentPrivate4copyEv@Base 4:15.08.0
 _ZN6Marble22GeoDataDocumentPrivateD0Ev@Base 4:15.08.0
 _ZN6Marble22GeoDataDocumentPrivateD1Ev@Base 4:15.08.0
 _ZN6Marble22GeoDataDocumentPrivateD2Ev@Base 4:15.08.0
 _ZN6Marble22GeoDataGeometryPrivate4copyEv@Base 4:15.08.0
 _ZN6Marble22GeoDataGeometryPrivateD0Ev@Base 4:15.08.0
 _ZN6Marble22GeoDataGeometryPrivateD1Ev@Base 4:15.08.0
 _ZN6Marble22GeoDataGeometryPrivateD2Ev@Base 4:15.08.0
 _ZN6Marble22GeoDataItemIconPrivateC1Ev@Base 4:15.08.0
 _ZN6Marble22GeoDataItemIconPrivateC2Ev@Base 4:15.08.0
 _ZN6Marble22GeoDataLocationPrivateC1Ev@Base 4:15.08.0
 _ZN6Marble22GeoDataLocationPrivateC2Ev@Base 4:15.08.0
 _ZN6Marble22GeoDataSimpleArrayData6appendERK8QVariant@Base 4:15.08.0
 _ZN6Marble22GeoDataSimpleArrayData6unpackER11QDataStream@Base 4:15.08.0
 _ZN6Marble22GeoDataSimpleArrayDataC1ERKS0_@Base 4:15.08.0
 _ZN6Marble22GeoDataSimpleArrayDataC1Ev@Base 4:15.08.0
 _ZN6Marble22GeoDataSimpleArrayDataC2ERKS0_@Base 4:15.08.0
 _ZN6Marble22GeoDataSimpleArrayDataC2Ev@Base 4:15.08.0
 _ZN6Marble22GeoDataSimpleArrayDataD0Ev@Base 4:15.08.0
 _ZN6Marble22GeoDataSimpleArrayDataD1Ev@Base 4:15.08.0
 _ZN6Marble22GeoDataSimpleArrayDataD2Ev@Base 4:15.08.0
 _ZN6Marble22GeoGraphicsItemPrivateD0Ev@Base 4:15.08.0
 _ZN6Marble22GeoGraphicsItemPrivateD1Ev@Base 4:15.08.0
 _ZN6Marble22GeoGraphicsItemPrivateD2Ev@Base 4:15.08.0
 _ZN6Marble22GeoPolygonGraphicsItem5paintEPNS_10GeoPainterEPKNS_14ViewportParamsE@Base 4:15.08.0
 _ZN6Marble22GeoPolygonGraphicsItemC1EPKNS_14GeoDataFeatureEPKNS_14GeoDataPolygonE@Base 4:15.08.0
 _ZN6Marble22GeoPolygonGraphicsItemC1EPKNS_14GeoDataFeatureEPKNS_17GeoDataLinearRingE@Base 4:15.08.0
 _ZN6Marble22GeoPolygonGraphicsItemC2EPKNS_14GeoDataFeatureEPKNS_14GeoDataPolygonE@Base 4:15.08.0
 _ZN6Marble22GeoPolygonGraphicsItemC2EPKNS_14GeoDataFeatureEPKNS_17GeoDataLinearRingE@Base 4:15.08.0
 _ZN6Marble22GeoPolygonGraphicsItemD0Ev@Base 4:15.08.0
 _ZN6Marble22GeoPolygonGraphicsItemD1Ev@Base 4:15.08.0
 _ZN6Marble22GeoPolygonGraphicsItemD2Ev@Base 4:15.08.0
 _ZN6Marble22GeoTagHandlerRegistrarC1ERK5QPairI7QStringS2_EPKNS_13GeoTagHandlerE@Base 4:15.08.0
 _ZN6Marble22GeoTagHandlerRegistrarC2ERK5QPairI7QStringS2_EPKNS_13GeoTagHandlerE@Base 4:15.08.0
 _ZN6Marble22GeoTagHandlerRegistrarD1Ev@Base 4:15.08.0
 _ZN6Marble22GeoTagHandlerRegistrarD2Ev@Base 4:15.08.0
 _ZN6Marble22HalfDifferenceBlendingD0Ev@Base 4:15.08.0
 _ZN6Marble22HalfDifferenceBlendingD1Ev@Base 4:15.08.0
 _ZN6Marble22HalfDifferenceBlendingD2Ev@Base 4:15.08.0
 _ZN6Marble22KmlColorStyleTagWriter11formatColorERK6QColor@Base 4:15.08.0
 _ZN6Marble22KmlColorStyleTagWriterC1ERK7QString@Base 4:15.08.0
 _ZN6Marble22KmlColorStyleTagWriterC2ERK7QString@Base 4:15.08.0
 _ZN6Marble22KmlGroundOverlayWriter17writeAltitudeModeERNS_9GeoWriterENS_12AltitudeModeE@Base 4:15.08.0
 _ZN6Marble22KmlGroundOverlayWriter20altitudeModeToStringENS_12AltitudeModeE@Base 4:15.08.0
 _ZN6Marble22KmlGroundOverlayWriterC1Ev@Base 4:15.08.0
 _ZN6Marble22KmlGroundOverlayWriterC2Ev@Base 4:15.08.0
 _ZN6Marble22KmlGroundOverlayWriterD0Ev@Base 4:15.08.0
 _ZN6Marble22KmlGroundOverlayWriterD1Ev@Base 4:15.08.0
 _ZN6Marble22KmlGroundOverlayWriterD2Ev@Base 4:15.08.0
 _ZN6Marble22KmlLabelStyleTagWriterC1Ev@Base 4:15.08.0
 _ZN6Marble22KmlLabelStyleTagWriterC2Ev@Base 4:15.08.0
 _ZN6Marble22KmlLabelStyleTagWriterD0Ev@Base 4:15.08.0
 _ZN6Marble22KmlLabelStyleTagWriterD1Ev@Base 4:15.08.0
 _ZN6Marble22KmlLabelStyleTagWriterD2Ev@Base 4:15.08.0
 _ZN6Marble22KmlLineStringTagWriterD0Ev@Base 4:15.08.0
 _ZN6Marble22KmlLineStringTagWriterD1Ev@Base 4:15.08.0
 _ZN6Marble22KmlLineStringTagWriterD2Ev@Base 4:15.08.0
 _ZN6Marble22KmlLinearRingTagWriterD0Ev@Base 4:15.08.0
 _ZN6Marble22KmlLinearRingTagWriterD1Ev@Base 4:15.08.0
 _ZN6Marble22KmlLinearRingTagWriterD2Ev@Base 4:15.08.0
 _ZN6Marble22KmlMultiTrackTagWriterD0Ev@Base 4:15.08.0
 _ZN6Marble22KmlMultiTrackTagWriterD1Ev@Base 4:15.08.0
 _ZN6Marble22KmlMultiTrackTagWriterD2Ev@Base 4:15.08.0
 _ZN6Marble22KmlSchemaDataTagWriterD0Ev@Base 4:15.08.0
 _ZN6Marble22KmlSchemaDataTagWriterD1Ev@Base 4:15.08.0
 _ZN6Marble22KmlSchemaDataTagWriterD2Ev@Base 4:15.08.0
 _ZN6Marble22KmlScreenOverlayWriter12unitToStringENS_11GeoDataVec24UnitE@Base 4:15.08.0
 _ZN6Marble22KmlScreenOverlayWriter9writeVec2ERK7QStringRKNS_11GeoDataVec2ERNS_9GeoWriterE@Base 4:15.08.0
 _ZN6Marble22KmlScreenOverlayWriterC1Ev@Base 4:15.08.0
 _ZN6Marble22KmlScreenOverlayWriterC2Ev@Base 4:15.08.0
 _ZN6Marble22KmlScreenOverlayWriterD0Ev@Base 4:15.08.0
 _ZN6Marble22KmlScreenOverlayWriterD1Ev@Base 4:15.08.0
 _ZN6Marble22KmlScreenOverlayWriterD2Ev@Base 4:15.08.0
 _ZN6Marble22KmlSimpleDataTagWriterD0Ev@Base 4:15.08.0
 _ZN6Marble22KmlSimpleDataTagWriterD1Ev@Base 4:15.08.0
 _ZN6Marble22KmlSimpleDataTagWriterD2Ev@Base 4:15.08.0
 _ZN6Marble22MapThemeDownloadDialog11qt_metacallEN11QMetaObject4CallEiPPv@Base 4:15.08.0
 _ZN6Marble22MapThemeDownloadDialog11qt_metacastEPKc@Base 4:15.08.0
 _ZN6Marble22MapThemeDownloadDialog16staticMetaObjectE@Base 4:15.08.0
 _ZN6Marble22MapThemeDownloadDialogC1EPNS_12MarbleWidgetE@Base 4:15.08.0
 _ZN6Marble22MapThemeDownloadDialogC2EPNS_12MarbleWidgetE@Base 4:15.08.0
 _ZN6Marble22MapThemeDownloadDialogD0Ev@Base 4:15.08.0
 _ZN6Marble22MapThemeDownloadDialogD1Ev@Base 4:15.08.0
 _ZN6Marble22MapThemeDownloadDialogD2Ev@Base 4:15.08.0
 _ZN6Marble22MarbleQuickItemPrivateD0Ev@Base 4:15.08.0
 _ZN6Marble22MarbleQuickItemPrivateD1Ev@Base 4:15.08.0
 _ZN6Marble22MarbleQuickItemPrivateD2Ev@Base 4:15.08.0
 _ZN6Marble22PositionProviderPlugin11qt_metacallEN11QMetaObject4CallEiPPv@Base 4:15.08.0
 _ZN6Marble22PositionProviderPlugin11qt_metacastEPKc@Base 4:15.08.0
 _ZN6Marble22PositionProviderPlugin16staticMetaObjectE@Base 4:15.08.0
 _ZN6Marble22PositionProviderPluginC1Ev@Base 4:15.08.0
 _ZN6Marble22PositionProviderPluginC2Ev@Base 4:15.08.0
 _ZN6Marble22PositionProviderPluginD0Ev@Base 4:15.08.0
 _ZN6Marble22PositionProviderPluginD1Ev@Base 4:15.08.0
 _ZN6Marble22PositionProviderPluginD2Ev@Base 4:15.08.0
 _ZN6Marble22ReverseGeocodingRunner11qt_metacallEN11QMetaObject4CallEiPPv@Base 4:15.08.0
 _ZN6Marble22ReverseGeocodingRunner11qt_metacastEPKc@Base 4:15.08.0
 _ZN6Marble22ReverseGeocodingRunner16staticMetaObjectE@Base 4:15.08.0
 _ZN6Marble22ReverseGeocodingRunner24reverseGeocodingFinishedERKNS_18GeoDataCoordinatesERKNS_16GeoDataPlacemarkE@Base 4:15.08.0
 _ZN6Marble22ReverseGeocodingRunner8setModelEPKNS_11MarbleModelE@Base 4:15.08.0
 _ZN6Marble22ReverseGeocodingRunnerC1EP7QObject@Base 4:15.08.0
 _ZN6Marble22ReverseGeocodingRunnerC2EP7QObject@Base 4:15.08.0
 _ZN6Marble22TextureMapperInterface16setRepaintNeededEv@Base 4:15.08.0
 _ZN6Marble22TextureMapperInterfaceC1Ev@Base 4:15.08.0
 _ZN6Marble22TextureMapperInterfaceC2Ev@Base 4:15.08.0
 _ZN6Marble22TextureMapperInterfaceD0Ev@Base 4:15.08.0
 _ZN6Marble22TextureMapperInterfaceD1Ev@Base 4:15.08.0
 _ZN6Marble22TextureMapperInterfaceD2Ev@Base 4:15.08.0
 _ZN6Marble22TileCreatorSourceImage4tileEiii@Base 4:15.08.0
 _ZN6Marble22TileCreatorSourceImageD0Ev@Base 4:15.08.0
 _ZN6Marble22TileCreatorSourceImageD1Ev@Base 4:15.08.0
 _ZN6Marble22TileCreatorSourceImageD2Ev@Base 4:15.08.0
 _ZN6Marble22TreeViewDecoratorModel11qt_metacallEN11QMetaObject4CallEiPPv@Base 4:15.08.0
 _ZN6Marble22TreeViewDecoratorModel11qt_metacastEPKc@Base 4:15.08.0
 _ZN6Marble22TreeViewDecoratorModel16staticMetaObjectE@Base 4:15.08.0
 _ZN6Marble22TreeViewDecoratorModel18trackExpandedStateERK11QModelIndex@Base 4:15.08.0
 _ZN6Marble22TreeViewDecoratorModel19trackCollapsedStateERK11QModelIndex@Base 4:15.08.0
 _ZN6Marble22TreeViewDecoratorModelC1EP7QObject@Base 4:15.08.0
 _ZN6Marble22TreeViewDecoratorModelC2EP7QObject@Base 4:15.08.0
 _ZN6Marble22TreeViewDecoratorModelD0Ev@Base 4:15.08.0
 _ZN6Marble22TreeViewDecoratorModelD1Ev@Base 4:15.08.0
 _ZN6Marble22TreeViewDecoratorModelD2Ev@Base 4:15.08.0
 _ZN6Marble22sortedVisualCategoriesEv@Base 4:15.08.0
 _ZN6Marble23AbstractDataPluginModel10removeItemEP7QObject@Base 4:15.08.0
 _ZN6Marble23AbstractDataPluginModel11qt_metacallEN11QMetaObject4CallEiPPv@Base 4:15.08.0
 _ZN6Marble23AbstractDataPluginModel11qt_metacastEPKc@Base 4:15.08.0
 _ZN6Marble23AbstractDataPluginModel11whichItemAtERK6QPoint@Base 4:15.08.0
 _ZN6Marble23AbstractDataPluginModel12downloadItemERK4QUrlRK7QStringPNS_22AbstractDataPluginItemE@Base 4:15.08.0
 _ZN6Marble23AbstractDataPluginModel12itemsUpdatedEv@Base 4:15.08.0
 _ZN6Marble23AbstractDataPluginModel12themeChangedEv@Base 4:15.08.0
 _ZN6Marble23AbstractDataPluginModel13addItemToListEPNS_22AbstractDataPluginItemE@Base 4:15.08.0
 _ZN6Marble23AbstractDataPluginModel14addItemsToListERK5QListIPNS_22AbstractDataPluginItemEE@Base 4:15.08.0
 _ZN6Marble23AbstractDataPluginModel14favoritesModelEv@Base 4:15.08.0
 _ZN6Marble23AbstractDataPluginModel15setItemSettingsE5QHashI7QString8QVariantE@Base 4:15.08.0
 _ZN6Marble23AbstractDataPluginModel16downloadItemDataERK4QUrlRK7QStringPNS_22AbstractDataPluginItemE@Base 4:15.08.0
 _ZN6Marble23AbstractDataPluginModel16scheduleItemSortEv@Base 4:15.08.0
 _ZN6Marble23AbstractDataPluginModel16setFavoriteItemsERK11QStringList@Base 4:15.08.0
 _ZN6Marble23AbstractDataPluginModel16staticMetaObjectE@Base 4:15.08.0
 _ZN6Marble23AbstractDataPluginModel18processFinishedJobERK7QStringS3_@Base 4:15.08.0
 _ZN6Marble23AbstractDataPluginModel19favoriteItemChangedERK7QStringb@Base 4:15.08.0
 _ZN6Marble23AbstractDataPluginModel20favoriteItemsChangedERK11QStringList@Base 4:15.08.0
 _ZN6Marble23AbstractDataPluginModel20setFavoriteItemsOnlyEb@Base 4:15.08.0
 _ZN6Marble23AbstractDataPluginModel21handleChangedViewportEv@Base 4:15.08.0
 _ZN6Marble23AbstractDataPluginModel22registerItemPropertiesERK11QMetaObject@Base 4:15.08.0
 _ZN6Marble23AbstractDataPluginModel23downloadDescriptionFileERK4QUrl@Base 4:15.08.0
 _ZN6Marble23AbstractDataPluginModel24favoriteItemsOnlyChangedEv@Base 4:15.08.0
 _ZN6Marble23AbstractDataPluginModel5clearEv@Base 4:15.08.0
 _ZN6Marble23AbstractDataPluginModel5itemsEPKNS_14ViewportParamsEi@Base 4:15.08.0
 _ZN6Marble23AbstractDataPluginModel7getItemERK7QString@Base 4:15.08.0
 _ZN6Marble23AbstractDataPluginModel9parseFileERK10QByteArray@Base 4:15.08.0
 _ZN6Marble23AbstractDataPluginModelC1ERK7QStringPKNS_11MarbleModelEP7QObject@Base 4:15.08.0
 _ZN6Marble23AbstractDataPluginModelC2ERK7QStringPKNS_11MarbleModelEP7QObject@Base 4:15.08.0
 _ZN6Marble23AbstractDataPluginModelD0Ev@Base 4:15.08.0
 _ZN6Marble23AbstractDataPluginModelD1Ev@Base 4:15.08.0
 _ZN6Marble23AbstractDataPluginModelD2Ev@Base 4:15.08.0
 _ZN6Marble23GeoDataContainerPrivate4copyEv@Base 4:15.08.0
 _ZN6Marble23GeoDataContainerPrivateD0Ev@Base 4:15.08.0
 _ZN6Marble23GeoDataContainerPrivateD1Ev@Base 4:15.08.0
 _ZN6Marble23GeoDataContainerPrivateD2Ev@Base 4:15.08.0
 _ZN6Marble23GeoDataListStylePrivateC1Ev@Base 4:15.08.0
 _ZN6Marble23GeoDataListStylePrivateC2Ev@Base 4:15.08.0
 _ZN6Marble23GeoDataPlacemarkPrivate4copyEv@Base 4:15.08.0
 _ZN6Marble23GeoDataPlacemarkPrivateD0Ev@Base 4:15.08.0
 _ZN6Marble23GeoDataPlacemarkPrivateD1Ev@Base 4:15.08.0
 _ZN6Marble23GeoDataPlacemarkPrivateD2Ev@Base 4:15.08.0
 _ZN6Marble23GeoDataTimeStampPrivateC1Ev@Base 4:15.08.0
 _ZN6Marble23GeoDataTimeStampPrivateC2Ev@Base 4:15.08.0
 _ZN6Marble23GeoGraphicsScenePrivate10mergeItemsER5QListIPNS_15GeoGraphicsItemEERKS4_i@Base 4:15.08.0
 _ZN6Marble23GeoGraphicsScenePrivate10selectItemEPNS_15GeoGraphicsItemE@Base 4:15.08.0
 _ZN6Marble23GeoGraphicsScenePrivate14highlightStyleEPKNS_15GeoDataDocumentERKNS_15GeoDataStyleMapE@Base 4:15.08.0
 _ZN6Marble23GeoGraphicsScenePrivate19applyHighlightStyleEPNS_15GeoGraphicsItemEPNS_12GeoDataStyleE@Base 4:15.08.0
 _ZN6Marble23GeoSceneAbstractDataset13setFileFormatERK7QString@Base 4:15.08.0
 _ZN6Marble23GeoSceneAbstractDataset9setExpireEi@Base 4:15.08.0
 _ZN6Marble23GeoSceneAbstractDatasetC1ERK7QString@Base 4:15.08.0
 _ZN6Marble23GeoSceneAbstractDatasetC2ERK7QString@Base 4:15.08.0
 _ZN6Marble23GeoSceneAbstractDatasetD0Ev@Base 4:15.08.0
 _ZN6Marble23GeoSceneAbstractDatasetD1Ev@Base 4:15.08.0
 _ZN6Marble23GeoSceneAbstractDatasetD2Ev@Base 4:15.08.0
 _ZN6Marble23KmlNetworkLinkTagWriterD0Ev@Base 4:15.08.0
 _ZN6Marble23KmlNetworkLinkTagWriterD1Ev@Base 4:15.08.0
 _ZN6Marble23KmlNetworkLinkTagWriterD2Ev@Base 4:15.08.0
 _ZN6Marble23KmlSimpleFieldTagWriter11resolveTypeENS_18GeoDataSimpleField15SimpleFieldTypeE@Base 4:15.08.0
 _ZN6Marble23KmlSimpleFieldTagWriterD0Ev@Base 4:15.08.0
 _ZN6Marble23KmlSimpleFieldTagWriterD1Ev@Base 4:15.08.0
 _ZN6Marble23KmlSimpleFieldTagWriterD2Ev@Base 4:15.08.0
 _ZN6Marble23MarbleAbstractPresenter10moveByStepEiiNS_9FlyToModeE@Base 4:15.08.0
 _ZN6Marble23MarbleAbstractPresenter10setLogzoomEi@Base 4:15.08.0
 _ZN6Marble23MarbleAbstractPresenter10zoomViewByEiNS_9FlyToModeE@Base 4:15.08.0
 _ZN6Marble23MarbleAbstractPresenter11qt_metacallEN11QMetaObject4CallEiPPv@Base 4:15.08.0
 _ZN6Marble23MarbleAbstractPresenter11qt_metacastEPKc@Base 4:15.08.0
 _ZN6Marble23MarbleAbstractPresenter11setDistanceEd@Base 4:15.08.0
 _ZN6Marble23MarbleAbstractPresenter11zoomChangedEi@Base 4:15.08.0
 _ZN6Marble23MarbleAbstractPresenter12setSelectionERK5QRect@Base 4:15.08.0
 _ZN6Marble23MarbleAbstractPresenter14regionSelectedERK5QListIdE@Base 4:15.08.0
 _ZN6Marble23MarbleAbstractPresenter14setViewContextENS_11ViewContextE@Base 4:15.08.0
 _ZN6Marble23MarbleAbstractPresenter14updateRequiredEv@Base 4:15.08.0
 _ZN6Marble23MarbleAbstractPresenter15distanceChangedERK7QString@Base 4:15.08.0
 _ZN6Marble23MarbleAbstractPresenter16staticMetaObjectE@Base 4:15.08.0
 _ZN6Marble23MarbleAbstractPresenter17setCenterLatitudeEdNS_9FlyToModeE@Base 4:15.08.0
 _ZN6Marble23MarbleAbstractPresenter18setCenterLongitudeEdNS_9FlyToModeE@Base 4:15.08.0
 _ZN6Marble23MarbleAbstractPresenter20setAnimationsEnabledEb@Base 4:15.08.0
 _ZN6Marble23MarbleAbstractPresenter3mapEv@Base 4:15.08.0
 _ZN6Marble23MarbleAbstractPresenter5flyToERKNS_13GeoDataLookAtENS_9FlyToModeE@Base 4:15.08.0
 _ZN6Marble23MarbleAbstractPresenter5modelEv@Base 4:15.08.0
 _ZN6Marble23MarbleAbstractPresenter6goHomeENS_9FlyToModeE@Base 4:15.08.0
 _ZN6Marble23MarbleAbstractPresenter6moveToERK6QPointd@Base 4:15.08.0
 _ZN6Marble23MarbleAbstractPresenter6zoomAtERK6QPointd@Base 4:15.08.0
 _ZN6Marble23MarbleAbstractPresenter6zoomInENS_9FlyToModeE@Base 4:15.08.0
 _ZN6Marble23MarbleAbstractPresenter7setZoomEiNS_9FlyToModeE@Base 4:15.08.0
 _ZN6Marble23MarbleAbstractPresenter7zoomOutENS_9FlyToModeE@Base 4:15.08.0
 _ZN6Marble23MarbleAbstractPresenter8centerOnERKNS_16GeoDataLatLonBoxEb@Base 4:15.08.0
 _ZN6Marble23MarbleAbstractPresenter8centerOnERKNS_16GeoDataPlacemarkEb@Base 4:15.08.0
 _ZN6Marble23MarbleAbstractPresenter8centerOnERKNS_18GeoDataCoordinatesEb@Base 4:15.08.0
 _ZN6Marble23MarbleAbstractPresenter8centerOnEddb@Base 4:15.08.0
 _ZN6Marble23MarbleAbstractPresenter8rotateByEddNS_9FlyToModeE@Base 4:15.08.0
 _ZN6Marble23MarbleAbstractPresenter8viewportEv@Base 4:15.08.0
 _ZN6Marble23MarbleAbstractPresenter8zoomViewEiNS_9FlyToModeE@Base 4:15.08.0
 _ZN6Marble23MarbleAbstractPresenter9setRadiusEi@Base 4:15.08.0
 _ZN6Marble23MarbleAbstractPresenterC1Ev@Base 4:15.08.0
 _ZN6Marble23MarbleAbstractPresenterC2Ev@Base 4:15.08.0
 _ZN6Marble23MarbleAbstractPresenterD0Ev@Base 4:15.08.0
 _ZN6Marble23MarbleAbstractPresenterD1Ev@Base 4:15.08.0
 _ZN6Marble23MarbleAbstractPresenterD2Ev@Base 4:15.08.0
 _ZN6Marble23MarbleControlBoxPrivateC1Ev@Base 4:15.08.0
 _ZN6Marble23MarbleControlBoxPrivateC2Ev@Base 4:15.08.0
 _ZN6Marble23MarbleQuickInputHandler11acceptMouseEv@Base 4:15.08.0
 _ZN6Marble23MarbleQuickInputHandler11handleTouchEP11QTouchEvent@Base 4:15.08.0
 _ZN6Marble23MarbleQuickInputHandler11showLmbMenuEii@Base 4:15.08.0
 _ZN6Marble23MarbleQuickInputHandler11showRmbMenuEii@Base 4:15.08.0
 _ZN6Marble23MarbleQuickInputHandler15openItemToolTipEv@Base 4:15.08.0
 _ZN6Marble23MarbleQuickInputHandler15selectionRubberEv@Base 4:15.08.0
 _ZN6Marble23MarbleQuickInputHandler17checkReleasedMoveEP11QMouseEvent@Base 4:15.08.0
 _ZN6Marble23MarbleQuickInputHandler17layersEventFilterEP7QObjectP6QEvent@Base 4:15.08.0
 _ZN6Marble23MarbleQuickInputHandler24installPluginEventFilterEPNS_12RenderPluginE@Base 4:15.08.0
 _ZN6Marble23MarbleQuickInputHandler9setCursorERK7QCursor@Base 4:15.08.0
 _ZN6Marble23MarbleQuickInputHandlerD0Ev@Base 4:15.08.0
 _ZN6Marble23MarbleQuickInputHandlerD1Ev@Base 4:15.08.0
 _ZN6Marble23MarbleQuickInputHandlerD2Ev@Base 4:15.08.0
 _ZN6Marble23NavigationWidgetPrivate13updateButtonsEi@Base 4:15.08.0
 _ZN6Marble23NavigationWidgetPrivate14adjustForStillEv@Base 4:15.08.0
 _ZN6Marble23NavigationWidgetPrivate15setSearchResultE7QVectorIPNS_16GeoDataPlacemarkEE@Base 4:15.08.0
 _ZN6Marble23NavigationWidgetPrivate17mapCenterOnSignalERK11QModelIndex@Base 4:15.08.0
 _ZN6Marble23NavigationWidgetPrivate18adjustForAnimationEv@Base 4:15.08.0
 _ZN6Marble23NavigationWidgetPrivateC1Ev@Base 4:15.08.0
 _ZN6Marble23NavigationWidgetPrivateC2Ev@Base 4:15.08.0
 _ZN6Marble23NewBookmarkFolderDialog11qt_metacallEN11QMetaObject4CallEiPPv@Base 4:15.08.0
 _ZN6Marble23NewBookmarkFolderDialog11qt_metacastEPKc@Base 4:15.08.0
 _ZN6Marble23NewBookmarkFolderDialog13setFolderNameERK7QString@Base 4:15.08.0
 _ZN6Marble23NewBookmarkFolderDialog16staticMetaObjectE@Base 4:15.08.0
 _ZN6Marble23NewBookmarkFolderDialogC1EP7QWidget@Base 4:15.08.0
 _ZN6Marble23NewBookmarkFolderDialogC2EP7QWidget@Base 4:15.08.0
 _ZN6Marble23NewBookmarkFolderDialogD0Ev@Base 4:15.08.0
 _ZN6Marble23NewBookmarkFolderDialogD1Ev@Base 4:15.08.0
 _ZN6Marble23NewBookmarkFolderDialogD2Ev@Base 4:15.08.0
 _ZN6Marble23PlaybackTourControlItem4playEv@Base 4:15.08.0
 _ZN6Marble23PlaybackTourControlItem4seekEd@Base 4:15.08.0
 _ZN6Marble23PlaybackTourControlItem4stopEv@Base 4:15.08.0
 _ZN6Marble23PlaybackTourControlItem5pauseEv@Base 4:15.08.0
 _ZN6Marble23PlaybackTourControlItemC1EPKNS_18GeoDataTourControlE@Base 4:15.08.0
 _ZN6Marble23PlaybackTourControlItemC2EPKNS_18GeoDataTourControlE@Base 4:15.08.0
 _ZN6Marble23PlaybackTourControlItemD0Ev@Base 4:15.08.0
 _ZN6Marble23PlaybackTourControlItemD1Ev@Base 4:15.08.0
 _ZN6Marble23PlaybackTourControlItemD2Ev@Base 4:15.08.0
 _ZN6Marble23PositionTrackingPrivate10statusFileEv@Base 4:15.08.0
 _ZN6Marble23PositionTrackingPrivate12updateStatusEv@Base 4:15.08.0
 _ZN6Marble23PositionTrackingPrivate14updatePositionEv@Base 4:15.08.0
 _ZN6Marble23RemoteIconLoaderPrivate16initiateDownloadERK7QString@Base 4:15.08.0
 _ZN6Marble23RemoteIconLoaderPrivate17loadFromDiskCacheERK7QString@Base 4:15.08.0
 _ZN6Marble23StereographicProjectionC1EPNS_30StereographicProjectionPrivateE@Base 4:15.08.0
 _ZN6Marble23StereographicProjectionC1Ev@Base 4:15.08.0
 _ZN6Marble23StereographicProjectionC2EPNS_30StereographicProjectionPrivateE@Base 4:15.08.0
 _ZN6Marble23StereographicProjectionC2Ev@Base 4:15.08.0
 _ZN6Marble23StereographicProjectionD0Ev@Base 4:15.08.0
 _ZN6Marble23StereographicProjectionD1Ev@Base 4:15.08.0
 _ZN6Marble23StereographicProjectionD2Ev@Base 4:15.08.0
 _ZN6Marble23TemplateDocumentPrivate23processTemplateIncludesER7QString@Base 4:15.08.0
 _ZN6Marble24AbstractFloatItemPrivate5s_penE@Base 4:15.08.0
 _ZN6Marble24AbstractFloatItemPrivate6s_fontE@Base 4:15.08.0
 _ZN6Marble24FileStorageWatcherThread10cacheLimitEv@Base 4:15.08.0
 _ZN6Marble24FileStorageWatcherThread11prepareQuitEv@Base 4:15.08.0
 _ZN6Marble24FileStorageWatcherThread11qt_metacallEN11QMetaObject4CallEiPPv@Base 4:15.08.0
 _ZN6Marble24FileStorageWatcherThread11qt_metacastEPKc@Base 4:15.08.0
 _ZN6Marble24FileStorageWatcherThread13setCacheLimitEy@Base 4:15.08.0
 _ZN6Marble24FileStorageWatcherThread15ensureCacheSizeEv@Base 4:15.08.0
 _ZN6Marble24FileStorageWatcherThread15variableChangedEv@Base 4:15.08.0
 _ZN6Marble24FileStorageWatcherThread16addToCurrentSizeEx@Base 4:15.08.0
 _ZN6Marble24FileStorageWatcherThread16resetCurrentSizeEv@Base 4:15.08.0
 _ZN6Marble24FileStorageWatcherThread16staticMetaObjectE@Base 4:15.08.0
 _ZN6Marble24FileStorageWatcherThread19getCurrentCacheSizeEv@Base 4:15.08.0
 _ZN6Marble24FileStorageWatcherThreadC1ERK7QStringP7QObject@Base 4:15.08.0
 _ZN6Marble24FileStorageWatcherThreadC2ERK7QStringP7QObject@Base 4:15.08.0
 _ZN6Marble24FileStorageWatcherThreadD0Ev@Base 4:15.08.0
 _ZN6Marble24FileStorageWatcherThreadD1Ev@Base 4:15.08.0
 _ZN6Marble24FileStorageWatcherThreadD2Ev@Base 4:15.08.0
 _ZN6Marble24GeoDataLatLonQuadPrivateC1Ev@Base 4:15.08.0
 _ZN6Marble24GeoDataLatLonQuadPrivateC2Ev@Base 4:15.08.0
 _ZN6Marble24GeoDataLineStringPrivate4copyEv@Base 4:15.08.0
 _ZN6Marble24GeoDataLineStringPrivateD0Ev@Base 4:15.08.0
 _ZN6Marble24GeoDataLineStringPrivateD1Ev@Base 4:15.08.0
 _ZN6Marble24GeoDataLineStringPrivateD2Ev@Base 4:15.08.0
 _ZN6Marble24GeoDataLinearRingPrivate4copyEv@Base 4:15.08.0
 _ZN6Marble24GeoDataLinearRingPrivateD0Ev@Base 4:15.08.0
 _ZN6Marble24GeoDataLinearRingPrivateD1Ev@Base 4:15.08.0
 _ZN6Marble24GeoDataLinearRingPrivateD2Ev@Base 4:15.08.0
 _ZN6Marble24GeoDataMultiTrackPrivate4copyEv@Base 4:15.08.0
 _ZN6Marble24GeoDataMultiTrackPrivateD0Ev@Base 4:15.08.0
 _ZN6Marble24GeoDataMultiTrackPrivateD1Ev@Base 4:15.08.0
 _ZN6Marble24GeoDataMultiTrackPrivateD2Ev@Base 4:15.08.0
 _ZN6Marble24GeoDataViewVolumePrivateC1Ev@Base 4:15.08.0
 _ZN6Marble24GeoDataViewVolumePrivateC2Ev@Base 4:15.08.0
 _ZN6Marble24KmlBalloonStyleTagWriterD0Ev@Base 4:15.08.0
 _ZN6Marble24KmlBalloonStyleTagWriterD1Ev@Base 4:15.08.0
 _ZN6Marble24KmlBalloonStyleTagWriterD2Ev@Base 4:15.08.0
 _ZN6Marble24KmlExtendedDataTagWriterD0Ev@Base 4:15.08.0
 _ZN6Marble24KmlExtendedDataTagWriterD1Ev@Base 4:15.08.0
 _ZN6Marble24KmlExtendedDataTagWriterD2Ev@Base 4:15.08.0
 _ZN6Marble24LabelGraphicsItemPrivate4fontEv@Base 4:15.08.0
 _ZN6Marble24LabelGraphicsItemPrivateC1EPNS_17LabelGraphicsItemE@Base 4:15.08.0
 _ZN6Marble24LabelGraphicsItemPrivateC2EPNS_17LabelGraphicsItemE@Base 4:15.08.0
 _ZN6Marble24MarbleAboutDialogPrivate16loadPageContentsEi@Base 4:15.08.0
 _ZN6Marble24MarbleAboutDialogPrivateC1Ev@Base 4:15.08.0
 _ZN6Marble24MarbleAboutDialogPrivateC2Ev@Base 4:15.08.0
 _ZN6Marble24MarbleGraphicsGridLayout10setSpacingEi@Base 4:15.08.0
 _ZN6Marble24MarbleGraphicsGridLayout12setAlignmentE6QFlagsIN2Qt13AlignmentFlagEE@Base 4:15.08.0
 _ZN6Marble24MarbleGraphicsGridLayout12setAlignmentEPNS_18ScreenGraphicsItemE6QFlagsIN2Qt13AlignmentFlagEE@Base 4:15.08.0
 _ZN6Marble24MarbleGraphicsGridLayout15updatePositionsEPNS_18MarbleGraphicsItemE@Base 4:15.08.0
 _ZN6Marble24MarbleGraphicsGridLayout7addItemEPNS_18ScreenGraphicsItemEii@Base 4:15.08.0
 _ZN6Marble24MarbleGraphicsGridLayoutC1Eii@Base 4:15.08.0
 _ZN6Marble24MarbleGraphicsGridLayoutC2Eii@Base 4:15.08.0
 _ZN6Marble24MarbleGraphicsGridLayoutD0Ev@Base 4:15.08.0
 _ZN6Marble24MarbleGraphicsGridLayoutD1Ev@Base 4:15.08.0
 _ZN6Marble24MarbleGraphicsGridLayoutD2Ev@Base 4:15.08.0
 _ZN6Marble24MarbleWidgetInputHandler11qt_metacallEN11QMetaObject4CallEiPPv@Base 4:15.08.0
 _ZN6Marble24MarbleWidgetInputHandler11qt_metacastEPKc@Base 4:15.08.0
 _ZN6Marble24MarbleWidgetInputHandler11showLmbMenuEii@Base 4:15.08.0
 _ZN6Marble24MarbleWidgetInputHandler11showRmbMenuEii@Base 4:15.08.0
 _ZN6Marble24MarbleWidgetInputHandler15openItemToolTipEv@Base 4:15.08.0
 _ZN6Marble24MarbleWidgetInputHandler15selectionRubberEv@Base 4:15.08.0
 _ZN6Marble24MarbleWidgetInputHandler16staticMetaObjectE@Base 4:15.08.0
 _ZN6Marble24MarbleWidgetInputHandler17layersEventFilterEP7QObjectP6QEvent@Base 4:15.08.0
 _ZN6Marble24MarbleWidgetInputHandler24installPluginEventFilterEPNS_12RenderPluginE@Base 4:15.08.0
 _ZN6Marble24MarbleWidgetInputHandler9setCursorERK7QCursor@Base 4:15.08.0
 _ZN6Marble24MarbleWidgetInputHandlerC1EPNS_23MarbleAbstractPresenterEPNS_12MarbleWidgetE@Base 4:15.08.0
 _ZN6Marble24MarbleWidgetInputHandlerC2EPNS_23MarbleAbstractPresenterEPNS_12MarbleWidgetE@Base 4:15.08.0
 _ZN6Marble24MarbleWidgetInputHandlerD0Ev@Base 4:15.08.0
 _ZN6Marble24MarbleWidgetInputHandlerD1Ev@Base 4:15.08.0
 _ZN6Marble24MarbleWidgetInputHandlerD2Ev@Base 4:15.08.0
 _ZN6Marble24QuickItemSelectionRubber11setGeometryERK5QRect@Base 4:15.08.0
 _ZN6Marble24QuickItemSelectionRubber4hideEv@Base 4:15.08.0
 _ZN6Marble24QuickItemSelectionRubber4showEv@Base 4:15.08.0
 _ZN6Marble24QuickItemSelectionRubberD0Ev@Base 4:15.08.0
 _ZN6Marble24QuickItemSelectionRubberD1Ev@Base 4:15.08.0
 _ZN6Marble24QuickItemSelectionRubberD2Ev@Base 4:15.08.0
 _ZN6Marble24TileScalingTextureMapper10mapTextureEPNS_10GeoPainterEPKNS_14ViewportParamsEiPNS_16TextureColorizerE@Base 4:15.08.0
 _ZN6Marble24TileScalingTextureMapper10mapTextureEPNS_10GeoPainterEPKNS_14ViewportParamsEiRK5QRectPNS_16TextureColorizerE@Base 4:15.08.0
 _ZN6Marble24TileScalingTextureMapper11qt_metacallEN11QMetaObject4CallEiPPv@Base 4:15.08.0
 _ZN6Marble24TileScalingTextureMapper11qt_metacastEPKc@Base 4:15.08.0
 _ZN6Marble24TileScalingTextureMapper12clearPixmapsEv@Base 4:15.08.0
 _ZN6Marble24TileScalingTextureMapper12removePixmapERKNS_6TileIdE@Base 4:15.08.0
 _ZN6Marble24TileScalingTextureMapper16staticMetaObjectE@Base 4:15.08.0
 _ZN6Marble24TileScalingTextureMapperC1EPNS_17StackedTileLoaderEP7QObject@Base 4:15.08.0
 _ZN6Marble24TileScalingTextureMapperC2EPNS_17StackedTileLoaderEP7QObject@Base 4:15.08.0
 _ZN6Marble24TileScalingTextureMapperD0Ev@Base 4:15.08.0
 _ZN6Marble24TileScalingTextureMapperD1Ev@Base 4:15.08.0
 _ZN6Marble24TileScalingTextureMapperD2Ev@Base 4:15.08.0
 _ZN6Marble25AbstractProjectionPrivateC1EPNS_18AbstractProjectionE@Base 4:15.08.0
 _ZN6Marble25AbstractProjectionPrivateC2EPNS_18AbstractProjectionE@Base 4:15.08.0
 _ZN6Marble25AbstractProjectionPrivateD0Ev@Base 4:15.08.0
 _ZN6Marble25AbstractProjectionPrivateD1Ev@Base 4:15.08.0
 _ZN6Marble25AbstractProjectionPrivateD2Ev@Base 4:15.08.0
 _ZN6Marble25EditBookmarkDialogPrivate10initializeEv@Base 4:15.08.0
 _ZN6Marble25EditBookmarkDialogPrivate12initComboBoxEPKNS_16GeoDataContainerE@Base 4:15.08.0
 _ZN6Marble25EditBookmarkDialogPrivate13setFolderNameERK7QString@Base 4:15.08.0
 _ZN6Marble25EditBookmarkDialogPrivate17updateCoordinatesEv@Base 4:15.08.0
 _ZN6Marble25EditBookmarkDialogPrivate19openNewFolderDialogEv@Base 4:15.08.0
 _ZN6Marble25EditBookmarkDialogPrivate21retrieveGeocodeResultERKNS_18GeoDataCoordinatesERKNS_16GeoDataPlacemarkE@Base 4:15.08.0
 _ZN6Marble25EditBookmarkDialogPrivate6appendERK7QStringS3_@Base 4:15.08.0
 _ZN6Marble25EditBookmarkDialogPrivateC1EPNS_18EditBookmarkDialogEPNS_15BookmarkManagerE@Base 4:15.08.0
 _ZN6Marble25EditBookmarkDialogPrivateC2EPNS_18EditBookmarkDialogEPNS_15BookmarkManagerE@Base 4:15.08.0
 _ZN6Marble25GeoDataCoordinatesPrivate12lonLatToZoneEdd@Base 4:15.08.0
 _ZN6Marble25GeoDataCoordinatesPrivate13mapLonLatToXYEddd@Base 4:15.08.0
 _ZN6Marble25GeoDataCoordinatesPrivate15lonLatToEastingEdd@Base 4:15.08.0
 _ZN6Marble25GeoDataCoordinatesPrivate16lonLatToNorthingEdd@Base 4:15.08.0
 _ZN6Marble25GeoDataCoordinatesPrivate16sm_semiMajorAxisE@Base 4:15.08.0
 _ZN6Marble25GeoDataCoordinatesPrivate16sm_semiMinorAxisE@Base 4:15.08.0
 _ZN6Marble25GeoDataCoordinatesPrivate17footpointLatitudeEd@Base 4:15.08.0
 _ZN6Marble25GeoDataCoordinatesPrivate17sm_utmScaleFactorE@Base 4:15.08.0
 _ZN6Marble25GeoDataCoordinatesPrivate18centralMeridianUTMEd@Base 4:15.08.0
 _ZN6Marble25GeoDataCoordinatesPrivate19arcLengthOfMeridianEd@Base 4:15.08.0
 _ZN6Marble25GeoDataCoordinatesPrivate20lonLatToLatitudeBandEdd@Base 4:15.08.0
 _ZN6Marble25GeoDataCoordinatesPrivate22sm_eccentricitySquaredE@Base 4:15.08.0
 _ZN6Marble25GeoDataCoordinatesPrivate9basePointERKNS_10QuaternionES3_S3_@Base 4:15.08.0
 _ZN6Marble25GeoDataNetworkLinkControl10setExpiresERK9QDateTime@Base 4:15.08.0
 _ZN6Marble25GeoDataNetworkLinkControl10setMessageERK7QString@Base 4:15.08.0
 _ZN6Marble25GeoDataNetworkLinkControl11setLinkNameERK7QString@Base 4:15.08.0
 _ZN6Marble25GeoDataNetworkLinkControl11setMaxLinesERKi@Base 4:15.08.0
 _ZN6Marble25GeoDataNetworkLinkControl14setLinkSnippetERK7QString@Base 4:15.08.0
 _ZN6Marble25GeoDataNetworkLinkControl15setAbstractViewEPNS_19GeoDataAbstractViewE@Base 4:15.08.0
 _ZN6Marble25GeoDataNetworkLinkControl18setLinkDescriptionERK7QString@Base 4:15.08.0
 _ZN6Marble25GeoDataNetworkLinkControl19setMaxSessionLengthERKd@Base 4:15.08.0
 _ZN6Marble25GeoDataNetworkLinkControl19setMinRefreshPeriodERKd@Base 4:15.08.0
 _ZN6Marble25GeoDataNetworkLinkControl6updateEv@Base 4:15.08.0
 _ZN6Marble25GeoDataNetworkLinkControl9setCookieERK7QString@Base 4:15.08.0
 _ZN6Marble25GeoDataNetworkLinkControl9setUpdateERKNS_13GeoDataUpdateE@Base 4:15.08.0
 _ZN6Marble25GeoDataNetworkLinkControlC1ERKS0_@Base 4:15.08.0
 _ZN6Marble25GeoDataNetworkLinkControlC1Ev@Base 4:15.08.0
 _ZN6Marble25GeoDataNetworkLinkControlC2ERKS0_@Base 4:15.08.0
 _ZN6Marble25GeoDataNetworkLinkControlC2Ev@Base 4:15.08.0
 _ZN6Marble25GeoDataNetworkLinkControlD0Ev@Base 4:15.08.0
 _ZN6Marble25GeoDataNetworkLinkControlD1Ev@Base 4:15.08.0
 _ZN6Marble25GeoDataNetworkLinkControlD2Ev@Base 4:15.08.0
 _ZN6Marble25GeoDataNetworkLinkControlaSERKS0_@Base 4:15.08.0
 _ZN6Marble25GeoDataNetworkLinkPrivateC1Ev@Base 4:15.08.0
 _ZN6Marble25GeoDataNetworkLinkPrivateC2Ev@Base 4:15.08.0
 _ZN6Marble25GeoDataOrientationPrivateC1Ev@Base 4:15.08.0
 _ZN6Marble25GeoDataOrientationPrivateC2Ev@Base 4:15.08.0
 _ZN6Marble25GeoDataResourceMapPrivateC1Ev@Base 4:15.08.0
 _ZN6Marble25GeoDataResourceMapPrivateC2Ev@Base 4:15.08.0
 _ZN6Marble25GeoLineStringGraphicsItem13setLineStringEPKNS_17GeoDataLineStringE@Base 4:15.08.0
 _ZN6Marble25GeoLineStringGraphicsItem5paintEPNS_10GeoPainterEPKNS_14ViewportParamsE@Base 4:15.08.0
 _ZN6Marble25GeoLineStringGraphicsItemC1EPKNS_14GeoDataFeatureEPKNS_17GeoDataLineStringE@Base 4:15.08.0
 _ZN6Marble25GeoLineStringGraphicsItemC2EPKNS_14GeoDataFeatureEPKNS_17GeoDataLineStringE@Base 4:15.08.0
 _ZN6Marble25GeoLineStringGraphicsItemD0Ev@Base 4:15.08.0
 _ZN6Marble25GeoLineStringGraphicsItemD1Ev@Base 4:15.08.0
 _ZN6Marble25GeoLineStringGraphicsItemD2Ev@Base 4:15.08.0
 _ZN6Marble25GnomonicProjectionPrivateC1EPNS_18GnomonicProjectionE@Base 4:15.08.0
 _ZN6Marble25GnomonicProjectionPrivateC2EPNS_18GnomonicProjectionE@Base 4:15.08.0
 _ZN6Marble25GnomonicProjectionPrivateD0Ev@Base 4:15.08.0
 _ZN6Marble25GnomonicProjectionPrivateD1Ev@Base 4:15.08.0
 _ZN6Marble25GnomonicProjectionPrivateD2Ev@Base 4:15.08.0
 _ZN6Marble25InstructionTransformation7processERK7QVectorINS_15RoutingWaypointEE@Base 4:15.08.0
 _ZN6Marble25KmlMultiGeometryTagWriterD0Ev@Base 4:15.08.0
 _ZN6Marble25KmlMultiGeometryTagWriterD1Ev@Base 4:15.08.0
 _ZN6Marble25KmlMultiGeometryTagWriterD2Ev@Base 4:15.08.0
 _ZN6Marble25MarbleDefaultInputHandler10lmbTimeoutEv@Base 4:15.08.0
 _ZN6Marble25MarbleDefaultInputHandler11acceptMouseEv@Base 4:15.08.0
 _ZN6Marble25MarbleDefaultInputHandler11eventFilterEP7QObjectP6QEvent@Base 4:15.08.0
 _ZN6Marble25MarbleDefaultInputHandler11handlePinchE7QPointFdN2Qt12GestureStateE@Base 4:15.08.0
 _ZN6Marble25MarbleDefaultInputHandler11handleTouchEP11QTouchEvent@Base 4:15.08.0
 _ZN6Marble25MarbleDefaultInputHandler11handleWheelEP11QWheelEvent@Base 4:15.08.0
 _ZN6Marble25MarbleDefaultInputHandler11qt_metacallEN11QMetaObject4CallEiPPv@Base 4:15.08.0
 _ZN6Marble25MarbleDefaultInputHandler11qt_metacastEPKc@Base 4:15.08.0
 _ZN6Marble25MarbleDefaultInputHandler12toolTipTimerEv@Base 4:15.08.0
 _ZN6Marble25MarbleDefaultInputHandler13handleGestureEP13QGestureEvent@Base 4:15.08.0
 _ZN6Marble25MarbleDefaultInputHandler14handleKeyPressEP9QKeyEvent@Base 4:15.08.0
 _ZN6Marble25MarbleDefaultInputHandler14notifyPositionEbdd@Base 4:15.08.0
 _ZN6Marble25MarbleDefaultInputHandler15lastToolTipItemEv@Base 4:15.08.0
 _ZN6Marble25MarbleDefaultInputHandler15toolTipPositionEv@Base 4:15.08.0
 _ZN6Marble25MarbleDefaultInputHandler16handleMouseEventEP11QMouseEvent@Base 4:15.08.0
 _ZN6Marble25MarbleDefaultInputHandler16staticMetaObjectE@Base 4:15.08.0
 _ZN6Marble25MarbleDefaultInputHandler17adjustCursorShapeERK6QPointS3_@Base 4:15.08.0
 _ZN6Marble25MarbleDefaultInputHandler17checkReleasedMoveEP11QMouseEvent@Base 4:15.08.0
 _ZN6Marble25MarbleDefaultInputHandler17handleDoubleClickEP11QMouseEvent@Base 4:15.08.0
 _ZN6Marble25MarbleDefaultInputHandler17mouseMovedOutsideEP11QMouseEvent@Base 4:15.08.0
 _ZN6Marble25MarbleDefaultInputHandler22handleMouseButtonPressEP11QMouseEvent@Base 4:15.08.0
 _ZN6Marble25MarbleDefaultInputHandler24handleMouseButtonReleaseEP11QMouseEvent@Base 4:15.08.0
 _ZN6Marble25MarbleDefaultInputHandler26handleLeftMouseButtonPressEP11QMouseEvent@Base 4:15.08.0
 _ZN6Marble25MarbleDefaultInputHandler27handleRightMouseButtonPressEP11QMouseEvent@Base 4:15.08.0
 _ZN6Marble25MarbleDefaultInputHandler27hideSelectionIfCtrlReleasedEP6QEvent@Base 4:15.08.0
 _ZN6Marble25MarbleDefaultInputHandler28handleMiddleMouseButtonPressEP11QMouseEvent@Base 4:15.08.0
 _ZN6Marble25MarbleDefaultInputHandler7PrivateC1Ev@Base 4:15.08.0
 _ZN6Marble25MarbleDefaultInputHandler7PrivateC2Ev@Base 4:15.08.0
 _ZN6Marble25MarbleDefaultInputHandler7PrivateD1Ev@Base 4:15.08.0
 _ZN6Marble25MarbleDefaultInputHandler7PrivateD2Ev@Base 4:15.08.0
 _ZN6Marble25MarbleDefaultInputHandlerC1EPNS_23MarbleAbstractPresenterE@Base 4:15.08.0
 _ZN6Marble25MarbleDefaultInputHandlerC2EPNS_23MarbleAbstractPresenterE@Base 4:15.08.0
 _ZN6Marble25MarbleDefaultInputHandlerD0Ev@Base 4:15.08.0
 _ZN6Marble25MarbleDefaultInputHandlerD1Ev@Base 4:15.08.0
 _ZN6Marble25MarbleDefaultInputHandlerD2Ev@Base 4:15.08.0
 _ZN6Marble25MarbleGraphicsItemPrivate20updateChildPositionsEv@Base 4:15.08.0
 _ZN6Marble25MarbleGraphicsItemPrivateD0Ev@Base 4:15.08.0
 _ZN6Marble25MarbleGraphicsItemPrivateD1Ev@Base 4:15.08.0
 _ZN6Marble25MarbleGraphicsItemPrivateD2Ev@Base 4:15.08.0
 _ZN6Marble25RoutingInputWidgetPrivate10adjustTextEv@Base 4:15.08.0
 _ZN6Marble25RoutingInputWidgetPrivate10createMenuEPNS_18RoutingInputWidgetE@Base 4:15.08.0
 _ZN6Marble25RoutingInputWidgetPrivate17updateDescriptionEv@Base 4:15.08.0
 _ZN6Marble25RoutingInputWidgetPrivate18createBookmarkMenuEPNS_18RoutingInputWidgetE@Base 4:15.08.0
 _ZN6Marble25RoutingInputWidgetPrivate20addDropDownIndicatorERK7QPixmap@Base 4:15.08.0
 _ZN6Marble25RoutingInputWidgetPrivate21createBookmarkActionsEP5QMenuPNS_13GeoDataFolderEP7QObject@Base 4:15.08.0
 _ZN6Marble25RoutingInputWidgetPrivateC1EPNS_11MarbleModelEiP7QWidget@Base 4:15.08.0
 _ZN6Marble25RoutingInputWidgetPrivateC2EPNS_11MarbleModelEiP7QWidget@Base 4:15.08.0
 _ZN6Marble25ScreenGraphicsItemPrivate13setProjectionEPKNS_14ViewportParamsE@Base 4:15.08.0
 _ZN6Marble25ScreenGraphicsItemPrivateD0Ev@Base 4:15.08.0
 _ZN6Marble25ScreenGraphicsItemPrivateD1Ev@Base 4:15.08.0
 _ZN6Marble25ScreenGraphicsItemPrivateD2Ev@Base 4:15.08.0
 _ZN6Marble25ScreenOverlayGraphicsItem10pixelValueENS_11GeoDataVec24UnitEddd@Base 4:15.08.0
 _ZN6Marble25ScreenOverlayGraphicsItem13setProjectionEPKNS_14ViewportParamsE@Base 4:15.08.0
 _ZN6Marble25ScreenOverlayGraphicsItem5paintEP8QPainter@Base 4:15.08.0
 _ZN6Marble25ScreenOverlayGraphicsItemC1EPKNS_20GeoDataScreenOverlayE@Base 4:15.08.0
 _ZN6Marble25ScreenOverlayGraphicsItemC2EPKNS_20GeoDataScreenOverlayE@Base 4:15.08.0
 _ZN6Marble25ScreenOverlayGraphicsItemD0Ev@Base 4:15.08.0
 _ZN6Marble25ScreenOverlayGraphicsItemD1Ev@Base 4:15.08.0
 _ZN6Marble25ScreenOverlayGraphicsItemD2Ev@Base 4:15.08.0
 _ZN6Marble25WidgetGraphicsItemPrivateC1Ev@Base 4:15.08.0
 _ZN6Marble25WidgetGraphicsItemPrivateC2Ev@Base 4:15.08.0
 _ZN6Marble25WidgetGraphicsItemPrivateD1Ev@Base 4:15.08.0
 _ZN6Marble25WidgetGraphicsItemPrivateD2Ev@Base 4:15.08.0
 _ZN6Marble26AzimuthalProjectionPrivateD0Ev@Base 4:15.08.0
 _ZN6Marble26AzimuthalProjectionPrivateD1Ev@Base 4:15.08.0
 _ZN6Marble26AzimuthalProjectionPrivateD2Ev@Base 4:15.08.0
 _ZN6Marble26GeoDataAbstractViewPrivateC1Ev@Base 4:15.08.0
 _ZN6Marble26GeoDataAbstractViewPrivateC2Ev@Base 4:15.08.0
 _ZN6Marble26GeoDataBalloonStylePrivateC1Ev@Base 4:15.08.0
 _ZN6Marble26GeoDataBalloonStylePrivateC2Ev@Base 4:15.08.0
 _ZN6Marble26GeoDataImagePyramidPrivateC1Ev@Base 4:15.08.0
 _ZN6Marble26GeoDataImagePyramidPrivateC2Ev@Base 4:15.08.0
 _ZN6Marble26GeoDataPhotoOverlayPrivateC1Ev@Base 4:15.08.0
 _ZN6Marble26GeoDataPhotoOverlayPrivateC2Ev@Base 4:15.08.0
 _ZN6Marble26KmlAnimatedUpdateTagWriterD0Ev@Base 4:15.08.0
 _ZN6Marble26KmlAnimatedUpdateTagWriterD1Ev@Base 4:15.08.0
 _ZN6Marble26KmlAnimatedUpdateTagWriterD2Ev@Base 4:15.08.0
 _ZN6Marble26LambertAzimuthalProjectionC1EPNS_33LambertAzimuthalProjectionPrivateE@Base 4:15.08.0
 _ZN6Marble26LambertAzimuthalProjectionC1Ev@Base 4:15.08.0
 _ZN6Marble26LambertAzimuthalProjectionC2EPNS_33LambertAzimuthalProjectionPrivateE@Base 4:15.08.0
 _ZN6Marble26LambertAzimuthalProjectionC2Ev@Base 4:15.08.0
 _ZN6Marble26LambertAzimuthalProjectionD0Ev@Base 4:15.08.0
 _ZN6Marble26LambertAzimuthalProjectionD1Ev@Base 4:15.08.0
 _ZN6Marble26LambertAzimuthalProjectionD2Ev@Base 4:15.08.0
 _ZN6Marble26MarblePluginSettingsWidget11qt_metacallEN11QMetaObject4CallEiPPv@Base 4:15.08.0
 _ZN6Marble26MarblePluginSettingsWidget11qt_metacastEPKc@Base 4:15.08.0
 _ZN6Marble26MarblePluginSettingsWidget12setAboutIconERK5QIcon@Base 4:15.08.0
 _ZN6Marble26MarblePluginSettingsWidget13setConfigIconERK5QIcon@Base 4:15.08.0
 _ZN6Marble26MarblePluginSettingsWidget16staticMetaObjectE@Base 4:15.08.0
 _ZN6Marble26MarblePluginSettingsWidget21pluginListViewClickedEv@Base 4:15.08.0
 _ZN6Marble26MarblePluginSettingsWidget8setModelEPNS_17RenderPluginModelE@Base 4:15.08.0
 _ZN6Marble26MarblePluginSettingsWidgetC1EP7QWidget@Base 4:15.08.0
 _ZN6Marble26MarblePluginSettingsWidgetC2EP7QWidget@Base 4:15.08.0
 _ZN6Marble26MarblePluginSettingsWidgetD0Ev@Base 4:15.08.0
 _ZN6Marble26MarblePluginSettingsWidgetD1Ev@Base 4:15.08.0
 _ZN6Marble26MarblePluginSettingsWidgetD2Ev@Base 4:15.08.0
 _ZN6Marble26PlacemarkEditHeaderPrivate11setIconLinkERK7QString@Base 4:15.08.0
 _ZN6Marble26PlacemarkEditHeaderPrivate11setIdFilterERK11QStringList@Base 4:15.08.0
 _ZN6Marble26PlacemarkEditHeaderPrivate11setLatitudeEd@Base 4:15.08.0
 _ZN6Marble26PlacemarkEditHeaderPrivate11setNotationENS_18GeoDataCoordinates8NotationE@Base 4:15.08.0
 _ZN6Marble26PlacemarkEditHeaderPrivate11setTargetIdERK7QString@Base 4:15.08.0
 _ZN6Marble26PlacemarkEditHeaderPrivate12loadIconFileEv@Base 4:15.08.0
 _ZN6Marble26PlacemarkEditHeaderPrivate12setIdVisibleEb@Base 4:15.08.0
 _ZN6Marble26PlacemarkEditHeaderPrivate12setLongitudeEd@Base 4:15.08.0
 _ZN6Marble26PlacemarkEditHeaderPrivate12updateValuesEv@Base 4:15.08.0
 _ZN6Marble26PlacemarkEditHeaderPrivate15setTargetIdListERK11QStringList@Base 4:15.08.0
 _ZN6Marble26PlacemarkEditHeaderPrivate18setPositionVisibleEb@Base 4:15.08.0
 _ZN6Marble26PlacemarkEditHeaderPrivate18setTargetIdVisibleEb@Base 4:15.08.0
 _ZN6Marble26PlacemarkEditHeaderPrivate4initEP7QWidget@Base 4:15.08.0
 _ZN6Marble26PlacemarkEditHeaderPrivate5setIdERK7QStringb@Base 4:15.08.0
 _ZN6Marble26PlacemarkEditHeaderPrivate7setNameERK7QString@Base 4:15.08.0
 _ZN6Marble26PlacemarkEditHeaderPrivate9selectAllEv@Base 4:15.08.0
 _ZN6Marble26PlacemarkEditHeaderPrivateC1EPNS_19PlacemarkEditHeaderE@Base 4:15.08.0
 _ZN6Marble26PlacemarkEditHeaderPrivateC2EPNS_19PlacemarkEditHeaderE@Base 4:15.08.0
 _ZN6Marble26PlacemarkEditHeaderPrivateD1Ev@Base 4:15.08.0
 _ZN6Marble26PlacemarkEditHeaderPrivateD2Ev@Base 4:15.08.0
 _ZN6Marble26PlaybackAnimatedUpdateItem11qt_metacallEN11QMetaObject4CallEiPPv@Base 4:15.08.0
 _ZN6Marble26PlaybackAnimatedUpdateItem11qt_metacastEPKc@Base 4:15.08.0
 _ZN6Marble26PlaybackAnimatedUpdateItem16staticMetaObjectE@Base 4:15.08.0
 _ZN6Marble26PlaybackAnimatedUpdateItem4playEv@Base 4:15.08.0
 _ZN6Marble26PlaybackAnimatedUpdateItem4seekEd@Base 4:15.08.0
 _ZN6Marble26PlaybackAnimatedUpdateItem4stopEv@Base 4:15.08.0
 _ZN6Marble26PlaybackAnimatedUpdateItem5pauseEv@Base 4:15.08.0
 _ZN6Marble26PlaybackAnimatedUpdateItemC1EPNS_21GeoDataAnimatedUpdateE@Base 4:15.08.0
 _ZN6Marble26PlaybackAnimatedUpdateItemC2EPNS_21GeoDataAnimatedUpdateE@Base 4:15.08.0
 _ZN6Marble26PlaybackAnimatedUpdateItemD0Ev@Base 4:15.08.0
 _ZN6Marble26PlaybackAnimatedUpdateItemD1Ev@Base 4:15.08.0
 _ZN6Marble26PlaybackAnimatedUpdateItemD2Ev@Base 4:15.08.0
 _ZN6Marble26SphericalProjectionPrivateC1EPNS_19SphericalProjectionE@Base 4:15.08.0
 _ZN6Marble26SphericalProjectionPrivateC2EPNS_19SphericalProjectionE@Base 4:15.08.0
 _ZN6Marble26SphericalProjectionPrivateD0Ev@Base 4:15.08.0
 _ZN6Marble26SphericalProjectionPrivateD1Ev@Base 4:15.08.0
 _ZN6Marble26SphericalProjectionPrivateD2Ev@Base 4:15.08.0
 _ZN6Marble27AdditiveSubtractiveBlendingD0Ev@Base 4:15.08.0
 _ZN6Marble27AdditiveSubtractiveBlendingD1Ev@Base 4:15.08.0
 _ZN6Marble27AdditiveSubtractiveBlendingD2Ev@Base 4:15.08.0
 _ZN6Marble27ExternalEditorDialogPrivateC1Ev@Base 4:15.08.0
 _ZN6Marble27ExternalEditorDialogPrivateC2Ev@Base 4:15.08.0
 _ZN6Marble27GeoDataGroundOverlayPrivateC1Ev@Base 4:15.08.0
 _ZN6Marble27GeoDataGroundOverlayPrivateC2Ev@Base 4:15.08.0
 _ZN6Marble27GeoDataMultiGeometryPrivate4copyEv@Base 4:15.08.0
 _ZN6Marble27GeoDataMultiGeometryPrivateD0Ev@Base 4:15.08.0
 _ZN6Marble27GeoDataMultiGeometryPrivateD1Ev@Base 4:15.08.0
 _ZN6Marble27GeoDataMultiGeometryPrivateD2Ev@Base 4:15.08.0
 _ZN6Marble27GeoDataScreenOverlayPrivateC1Ev@Base 4:15.08.0
 _ZN6Marble27GeoDataScreenOverlayPrivateC2Ev@Base 4:15.08.0
 _ZN6Marble27VoiceNavigationModelPrivate14initializeMapsEv@Base 4:15.08.0
 _ZN6Marble27VoiceNavigationModelPrivate17turnTypeAudioFileENS_8Maneuver9DirectionEd@Base 4:15.08.0
 _ZN6Marble27VoiceNavigationModelPrivate17updateInstructionERK7QString@Base 4:15.08.0
 _ZN6Marble27VoiceNavigationModelPrivate17updateInstructionEdNS_8Maneuver9DirectionE@Base 4:15.08.0
 _ZN6Marble27VoiceNavigationModelPrivate5resetEv@Base 4:15.08.0
 _ZN6Marble27VoiceNavigationModelPrivateC1EPNS_20VoiceNavigationModelE@Base 4:15.08.0
 _ZN6Marble27VoiceNavigationModelPrivateC2EPNS_20VoiceNavigationModelE@Base 4:15.08.0
 _ZN6Marble28AbstractMarbleGraphicsLayoutC1Ev@Base 4:15.08.0
 _ZN6Marble28AbstractMarbleGraphicsLayoutC2Ev@Base 4:15.08.0
 _ZN6Marble28AbstractMarbleGraphicsLayoutD0Ev@Base 4:15.08.0
 _ZN6Marble28AbstractMarbleGraphicsLayoutD1Ev@Base 4:15.08.0
 _ZN6Marble28AbstractMarbleGraphicsLayoutD2Ev@Base 4:15.08.0
 _ZN6Marble28BookmarkManagerDialogPrivate12addNewFolderEv@Base 4:15.08.0
 _ZN6Marble28BookmarkManagerDialogPrivate12deleteFolderEv@Base 4:15.08.0
 _ZN6Marble28BookmarkManagerDialogPrivate12editBookmarkEv@Base 4:15.08.0
 _ZN6Marble28BookmarkManagerDialogPrivate12renameFolderEv@Base 4:15.08.0
 _ZN6Marble28BookmarkManagerDialogPrivate12selectFolderERK7QStringRK11QModelIndex@Base 4:15.08.0
 _ZN6Marble28BookmarkManagerDialogPrivate14deleteBookmarkEv@Base 4:15.08.0
 _ZN6Marble28BookmarkManagerDialogPrivate14discardChangesEv@Base 4:15.08.0
 _ZN6Marble28BookmarkManagerDialogPrivate14selectedFolderEv@Base 4:15.08.0
 _ZN6Marble28BookmarkManagerDialogPrivate17updateButtonStateEv@Base 4:15.08.0
 _ZN6Marble28BookmarkManagerDialogPrivate21handleFolderSelectionERK11QModelIndex@Base 4:15.08.0
 _ZN6Marble28BookmarkManagerDialogPrivate21initializeFoldersViewEPNS_16GeoDataTreeModelE@Base 4:15.08.0
 _ZN6Marble28BookmarkManagerDialogPrivate23initializeBookmarksViewEPNS_16GeoDataTreeModelE@Base 4:15.08.0
 _ZN6Marble28BookmarkManagerDialogPrivateC1EPNS_21BookmarkManagerDialogEPNS_11MarbleModelE@Base 4:15.08.0
 _ZN6Marble28BookmarkManagerDialogPrivateC2EPNS_21BookmarkManagerDialogEPNS_11MarbleModelE@Base 4:15.08.0
 _ZN6Marble28CurrentLocationWidgetPrivate10clearTrackEv@Base 4:15.08.0
 _ZN6Marble28CurrentLocationWidgetPrivate14trackPlacemarkEv@Base 4:15.08.0
 _ZN6Marble28CurrentLocationWidgetPrivate18updateGuidanceModeEv@Base 4:15.08.0
 _ZN6Marble28CurrentLocationWidgetPrivate21receiveGpsCoordinatesERKNS_18GeoDataCoordinatesEd@Base 4:15.08.0
 _ZN6Marble28CurrentLocationWidgetPrivate22changePositionProviderERK7QString@Base 4:15.08.0
 _ZN6Marble28CurrentLocationWidgetPrivate22updateAutoZoomCheckBoxEb@Base 4:15.08.0
 _ZN6Marble28CurrentLocationWidgetPrivate22updateRecenterComboBoxENS_14AutoNavigation10CenterModeE@Base 4:15.08.0
 _ZN6Marble28CurrentLocationWidgetPrivate23centerOnCurrentLocationEv@Base 4:15.08.0
 _ZN6Marble28CurrentLocationWidgetPrivate28adjustPositionTrackingStatusENS_22PositionProviderStatusE@Base 4:15.08.0
 _ZN6Marble28CurrentLocationWidgetPrivate28updateActivePositionProviderEPNS_22PositionProviderPluginE@Base 4:15.08.0
 _ZN6Marble28CurrentLocationWidgetPrivate9openTrackEv@Base 4:15.08.0
 _ZN6Marble28CurrentLocationWidgetPrivate9saveTrackEv@Base 4:15.08.0
 _ZN6Marble28CurrentLocationWidgetPrivateC1Ev@Base 4:15.08.0
 _ZN6Marble28CurrentLocationWidgetPrivateC2Ev@Base 4:15.08.0
 _ZN6Marble28CylindricalProjectionPrivate13crossDateLineERKNS_18GeoDataCoordinatesES3_ddR7QVectorIP9QPolygonFEid@Base 4:15.08.0
 _ZN6Marble28CylindricalProjectionPrivate17translatePolygonsERK7QVectorIP9QPolygonFERS4_d@Base 4:15.08.0
 _ZN6Marble28CylindricalProjectionPrivateC1EPNS_21CylindricalProjectionE@Base 4:15.08.0
 _ZN6Marble28CylindricalProjectionPrivateC2EPNS_21CylindricalProjectionE@Base 4:15.08.0
 _ZN6Marble28CylindricalProjectionPrivateD0Ev@Base 4:15.08.0
 _ZN6Marble28CylindricalProjectionPrivateD1Ev@Base 4:15.08.0
 _ZN6Marble28CylindricalProjectionPrivateD2Ev@Base 4:15.08.0
 _ZN6Marble28DialogConfigurationInterfaceD0Ev@Base 4:15.08.0
 _ZN6Marble28DialogConfigurationInterfaceD1Ev@Base 4:15.08.0
 _ZN6Marble28DialogConfigurationInterfaceD2Ev@Base 4:15.08.0
 _ZN6Marble28GenericScanlineTextureMapper10mapTextureEPKNS_14ViewportParamsEiNS_10MapQualityE@Base 4:15.08.0
 _ZN6Marble28GenericScanlineTextureMapper10mapTextureEPNS_10GeoPainterEPKNS_14ViewportParamsEiRK5QRectPNS_16TextureColorizerE@Base 4:15.08.0
 _ZN6Marble28GenericScanlineTextureMapper9RenderJob3runEv@Base 4:15.08.0
 _ZN6Marble28GenericScanlineTextureMapper9RenderJobC1EPNS_17StackedTileLoaderEiP6QImagePKNS_14ViewportParamsENS_10MapQualityEii@Base 4:15.08.0
 _ZN6Marble28GenericScanlineTextureMapper9RenderJobC2EPNS_17StackedTileLoaderEiP6QImagePKNS_14ViewportParamsENS_10MapQualityEii@Base 4:15.08.0
 _ZN6Marble28GenericScanlineTextureMapper9RenderJobD0Ev@Base 4:15.08.0
 _ZN6Marble28GenericScanlineTextureMapper9RenderJobD1Ev@Base 4:15.08.0
 _ZN6Marble28GenericScanlineTextureMapper9RenderJobD2Ev@Base 4:15.08.0
 _ZN6Marble28GenericScanlineTextureMapperC1EPNS_17StackedTileLoaderE@Base 4:15.08.0
 _ZN6Marble28GenericScanlineTextureMapperC2EPNS_17StackedTileLoaderE@Base 4:15.08.0
 _ZN6Marble28GenericScanlineTextureMapperD0Ev@Base 4:15.08.0
 _ZN6Marble28GenericScanlineTextureMapperD1Ev@Base 4:15.08.0
 _ZN6Marble28GenericScanlineTextureMapperD2Ev@Base 4:15.08.0
 _ZN6Marble28GeoDataAnimatedUpdatePrivateC1Ev@Base 4:15.08.0
 _ZN6Marble28GeoDataAnimatedUpdatePrivateC2Ev@Base 4:15.08.0
 _ZN6Marble28MapThemeSortFilterProxyModel10isFavoriteERK11QModelIndex@Base 4:15.08.0
 _ZN6Marble28MapThemeSortFilterProxyModel11qt_metacallEN11QMetaObject4CallEiPPv@Base 4:15.08.0
 _ZN6Marble28MapThemeSortFilterProxyModel11qt_metacastEPKc@Base 4:15.08.0
 _ZN6Marble28MapThemeSortFilterProxyModel16favoriteDateTimeERK11QModelIndex@Base 4:15.08.0
 _ZN6Marble28MapThemeSortFilterProxyModel16staticMetaObjectE@Base 4:15.08.0
 _ZN6Marble28MapThemeSortFilterProxyModelC1EP7QObject@Base 4:15.08.0
 _ZN6Marble28MapThemeSortFilterProxyModelC2EP7QObject@Base 4:15.08.0
 _ZN6Marble28MapThemeSortFilterProxyModelD0Ev@Base 4:15.08.0
 _ZN6Marble28MapThemeSortFilterProxyModelD1Ev@Base 4:15.08.0
 _ZN6Marble28MapThemeSortFilterProxyModelD2Ev@Base 4:15.08.0
 _ZN6Marble28ReverseGeocodingRunnerPlugin11qt_metacallEN11QMetaObject4CallEiPPv@Base 4:15.08.0
 _ZN6Marble28ReverseGeocodingRunnerPlugin11qt_metacastEPKc@Base 4:15.08.0
 _ZN6Marble28ReverseGeocodingRunnerPlugin16staticMetaObjectE@Base 4:15.08.0
 _ZN6Marble28ReverseGeocodingRunnerPlugin17setCanWorkOfflineEb@Base 4:15.08.0
 _ZN6Marble28ReverseGeocodingRunnerPlugin27setSupportedCelestialBodiesERK11QStringList@Base 4:15.08.0
 _ZN6Marble28ReverseGeocodingRunnerPlugin7PrivateC1Ev@Base 4:15.08.0
 _ZN6Marble28ReverseGeocodingRunnerPlugin7PrivateC2Ev@Base 4:15.08.0
 _ZN6Marble28ReverseGeocodingRunnerPluginC1EP7QObject@Base 4:15.08.0
 _ZN6Marble28ReverseGeocodingRunnerPluginC2EP7QObject@Base 4:15.08.0
 _ZN6Marble28ReverseGeocodingRunnerPluginD0Ev@Base 4:15.08.0
 _ZN6Marble28ReverseGeocodingRunnerPluginD1Ev@Base 4:15.08.0
 _ZN6Marble28ReverseGeocodingRunnerPluginD2Ev@Base 4:15.08.0
 _ZN6Marble28RoutingProfileSettingsDialog11editProfileEi@Base 4:15.08.0
 _ZN6Marble28RoutingProfileSettingsDialog11qt_metacallEN11QMetaObject4CallEiPPv@Base 4:15.08.0
 _ZN6Marble28RoutingProfileSettingsDialog11qt_metacastEPKc@Base 4:15.08.0
 _ZN6Marble28RoutingProfileSettingsDialog16openConfigDialogEv@Base 4:15.08.0
 _ZN6Marble28RoutingProfileSettingsDialog16staticMetaObjectE@Base 4:15.08.0
 _ZN6Marble28RoutingProfileSettingsDialog18updateConfigWidgetEv@Base 4:15.08.0
 _ZN6Marble28RoutingProfileSettingsDialogC1EPKNS_13PluginManagerEPNS_20RoutingProfilesModelEP7QWidget@Base 4:15.08.0
 _ZN6Marble28RoutingProfileSettingsDialogC2EPKNS_13PluginManagerEPNS_20RoutingProfilesModelEP7QWidget@Base 4:15.08.0
 _ZN6Marble28RoutingProfileSettingsDialogD0Ev@Base 4:15.08.0
 _ZN6Marble28RoutingProfileSettingsDialogD1Ev@Base 4:15.08.0
 _ZN6Marble28RoutingProfileSettingsDialogD2Ev@Base 4:15.08.0
 _ZN6Marble28ScanlineTextureMapperContext10pixelValueEddPj@Base 4:15.08.0
 _ZN6Marble28ScanlineTextureMapperContext11pixelValueFEddPj@Base 4:15.08.0
 _ZN6Marble28ScanlineTextureMapperContext16pixelValueApproxEddPji@Base 4:15.08.0
 _ZN6Marble28ScanlineTextureMapperContext17interpolationStepEPKNS_14ViewportParamsENS_10MapQualityE@Base 4:15.08.0
 _ZN6Marble28ScanlineTextureMapperContext17pixelValueApproxFEddPji@Base 4:15.08.0
 _ZN6Marble28ScanlineTextureMapperContext24optimalCanvasImageFormatEPKNS_14ViewportParamsE@Base 4:15.08.0
 _ZN6Marble28ScanlineTextureMapperContext8nextTileERdS1_@Base 4:15.08.0
 _ZN6Marble28ScanlineTextureMapperContext8nextTileERiS1_@Base 4:15.08.0
 _ZN6Marble28ScanlineTextureMapperContextC1EPNS_17StackedTileLoaderEi@Base 4:15.08.0
 _ZN6Marble28ScanlineTextureMapperContextC2EPNS_17StackedTileLoaderEi@Base 4:15.08.0
 _ZN6Marble29AbstractDataPluginItemPrivateC1Ev@Base 4:15.08.0
 _ZN6Marble29AbstractDataPluginItemPrivateC2Ev@Base 4:15.08.0
 _ZN6Marble29CelestialSortFilterProxyModel11qt_metacallEN11QMetaObject4CallEiPPv@Base 4:15.08.0
 _ZN6Marble29CelestialSortFilterProxyModel11qt_metacastEPKc@Base 4:15.08.0
 _ZN6Marble29CelestialSortFilterProxyModel14setupMoonsListEv@Base 4:15.08.0
 _ZN6Marble29CelestialSortFilterProxyModel15setupDwarfsListEv@Base 4:15.08.0
 _ZN6Marble29CelestialSortFilterProxyModel15setupPrioritiesEv@Base 4:15.08.0
 _ZN6Marble29CelestialSortFilterProxyModel16staticMetaObjectE@Base 4:15.08.0
 _ZN6Marble29CelestialSortFilterProxyModelC1Ev@Base 4:15.08.0
 _ZN6Marble29CelestialSortFilterProxyModelC2Ev@Base 4:15.08.0
 _ZN6Marble29CelestialSortFilterProxyModelD0Ev@Base 4:15.08.0
 _ZN6Marble29CelestialSortFilterProxyModelD1Ev@Base 4:15.08.0
 _ZN6Marble29CelestialSortFilterProxyModelD2Ev@Base 4:15.08.0
 _ZN6Marble29EquirectScanlineTextureMapper10mapTextureEPKNS_14ViewportParamsEiNS_10MapQualityE@Base 4:15.08.0
 _ZN6Marble29EquirectScanlineTextureMapper10mapTextureEPNS_10GeoPainterEPKNS_14ViewportParamsEiRK5QRectPNS_16TextureColorizerE@Base 4:15.08.0
 _ZN6Marble29EquirectScanlineTextureMapper9RenderJob3runEv@Base 4:15.08.0
 _ZN6Marble29EquirectScanlineTextureMapper9RenderJobC1EPNS_17StackedTileLoaderEiP6QImagePKNS_14ViewportParamsENS_10MapQualityEii@Base 4:15.08.0
 _ZN6Marble29EquirectScanlineTextureMapper9RenderJobC2EPNS_17StackedTileLoaderEiP6QImagePKNS_14ViewportParamsENS_10MapQualityEii@Base 4:15.08.0
 _ZN6Marble29EquirectScanlineTextureMapper9RenderJobD0Ev@Base 4:15.08.0
 _ZN6Marble29EquirectScanlineTextureMapper9RenderJobD1Ev@Base 4:15.08.0
 _ZN6Marble29EquirectScanlineTextureMapper9RenderJobD2Ev@Base 4:15.08.0
 _ZN6Marble29EquirectScanlineTextureMapperC1EPNS_17StackedTileLoaderE@Base 4:15.08.0
 _ZN6Marble29EquirectScanlineTextureMapperC2EPNS_17StackedTileLoaderE@Base 4:15.08.0
 _ZN6Marble29EquirectScanlineTextureMapperD0Ev@Base 4:15.08.0
 _ZN6Marble29EquirectScanlineTextureMapperD1Ev@Base 4:15.08.0
 _ZN6Marble29EquirectScanlineTextureMapperD2Ev@Base 4:15.08.0
 _ZN6Marble29MercatorScanlineTextureMapper10mapTextureEPKNS_14ViewportParamsEiNS_10MapQualityE@Base 4:15.08.0
 _ZN6Marble29MercatorScanlineTextureMapper10mapTextureEPNS_10GeoPainterEPKNS_14ViewportParamsEiRK5QRectPNS_16TextureColorizerE@Base 4:15.08.0
 _ZN6Marble29MercatorScanlineTextureMapper9RenderJob3runEv@Base 4:15.08.0
 _ZN6Marble29MercatorScanlineTextureMapper9RenderJobC1EPNS_17StackedTileLoaderEiP6QImagePKNS_14ViewportParamsENS_10MapQualityEii@Base 4:15.08.0
 _ZN6Marble29MercatorScanlineTextureMapper9RenderJobC2EPNS_17StackedTileLoaderEiP6QImagePKNS_14ViewportParamsENS_10MapQualityEii@Base 4:15.08.0
 _ZN6Marble29MercatorScanlineTextureMapper9RenderJobD0Ev@Base 4:15.08.0
 _ZN6Marble29MercatorScanlineTextureMapper9RenderJobD1Ev@Base 4:15.08.0
 _ZN6Marble29MercatorScanlineTextureMapper9RenderJobD2Ev@Base 4:15.08.0
 _ZN6Marble29MercatorScanlineTextureMapperC1EPNS_17StackedTileLoaderE@Base 4:15.08.0
 _ZN6Marble29MercatorScanlineTextureMapperC2EPNS_17StackedTileLoaderE@Base 4:15.08.0
 _ZN6Marble29MercatorScanlineTextureMapperD0Ev@Base 4:15.08.0
 _ZN6Marble29MercatorScanlineTextureMapperD1Ev@Base 4:15.08.0
 _ZN6Marble29MercatorScanlineTextureMapperD2Ev@Base 4:15.08.0
 _ZN6Marble29ReverseGeocodingRunnerManager11qt_metacallEN11QMetaObject4CallEiPPv@Base 4:15.08.0
 _ZN6Marble29ReverseGeocodingRunnerManager11qt_metacastEPKc@Base 4:15.08.0
 _ZN6Marble29ReverseGeocodingRunnerManager16reverseGeocodingERKNS_18GeoDataCoordinatesE@Base 4:15.08.0
 _ZN6Marble29ReverseGeocodingRunnerManager16staticMetaObjectE@Base 4:15.08.0
 _ZN6Marble29ReverseGeocodingRunnerManager22searchReverseGeocodingERKNS_18GeoDataCoordinatesEi@Base 4:15.08.0
 _ZN6Marble29ReverseGeocodingRunnerManager24reverseGeocodingFinishedERKNS_18GeoDataCoordinatesERKNS_16GeoDataPlacemarkE@Base 4:15.08.0
 _ZN6Marble29ReverseGeocodingRunnerManager24reverseGeocodingFinishedEv@Base 4:15.08.0
 _ZN6Marble29ReverseGeocodingRunnerManager7Private25addReverseGeocodingResultERKNS_18GeoDataCoordinatesERKNS_16GeoDataPlacemarkE@Base 4:15.08.0
 _ZN6Marble29ReverseGeocodingRunnerManager7Private27cleanupReverseGeocodingTaskEPNS_20ReverseGeocodingTaskE@Base 4:15.08.0
 _ZN6Marble29ReverseGeocodingRunnerManager7PrivateC1EPS0_PKNS_11MarbleModelE@Base 4:15.08.0
 _ZN6Marble29ReverseGeocodingRunnerManager7PrivateC2EPS0_PKNS_11MarbleModelE@Base 4:15.08.0
 _ZN6Marble29ReverseGeocodingRunnerManagerC1EPKNS_11MarbleModelEP7QObject@Base 4:15.08.0
 _ZN6Marble29ReverseGeocodingRunnerManagerC2EPKNS_11MarbleModelEP7QObject@Base 4:15.08.0
 _ZN6Marble29ReverseGeocodingRunnerManagerD0Ev@Base 4:15.08.0
 _ZN6Marble29ReverseGeocodingRunnerManagerD1Ev@Base 4:15.08.0
 _ZN6Marble29ReverseGeocodingRunnerManagerD2Ev@Base 4:15.08.0
 _ZN6Marble29VerticalPerspectiveProjectionC1EPNS_36VerticalPerspectiveProjectionPrivateE@Base 4:15.08.0
 _ZN6Marble29VerticalPerspectiveProjectionC1Ev@Base 4:15.08.0
 _ZN6Marble29VerticalPerspectiveProjectionC2EPNS_36VerticalPerspectiveProjectionPrivateE@Base 4:15.08.0
 _ZN6Marble29VerticalPerspectiveProjectionC2Ev@Base 4:15.08.0
 _ZN6Marble29VerticalPerspectiveProjectionD0Ev@Base 4:15.08.0
 _ZN6Marble29VerticalPerspectiveProjectionD1Ev@Base 4:15.08.0
 _ZN6Marble29VerticalPerspectiveProjectionD2Ev@Base 4:15.08.0
 _ZN6Marble30AbstractDataPluginModelPrivate19updateFavoriteItemsEv@Base 4:15.08.0
 _ZN6Marble30AbstractDataPluginModelPrivateC1ERK7QStringPKNS_11MarbleModelEPNS_23AbstractDataPluginModelE@Base 4:15.08.0
 _ZN6Marble30AbstractDataPluginModelPrivateC2ERK7QStringPKNS_11MarbleModelEPNS_23AbstractDataPluginModelE@Base 4:15.08.0
 _ZN6Marble30AbstractDataPluginModelPrivateD1Ev@Base 4:15.08.0
 _ZN6Marble30AbstractDataPluginModelPrivateD2Ev@Base 4:15.08.0
 _ZN6Marble30AzimuthalEquidistantProjectionC1EPNS_37AzimuthalEquidistantProjectionPrivateE@Base 4:15.08.0
 _ZN6Marble30AzimuthalEquidistantProjectionC1Ev@Base 4:15.08.0
 _ZN6Marble30AzimuthalEquidistantProjectionC2EPNS_37AzimuthalEquidistantProjectionPrivateE@Base 4:15.08.0
 _ZN6Marble30AzimuthalEquidistantProjectionC2Ev@Base 4:15.08.0
 _ZN6Marble30AzimuthalEquidistantProjectionD0Ev@Base 4:15.08.0
 _ZN6Marble30AzimuthalEquidistantProjectionD1Ev@Base 4:15.08.0
 _ZN6Marble30AzimuthalEquidistantProjectionD2Ev@Base 4:15.08.0
 _ZN6Marble30KmlNetworkLinkControlTagWriterD0Ev@Base 4:15.08.0
 _ZN6Marble30KmlNetworkLinkControlTagWriterD1Ev@Base 4:15.08.0
 _ZN6Marble30KmlNetworkLinkControlTagWriterD2Ev@Base 4:15.08.0
 _ZN6Marble30SphericalScanlineTextureMapper10mapTextureEPKNS_14ViewportParamsEiNS_10MapQualityE@Base 4:15.08.0
 _ZN6Marble30SphericalScanlineTextureMapper10mapTextureEPNS_10GeoPainterEPKNS_14ViewportParamsEiRK5QRectPNS_16TextureColorizerE@Base 4:15.08.0
 _ZN6Marble30SphericalScanlineTextureMapper9RenderJob3runEv@Base 4:15.08.0
 _ZN6Marble30SphericalScanlineTextureMapper9RenderJobC1EPNS_17StackedTileLoaderEiP6QImagePKNS_14ViewportParamsENS_10MapQualityEii@Base 4:15.08.0
 _ZN6Marble30SphericalScanlineTextureMapper9RenderJobC2EPNS_17StackedTileLoaderEiP6QImagePKNS_14ViewportParamsENS_10MapQualityEii@Base 4:15.08.0
 _ZN6Marble30SphericalScanlineTextureMapper9RenderJobD0Ev@Base 4:15.08.0
 _ZN6Marble30SphericalScanlineTextureMapper9RenderJobD1Ev@Base 4:15.08.0
 _ZN6Marble30SphericalScanlineTextureMapper9RenderJobD2Ev@Base 4:15.08.0
 _ZN6Marble30SphericalScanlineTextureMapperC1EPNS_17StackedTileLoaderE@Base 4:15.08.0
 _ZN6Marble30SphericalScanlineTextureMapperC2EPNS_17StackedTileLoaderE@Base 4:15.08.0
 _ZN6Marble30SphericalScanlineTextureMapperD0Ev@Base 4:15.08.0
 _ZN6Marble30SphericalScanlineTextureMapperD1Ev@Base 4:15.08.0
 _ZN6Marble30SphericalScanlineTextureMapperD2Ev@Base 4:15.08.0
 _ZN6Marble30StereographicProjectionPrivateC1EPNS_23StereographicProjectionE@Base 4:15.08.0
 _ZN6Marble30StereographicProjectionPrivateC2EPNS_23StereographicProjectionE@Base 4:15.08.0
 _ZN6Marble30StereographicProjectionPrivateD0Ev@Base 4:15.08.0
 _ZN6Marble30StereographicProjectionPrivateD1Ev@Base 4:15.08.0
 _ZN6Marble30StereographicProjectionPrivateD2Ev@Base 4:15.08.0
 _ZN6Marble31MarbleWidgetInputHandlerPrivate27MarbleWidgetSelectionRubber11setGeometryERK5QRect@Base 4:15.08.0
 _ZN6Marble31MarbleWidgetInputHandlerPrivate27MarbleWidgetSelectionRubber4hideEv@Base 4:15.08.0
 _ZN6Marble31MarbleWidgetInputHandlerPrivate27MarbleWidgetSelectionRubber4showEv@Base 4:15.08.0
 _ZN6Marble31MarbleWidgetInputHandlerPrivate27MarbleWidgetSelectionRubberD0Ev@Base 4:15.08.0
 _ZN6Marble31MarbleWidgetInputHandlerPrivate27MarbleWidgetSelectionRubberD1Ev@Base 4:15.08.0
 _ZN6Marble31MarbleWidgetInputHandlerPrivate27MarbleWidgetSelectionRubberD2Ev@Base 4:15.08.0
 _ZN6Marble31PlacemarkPositionProviderPlugin10initializeEv@Base 4:15.08.0
 _ZN6Marble31PlacemarkPositionProviderPlugin11qt_metacallEN11QMetaObject4CallEiPPv@Base 4:15.08.0
 _ZN6Marble31PlacemarkPositionProviderPlugin11qt_metacastEPKc@Base 4:15.08.0
 _ZN6Marble31PlacemarkPositionProviderPlugin12setPlacemarkEPKNS_16GeoDataPlacemarkE@Base 4:15.08.0
 _ZN6Marble31PlacemarkPositionProviderPlugin14updatePositionEv@Base 4:15.08.0
 _ZN6Marble31PlacemarkPositionProviderPlugin16staticMetaObjectE@Base 4:15.08.0
 _ZN6Marble31PlacemarkPositionProviderPluginC1EPNS_11MarbleModelE@Base 4:15.08.0
 _ZN6Marble31PlacemarkPositionProviderPluginC2EPNS_11MarbleModelE@Base 4:15.08.0
 _ZN6Marble31PlacemarkPositionProviderPluginD0Ev@Base 4:15.08.0
 _ZN6Marble31PlacemarkPositionProviderPluginD1Ev@Base 4:15.08.0
 _ZN6Marble31PlacemarkPositionProviderPluginD2Ev@Base 4:15.08.0
 _ZN6Marble31PositionProviderPluginInterfaceD0Ev@Base 4:15.08.0
 _ZN6Marble31PositionProviderPluginInterfaceD1Ev@Base 4:15.08.0
 _ZN6Marble31PositionProviderPluginInterfaceD2Ev@Base 4:15.08.0
 _ZN6Marble32GeoDataNetworkLinkControlPrivateC1ERKS0_@Base 4:15.08.0
 _ZN6Marble32GeoDataNetworkLinkControlPrivateC1Ev@Base 4:15.08.0
 _ZN6Marble32GeoDataNetworkLinkControlPrivateC2ERKS0_@Base 4:15.08.0
 _ZN6Marble32GeoDataNetworkLinkControlPrivateC2Ev@Base 4:15.08.0
 _ZN6Marble33LambertAzimuthalProjectionPrivateC1EPNS_26LambertAzimuthalProjectionE@Base 4:15.08.0
 _ZN6Marble33LambertAzimuthalProjectionPrivateC2EPNS_26LambertAzimuthalProjectionE@Base 4:15.08.0
 _ZN6Marble33LambertAzimuthalProjectionPrivateD0Ev@Base 4:15.08.0
 _ZN6Marble33LambertAzimuthalProjectionPrivateD1Ev@Base 4:15.08.0
 _ZN6Marble33LambertAzimuthalProjectionPrivateD2Ev@Base 4:15.08.0
 _ZN6Marble33MarblePluginSettingsWidgetPrivate21showPluginAboutDialogERK11QModelIndex@Base 4:15.08.0
 _ZN6Marble33MarblePluginSettingsWidgetPrivate22showPluginConfigDialogERK11QModelIndex@Base 4:15.08.0
 _ZN6Marble36VerticalPerspectiveProjectionPrivateC1EPNS_29VerticalPerspectiveProjectionE@Base 4:15.08.0
 _ZN6Marble36VerticalPerspectiveProjectionPrivateC2EPNS_29VerticalPerspectiveProjectionE@Base 4:15.08.0
 _ZN6Marble36VerticalPerspectiveProjectionPrivateD0Ev@Base 4:15.08.0
 _ZN6Marble36VerticalPerspectiveProjectionPrivateD1Ev@Base 4:15.08.0
 _ZN6Marble36VerticalPerspectiveProjectionPrivateD2Ev@Base 4:15.08.0
 _ZN6Marble37AzimuthalEquidistantProjectionPrivateC1EPNS_30AzimuthalEquidistantProjectionE@Base 4:15.08.0
 _ZN6Marble37AzimuthalEquidistantProjectionPrivateC2EPNS_30AzimuthalEquidistantProjectionE@Base 4:15.08.0
 _ZN6Marble37AzimuthalEquidistantProjectionPrivateD0Ev@Base 4:15.08.0
 _ZN6Marble37AzimuthalEquidistantProjectionPrivateD1Ev@Base 4:15.08.0
 _ZN6Marble37AzimuthalEquidistantProjectionPrivateD2Ev@Base 4:15.08.0
 _ZN6Marble37RouteSimulationPositionProviderPlugin10initializeEv@Base 4:15.08.0
 _ZN6Marble37RouteSimulationPositionProviderPlugin11qt_metacallEN11QMetaObject4CallEiPPv@Base 4:15.08.0
 _ZN6Marble37RouteSimulationPositionProviderPlugin11qt_metacastEPKc@Base 4:15.08.0
 _ZN6Marble37RouteSimulationPositionProviderPlugin16staticMetaObjectE@Base 4:15.08.0
 _ZN6Marble37RouteSimulationPositionProviderPlugin6updateEv@Base 4:15.08.0
 _ZN6Marble37RouteSimulationPositionProviderPluginC1EPNS_11MarbleModelE@Base 4:15.08.0
 _ZN6Marble37RouteSimulationPositionProviderPluginC2EPNS_11MarbleModelE@Base 4:15.08.0
 _ZN6Marble37RouteSimulationPositionProviderPluginD0Ev@Base 4:15.08.0
 _ZN6Marble37RouteSimulationPositionProviderPluginD1Ev@Base 4:15.08.0
 _ZN6Marble37RouteSimulationPositionProviderPluginD2Ev@Base 4:15.08.0
 _ZN6Marble3kml10kmlTag_LodE@Base 4:15.08.0
 _ZN6Marble3kml10kmlTag_UrlE@Base 4:15.08.0
 _ZN6Marble3kml10kmlTag_endE@Base 4:15.08.0
 _ZN6Marble3kml10kmlTag_keyE@Base 4:15.08.0
 _ZN6Marble3kml10kmlTag_kmlE@Base 4:15.08.0
 _ZN6Marble3kml10kmlTag_popE@Base 4:15.08.0
 _ZN6Marble3kml11kmlTag_DataE@Base 4:15.08.0
 _ZN6Marble3kml11kmlTag_IconE@Base 4:15.08.0
 _ZN6Marble3kml11kmlTag_LinkE@Base 4:15.08.0
 _ZN6Marble3kml11kmlTag_PairE@Base 4:15.08.0
 _ZN6Marble3kml11kmlTag_TourE@Base 4:15.08.0
 _ZN6Marble3kml11kmlTag_WaitE@Base 4:15.08.0
 _ZN6Marble3kml11kmlTag_areaE@Base 4:15.08.0
 _ZN6Marble3kml11kmlTag_codeE@Base 4:15.08.0
 _ZN6Marble3kml11kmlTag_eastE@Base 4:15.08.0
 _ZN6Marble3kml11kmlTag_fillE@Base 4:15.08.0
 _ZN6Marble3kml11kmlTag_hrefE@Base 4:15.08.0
 _ZN6Marble3kml11kmlTag_nameE@Base 4:15.08.0
 _ZN6Marble3kml11kmlTag_nearE@Base 4:15.08.0
 _ZN6Marble3kml11kmlTag_openE@Base 4:15.08.0
 _ZN6Marble3kml11kmlTag_roleE@Base 4:15.08.0
 _ZN6Marble3kml11kmlTag_rollE@Base 4:15.08.0
 _ZN6Marble3kml11kmlTag_sizeE@Base 4:15.08.0
 _ZN6Marble3kml11kmlTag_textE@Base 4:15.08.0
 _ZN6Marble3kml11kmlTag_tiltE@Base 4:15.08.0
 _ZN6Marble3kml11kmlTag_westE@Base 4:15.08.0
 _ZN6Marble3kml11kmlTag_whenE@Base 4:15.08.0
 _ZN6Marble3kml12kmlTag_AliasE@Base 4:15.08.0
 _ZN6Marble3kml12kmlTag_FlyToE@Base 4:15.08.0
 _ZN6Marble3kml12kmlTag_ModelE@Base 4:15.08.0
 _ZN6Marble3kml12kmlTag_PointE@Base 4:15.08.0
 _ZN6Marble3kml12kmlTag_ScaleE@Base 4:15.08.0
 _ZN6Marble3kml12kmlTag_StyleE@Base 4:15.08.0
 _ZN6Marble3kml12kmlTag_TrackE@Base 4:15.08.0
 _ZN6Marble3kml12kmlTag_beginE@Base 4:15.08.0
 _ZN6Marble3kml12kmlTag_colorE@Base 4:15.08.0
 _ZN6Marble3kml12kmlTag_coordE@Base 4:15.08.0
 _ZN6Marble3kml12kmlTag_northE@Base 4:15.08.0
 _ZN6Marble3kml12kmlTag_rangeE@Base 4:15.08.0
 _ZN6Marble3kml12kmlTag_scaleE@Base 4:15.08.0
 _ZN6Marble3kml12kmlTag_shapeE@Base 4:15.08.0
 _ZN6Marble3kml12kmlTag_southE@Base 4:15.08.0
 _ZN6Marble3kml12kmlTag_stateE@Base 4:15.08.0
 _ZN6Marble3kml12kmlTag_valueE@Base 4:15.08.0
 _ZN6Marble3kml12kmlTag_widthE@Base 4:15.08.0
 _ZN6Marble3kml13kmlTag_CameraE@Base 4:15.08.0
 _ZN6Marble3kml13kmlTag_ChangeE@Base 4:15.08.0
 _ZN6Marble3kml13kmlTag_CreateE@Base 4:15.08.0
 _ZN6Marble3kml13kmlTag_DeleteE@Base 4:15.08.0
 _ZN6Marble3kml13kmlTag_FolderE@Base 4:15.08.0
 _ZN6Marble3kml13kmlTag_LookAtE@Base 4:15.08.0
 _ZN6Marble3kml13kmlTag_ObjectE@Base 4:15.08.0
 _ZN6Marble3kml13kmlTag_RegionE@Base 4:15.08.0
 _ZN6Marble3kml13kmlTag_SchemaE@Base 4:15.08.0
 _ZN6Marble3kml13kmlTag_StatusE@Base 4:15.08.0
 _ZN6Marble3kml13kmlTag_UpdateE@Base 4:15.08.0
 _ZN6Marble3kml13kmlTag_cookieE@Base 4:15.08.0
 _ZN6Marble3kml13kmlTag_topFovE@Base 4:15.08.0
 _ZN6Marble3kml14KmlxTagHandlerD0Ev@Base 4:15.08.0
 _ZN6Marble3kml14KmlxTagHandlerD1Ev@Base 4:15.08.0
 _ZN6Marble3kml14KmlxTagHandlerD2Ev@Base 4:15.08.0
 _ZN6Marble3kml14KmlyTagHandlerD0Ev@Base 4:15.08.0
 _ZN6Marble3kml14KmlyTagHandlerD1Ev@Base 4:15.08.0
 _ZN6Marble3kml14KmlyTagHandlerD2Ev@Base 4:15.08.0
 _ZN6Marble3kml14KmlzTagHandlerD0Ev@Base 4:15.08.0
 _ZN6Marble3kml14KmlzTagHandlerD1Ev@Base 4:15.08.0
 _ZN6Marble3kml14KmlzTagHandlerD2Ev@Base 4:15.08.0
 _ZN6Marble3kml14kmlTag_FeatureE@Base 4:15.08.0
 _ZN6Marble3kml14kmlTag_OverlayE@Base 4:15.08.0
 _ZN6Marble3kml14kmlTag_PolygonE@Base 4:15.08.0
 _ZN6Marble3kml14kmlTag_SnippetE@Base 4:15.08.0
 _ZN6Marble3kml14kmlTag_addressE@Base 4:15.08.0
 _ZN6Marble3kml14kmlTag_bgColorE@Base 4:15.08.0
 _ZN6Marble3kml14kmlTag_expiresE@Base 4:15.08.0
 _ZN6Marble3kml14kmlTag_extrudeE@Base 4:15.08.0
 _ZN6Marble3kml14kmlTag_headingE@Base 4:15.08.0
 _ZN6Marble3kml14kmlTag_hotSpotE@Base 4:15.08.0
 _ZN6Marble3kml14kmlTag_leftFovE@Base 4:15.08.0
 _ZN6Marble3kml14kmlTag_messageE@Base 4:15.08.0
 _ZN6Marble3kml14kmlTag_outlineE@Base 4:15.08.0
 _ZN6Marble3kml14kmlTag_requestE@Base 4:15.08.0
 _ZN6Marble3kml15kmlTag_DocumentE@Base 4:15.08.0
 _ZN6Marble3kml15kmlTag_GeometryE@Base 4:15.08.0
 _ZN6Marble3kml15kmlTag_ItemIconE@Base 4:15.08.0
 _ZN6Marble3kml15kmlTag_LocationE@Base 4:15.08.0
 _ZN6Marble3kml15kmlTag_MetadataE@Base 4:15.08.0
 _ZN6Marble3kml15kmlTag_ObjFieldE@Base 4:15.08.0
 _ZN6Marble3kml15kmlTag_PlaylistE@Base 4:15.08.0
 _ZN6Marble3kml15kmlTag_ResponseE@Base 4:15.08.0
 _ZN6Marble3kml15kmlTag_SoundCueE@Base 4:15.08.0
 _ZN6Marble3kml15kmlTag_StyleMapE@Base 4:15.08.0
 _ZN6Marble3kml15kmlTag_TimeSpanE@Base 4:15.08.0
 _ZN6Marble3kml15kmlTag_altitudeE@Base 4:15.08.0
 _ZN6Marble3kml15kmlTag_durationE@Base 4:15.08.0
 _ZN6Marble3kml15kmlTag_latitudeE@Base 4:15.08.0
 _ZN6Marble3kml15kmlTag_linkNameE@Base 4:15.08.0
 _ZN6Marble3kml15kmlTag_maxWidthE@Base 4:15.08.0
 _ZN6Marble3kml15kmlTag_playModeE@Base 4:15.08.0
 _ZN6Marble3kml15kmlTag_rightFovE@Base 4:15.08.0
 _ZN6Marble3kml15kmlTag_rotationE@Base 4:15.08.0
 _ZN6Marble3kml15kmlTag_screenXYE@Base 4:15.08.0
 _ZN6Marble3kml15kmlTag_styleUrlE@Base 4:15.08.0
 _ZN6Marble3kml15kmlTag_tileSizeE@Base 4:15.08.0
 _ZN6Marble3kml16KmlLodTagHandlerD0Ev@Base 4:15.08.0
 _ZN6Marble3kml16KmlLodTagHandlerD1Ev@Base 4:15.08.0
 _ZN6Marble3kml16KmlLodTagHandlerD2Ev@Base 4:15.08.0
 _ZN6Marble3kml16KmlendTagHandlerD0Ev@Base 4:15.08.0
 _ZN6Marble3kml16KmlendTagHandlerD1Ev@Base 4:15.08.0
 _ZN6Marble3kml16KmlendTagHandlerD2Ev@Base 4:15.08.0
 _ZN6Marble3kml16KmlkeyTagHandlerD0Ev@Base 4:15.08.0
 _ZN6Marble3kml16KmlkeyTagHandlerD1Ev@Base 4:15.08.0
 _ZN6Marble3kml16KmlkeyTagHandlerD2Ev@Base 4:15.08.0
 _ZN6Marble3kml16KmlpopTagHandlerD0Ev@Base 4:15.08.0
 _ZN6Marble3kml16KmlpopTagHandlerD1Ev@Base 4:15.08.0
 _ZN6Marble3kml16KmlpopTagHandlerD2Ev@Base 4:15.08.0
 _ZN6Marble3kml16kmlTag_ContainerE@Base 4:15.08.0
 _ZN6Marble3kml16kmlTag_IconStyleE@Base 4:15.08.0
 _ZN6Marble3kml16kmlTag_LatLonBoxE@Base 4:15.08.0
 _ZN6Marble3kml16kmlTag_LineStyleE@Base 4:15.08.0
 _ZN6Marble3kml16kmlTag_ListStyleE@Base 4:15.08.0
 _ZN6Marble3kml16kmlTag_PlacemarkE@Base 4:15.08.0
 _ZN6Marble3kml16kmlTag_PolyStyleE@Base 4:15.08.0
 _ZN6Marble3kml16kmlTag_TimeStampE@Base 4:15.08.0
 _ZN6Marble3kml16kmlTag_bottomFovE@Base 4:15.08.0
 _ZN6Marble3kml16kmlTag_colorModeE@Base 4:15.08.0
 _ZN6Marble3kml16kmlTag_drawOrderE@Base 4:15.08.0
 _ZN6Marble3kml16kmlTag_flyToModeE@Base 4:15.08.0
 _ZN6Marble3kml16kmlTag_flyToViewE@Base 4:15.08.0
 _ZN6Marble3kml16kmlTag_geomColorE@Base 4:15.08.0
 _ZN6Marble3kml16kmlTag_geomScaleE@Base 4:15.08.0
 _ZN6Marble3kml16kmlTag_httpQueryE@Base 4:15.08.0
 _ZN6Marble3kml16kmlTag_longitudeE@Base 4:15.08.0
 _ZN6Marble3kml16kmlTag_maxHeightE@Base 4:15.08.0
 _ZN6Marble3kml16kmlTag_overlayXYE@Base 4:15.08.0
 _ZN6Marble3kml16kmlTag_textColorE@Base 4:15.08.0
 _ZN6Marble3kml17KmlDataTagHandlerD0Ev@Base 4:15.08.0
 _ZN6Marble3kml17KmlDataTagHandlerD1Ev@Base 4:15.08.0
 _ZN6Marble3kml17KmlDataTagHandlerD2Ev@Base 4:15.08.0
 _ZN6Marble3kml17KmlIconTagHandlerD0Ev@Base 4:15.08.0
 _ZN6Marble3kml17KmlIconTagHandlerD1Ev@Base 4:15.08.0
 _ZN6Marble3kml17KmlIconTagHandlerD2Ev@Base 4:15.08.0
 _ZN6Marble3kml17KmlLinkTagHandlerD0Ev@Base 4:15.08.0
 _ZN6Marble3kml17KmlLinkTagHandlerD1Ev@Base 4:15.08.0
 _ZN6Marble3kml17KmlLinkTagHandlerD2Ev@Base 4:15.08.0
 _ZN6Marble3kml17KmlPairTagHandlerD0Ev@Base 4:15.08.0
 _ZN6Marble3kml17KmlPairTagHandlerD1Ev@Base 4:15.08.0
 _ZN6Marble3kml17KmlPairTagHandlerD2Ev@Base 4:15.08.0
 _ZN6Marble3kml17KmlTourTagHandlerD0Ev@Base 4:15.08.0
 _ZN6Marble3kml17KmlTourTagHandlerD1Ev@Base 4:15.08.0
 _ZN6Marble3kml17KmlTourTagHandlerD2Ev@Base 4:15.08.0
 _ZN6Marble3kml17KmlWaitTagHandlerD0Ev@Base 4:15.08.0
 _ZN6Marble3kml17KmlWaitTagHandlerD1Ev@Base 4:15.08.0
 _ZN6Marble3kml17KmlWaitTagHandlerD2Ev@Base 4:15.08.0
 _ZN6Marble3kml17KmlareaTagHandlerD0Ev@Base 4:15.08.0
 _ZN6Marble3kml17KmlareaTagHandlerD1Ev@Base 4:15.08.0
 _ZN6Marble3kml17KmlareaTagHandlerD2Ev@Base 4:15.08.0
 _ZN6Marble3kml17KmleastTagHandlerD0Ev@Base 4:15.08.0
 _ZN6Marble3kml17KmleastTagHandlerD1Ev@Base 4:15.08.0
 _ZN6Marble3kml17KmleastTagHandlerD2Ev@Base 4:15.08.0
 _ZN6Marble3kml17KmlfillTagHandlerD0Ev@Base 4:15.08.0
 _ZN6Marble3kml17KmlfillTagHandlerD1Ev@Base 4:15.08.0
 _ZN6Marble3kml17KmlfillTagHandlerD2Ev@Base 4:15.08.0
 _ZN6Marble3kml17KmlhrefTagHandlerD0Ev@Base 4:15.08.0
 _ZN6Marble3kml17KmlhrefTagHandlerD1Ev@Base 4:15.08.0
 _ZN6Marble3kml17KmlhrefTagHandlerD2Ev@Base 4:15.08.0
 _ZN6Marble3kml17KmlnameTagHandlerD0Ev@Base 4:15.08.0
 _ZN6Marble3kml17KmlnameTagHandlerD1Ev@Base 4:15.08.0
 _ZN6Marble3kml17KmlnameTagHandlerD2Ev@Base 4:15.08.0
 _ZN6Marble3kml17KmlnearTagHandlerD0Ev@Base 4:15.08.0
 _ZN6Marble3kml17KmlnearTagHandlerD1Ev@Base 4:15.08.0
 _ZN6Marble3kml17KmlnearTagHandlerD2Ev@Base 4:15.08.0
 _ZN6Marble3kml17KmlopenTagHandlerD0Ev@Base 4:15.08.0
 _ZN6Marble3kml17KmlopenTagHandlerD1Ev@Base 4:15.08.0
 _ZN6Marble3kml17KmlopenTagHandlerD2Ev@Base 4:15.08.0
 _ZN6Marble3kml17KmlroleTagHandlerD0Ev@Base 4:15.08.0
 _ZN6Marble3kml17KmlroleTagHandlerD1Ev@Base 4:15.08.0
 _ZN6Marble3kml17KmlroleTagHandlerD2Ev@Base 4:15.08.0
 _ZN6Marble3kml17KmlrollTagHandlerD0Ev@Base 4:15.08.0
 _ZN6Marble3kml17KmlrollTagHandlerD1Ev@Base 4:15.08.0
 _ZN6Marble3kml17KmlrollTagHandlerD2Ev@Base 4:15.08.0
 _ZN6Marble3kml17KmlsizeTagHandlerD0Ev@Base 4:15.08.0
 _ZN6Marble3kml17KmlsizeTagHandlerD1Ev@Base 4:15.08.0
 _ZN6Marble3kml17KmlsizeTagHandlerD2Ev@Base 4:15.08.0
 _ZN6Marble3kml17KmltextTagHandlerD0Ev@Base 4:15.08.0
 _ZN6Marble3kml17KmltextTagHandlerD1Ev@Base 4:15.08.0
 _ZN6Marble3kml17KmltextTagHandlerD2Ev@Base 4:15.08.0
 _ZN6Marble3kml17KmltiltTagHandlerD0Ev@Base 4:15.08.0
 _ZN6Marble3kml17KmltiltTagHandlerD1Ev@Base 4:15.08.0
 _ZN6Marble3kml17KmltiltTagHandlerD2Ev@Base 4:15.08.0
 _ZN6Marble3kml17KmlwestTagHandlerD0Ev@Base 4:15.08.0
 _ZN6Marble3kml17KmlwestTagHandlerD1Ev@Base 4:15.08.0
 _ZN6Marble3kml17KmlwestTagHandlerD2Ev@Base 4:15.08.0
 _ZN6Marble3kml17KmlwhenTagHandler14parseTimestampERK7QString@Base 4:15.08.0
 _ZN6Marble3kml17KmlwhenTagHandler5parseERK7QString@Base 4:15.08.0
 _ZN6Marble3kml17KmlwhenTagHandler6modifyER7QString@Base 4:15.08.0
 _ZN6Marble3kml17KmlwhenTagHandlerD0Ev@Base 4:15.08.0
 _ZN6Marble3kml17KmlwhenTagHandlerD1Ev@Base 4:15.08.0
 _ZN6Marble3kml17KmlwhenTagHandlerD2Ev@Base 4:15.08.0
 _ZN6Marble3kml17kmlTag_ColorStyleE@Base 4:15.08.0
 _ZN6Marble3kml17kmlTag_LabelStyleE@Base 4:15.08.0
 _ZN6Marble3kml17kmlTag_LatLonQuadE@Base 4:15.08.0
 _ZN6Marble3kml17kmlTag_LineStringE@Base 4:15.08.0
 _ZN6Marble3kml17kmlTag_LinearRingE@Base 4:15.08.0
 _ZN6Marble3kml17kmlTag_MultiTrackE@Base 4:15.08.0
 _ZN6Marble3kml17kmlTag_SchemaDataE@Base 4:15.08.0
 _ZN6Marble3kml17kmlTag_SimpleDataE@Base 4:15.08.0
 _ZN6Marble3kml17kmlTag_ViewVolumeE@Base 4:15.08.0
 _ZN6Marble3kml17kmlTag_gridOriginE@Base 4:15.08.0
 _ZN6Marble3kml17kmlTag_labelColorE@Base 4:15.08.0
 _ZN6Marble3kml17kmlTag_rotationXYE@Base 4:15.08.0
 _ZN6Marble3kml17kmlTag_sourceHrefE@Base 4:15.08.0
 _ZN6Marble3kml17kmlTag_targetHrefE@Base 4:15.08.0
 _ZN6Marble3kml17kmlTag_tessellateE@Base 4:15.08.0
 _ZN6Marble3kml17kmlTag_viewFormatE@Base 4:15.08.0
 _ZN6Marble3kml17kmlTag_visibilityE@Base 4:15.08.0
 _ZN6Marble3kml18KmlAliasTagHandlerD0Ev@Base 4:15.08.0
 _ZN6Marble3kml18KmlAliasTagHandlerD1Ev@Base 4:15.08.0
 _ZN6Marble3kml18KmlAliasTagHandlerD2Ev@Base 4:15.08.0
 _ZN6Marble3kml18KmlFlyToTagHandlerD0Ev@Base 4:15.08.0
 _ZN6Marble3kml18KmlFlyToTagHandlerD1Ev@Base 4:15.08.0
 _ZN6Marble3kml18KmlFlyToTagHandlerD2Ev@Base 4:15.08.0
 _ZN6Marble3kml18KmlModelTagHandlerD0Ev@Base 4:15.08.0
 _ZN6Marble3kml18KmlModelTagHandlerD1Ev@Base 4:15.08.0
 _ZN6Marble3kml18KmlModelTagHandlerD2Ev@Base 4:15.08.0
 _ZN6Marble3kml18KmlPointTagHandlerD0Ev@Base 4:15.08.0
 _ZN6Marble3kml18KmlPointTagHandlerD1Ev@Base 4:15.08.0
 _ZN6Marble3kml18KmlPointTagHandlerD2Ev@Base 4:15.08.0
 _ZN6Marble3kml18KmlScaleTagHandlerD0Ev@Base 4:15.08.0
 _ZN6Marble3kml18KmlScaleTagHandlerD1Ev@Base 4:15.08.0
 _ZN6Marble3kml18KmlScaleTagHandlerD2Ev@Base 4:15.08.0
 _ZN6Marble3kml18KmlStyleTagHandlerD0Ev@Base 4:15.08.0
 _ZN6Marble3kml18KmlStyleTagHandlerD1Ev@Base 4:15.08.0
 _ZN6Marble3kml18KmlStyleTagHandlerD2Ev@Base 4:15.08.0
 _ZN6Marble3kml18KmlTrackTagHandlerD0Ev@Base 4:15.08.0
 _ZN6Marble3kml18KmlTrackTagHandlerD1Ev@Base 4:15.08.0
 _ZN6Marble3kml18KmlTrackTagHandlerD2Ev@Base 4:15.08.0
 _ZN6Marble3kml18KmlbeginTagHandlerD0Ev@Base 4:15.08.0
 _ZN6Marble3kml18KmlbeginTagHandlerD1Ev@Base 4:15.08.0
 _ZN6Marble3kml18KmlbeginTagHandlerD2Ev@Base 4:15.08.0
 _ZN6Marble3kml18KmlcolorTagHandler10parseColorERK7QString@Base 4:15.08.0
 _ZN6Marble3kml18KmlcolorTagHandlerD0Ev@Base 4:15.08.0
 _ZN6Marble3kml18KmlcolorTagHandlerD1Ev@Base 4:15.08.0
 _ZN6Marble3kml18KmlcolorTagHandlerD2Ev@Base 4:15.08.0
 _ZN6Marble3kml18KmlnorthTagHandlerD0Ev@Base 4:15.08.0
 _ZN6Marble3kml18KmlnorthTagHandlerD1Ev@Base 4:15.08.0
 _ZN6Marble3kml18KmlnorthTagHandlerD2Ev@Base 4:15.08.0
 _ZN6Marble3kml18KmlrangeTagHandlerD0Ev@Base 4:15.08.0
 _ZN6Marble3kml18KmlrangeTagHandlerD1Ev@Base 4:15.08.0
 _ZN6Marble3kml18KmlrangeTagHandlerD2Ev@Base 4:15.08.0
 _ZN6Marble3kml18KmlscaleTagHandlerD0Ev@Base 4:15.08.0
 _ZN6Marble3kml18KmlscaleTagHandlerD1Ev@Base 4:15.08.0
 _ZN6Marble3kml18KmlscaleTagHandlerD2Ev@Base 4:15.08.0
 _ZN6Marble3kml18KmlshapeTagHandlerD0Ev@Base 4:15.08.0
 _ZN6Marble3kml18KmlshapeTagHandlerD1Ev@Base 4:15.08.0
 _ZN6Marble3kml18KmlshapeTagHandlerD2Ev@Base 4:15.08.0
 _ZN6Marble3kml18KmlsouthTagHandlerD0Ev@Base 4:15.08.0
 _ZN6Marble3kml18KmlsouthTagHandlerD1Ev@Base 4:15.08.0
 _ZN6Marble3kml18KmlsouthTagHandlerD2Ev@Base 4:15.08.0
 _ZN6Marble3kml18KmlstateTagHandlerD0Ev@Base 4:15.08.0
 _ZN6Marble3kml18KmlstateTagHandlerD1Ev@Base 4:15.08.0
 _ZN6Marble3kml18KmlstateTagHandlerD2Ev@Base 4:15.08.0
 _ZN6Marble3kml18KmlvalueTagHandlerD0Ev@Base 4:15.08.0
 _ZN6Marble3kml18KmlvalueTagHandlerD1Ev@Base 4:15.08.0
 _ZN6Marble3kml18KmlvalueTagHandlerD2Ev@Base 4:15.08.0
 _ZN6Marble3kml18KmlwidthTagHandlerD0Ev@Base 4:15.08.0
 _ZN6Marble3kml18KmlwidthTagHandlerD1Ev@Base 4:15.08.0
 _ZN6Marble3kml18KmlwidthTagHandlerD2Ev@Base 4:15.08.0
 _ZN6Marble3kml18kmlTag_NetworkLinkE@Base 4:15.08.0
 _ZN6Marble3kml18kmlTag_OrientationE@Base 4:15.08.0
 _ZN6Marble3kml18kmlTag_ResourceMapE@Base 4:15.08.0
 _ZN6Marble3kml18kmlTag_SchemaFieldE@Base 4:15.08.0
 _ZN6Marble3kml18kmlTag_SimpleFieldE@Base 4:15.08.0
 _ZN6Marble3kml18kmlTag_TourControlE@Base 4:15.08.0
 _ZN6Marble3kml18kmlTag_coordinatesE@Base 4:15.08.0
 _ZN6Marble3kml18kmlTag_countrycodeE@Base 4:15.08.0
 _ZN6Marble3kml18kmlTag_descriptionE@Base 4:15.08.0
 _ZN6Marble3kml18kmlTag_displayModeE@Base 4:15.08.0
 _ZN6Marble3kml18kmlTag_displayNameE@Base 4:15.08.0
 _ZN6Marble3kml18kmlTag_linkSnippetE@Base 4:15.08.0
 _ZN6Marble3kml18kmlTag_maxAltitudeE@Base 4:15.08.0
 _ZN6Marble3kml18kmlTag_minAltitudeE@Base 4:15.08.0
 _ZN6Marble3kml18kmlTag_nameSpace20E@Base 4:15.08.0
 _ZN6Marble3kml18kmlTag_nameSpace21E@Base 4:15.08.0
 _ZN6Marble3kml18kmlTag_nameSpace22E@Base 4:15.08.0
 _ZN6Marble3kml18kmlTag_phoneNumberE@Base 4:15.08.0
 _ZN6Marble3kml18kmlTag_refreshModeE@Base 4:15.08.0
 _ZN6Marble3kml19KmlCameraTagHandlerD0Ev@Base 4:15.08.0
 _ZN6Marble3kml19KmlCameraTagHandlerD1Ev@Base 4:15.08.0
 _ZN6Marble3kml19KmlCameraTagHandlerD2Ev@Base 4:15.08.0
 _ZN6Marble3kml19KmlChangeTagHandlerD0Ev@Base 4:15.08.0
 _ZN6Marble3kml19KmlChangeTagHandlerD1Ev@Base 4:15.08.0
 _ZN6Marble3kml19KmlChangeTagHandlerD2Ev@Base 4:15.08.0
 _ZN6Marble3kml19KmlCreateTagHandlerD0Ev@Base 4:15.08.0
 _ZN6Marble3kml19KmlCreateTagHandlerD1Ev@Base 4:15.08.0
 _ZN6Marble3kml19KmlCreateTagHandlerD2Ev@Base 4:15.08.0
 _ZN6Marble3kml19KmlDeleteTagHandlerD0Ev@Base 4:15.08.0
 _ZN6Marble3kml19KmlDeleteTagHandlerD1Ev@Base 4:15.08.0
 _ZN6Marble3kml19KmlDeleteTagHandlerD2Ev@Base 4:15.08.0
 _ZN6Marble3kml19KmlFolderTagHandlerD0Ev@Base 4:15.08.0
 _ZN6Marble3kml19KmlFolderTagHandlerD1Ev@Base 4:15.08.0
 _ZN6Marble3kml19KmlFolderTagHandlerD2Ev@Base 4:15.08.0
 _ZN6Marble3kml19KmlLookAtTagHandlerD0Ev@Base 4:15.08.0
 _ZN6Marble3kml19KmlLookAtTagHandlerD1Ev@Base 4:15.08.0
 _ZN6Marble3kml19KmlLookAtTagHandlerD2Ev@Base 4:15.08.0
 _ZN6Marble3kml19KmlRegionTagHandlerD0Ev@Base 4:15.08.0
 _ZN6Marble3kml19KmlRegionTagHandlerD1Ev@Base 4:15.08.0
 _ZN6Marble3kml19KmlRegionTagHandlerD2Ev@Base 4:15.08.0
 _ZN6Marble3kml19KmlSchemaTagHandlerD0Ev@Base 4:15.08.0
 _ZN6Marble3kml19KmlSchemaTagHandlerD1Ev@Base 4:15.08.0
 _ZN6Marble3kml19KmlSchemaTagHandlerD2Ev@Base 4:15.08.0
 _ZN6Marble3kml19KmlUpdateTagHandlerD0Ev@Base 4:15.08.0
 _ZN6Marble3kml19KmlUpdateTagHandlerD1Ev@Base 4:15.08.0
 _ZN6Marble3kml19KmlUpdateTagHandlerD2Ev@Base 4:15.08.0
 _ZN6Marble3kml19KmlcookieTagHandlerD0Ev@Base 4:15.08.0
 _ZN6Marble3kml19KmlcookieTagHandlerD1Ev@Base 4:15.08.0
 _ZN6Marble3kml19KmlcookieTagHandlerD2Ev@Base 4:15.08.0
 _ZN6Marble3kml19KmltopFovTagHandlerD0Ev@Base 4:15.08.0
 _ZN6Marble3kml19KmltopFovTagHandlerD1Ev@Base 4:15.08.0
 _ZN6Marble3kml19KmltopFovTagHandlerD2Ev@Base 4:15.08.0
 _ZN6Marble3kml19kmlTag_BalloonStyleE@Base 4:15.08.0
 _ZN6Marble3kml19kmlTag_ExtendedDataE@Base 4:15.08.0
 _ZN6Marble3kml19kmlTag_ImagePyramidE@Base 4:15.08.0
 _ZN6Marble3kml19kmlTag_LatLonAltBoxE@Base 4:15.08.0
 _ZN6Marble3kml19kmlTag_PhotoOverlayE@Base 4:15.08.0
 _ZN6Marble3kml19kmlTag_altitudeModeE@Base 4:15.08.0
 _ZN6Marble3kml19kmlTag_delayedStartE@Base 4:15.08.0
 _ZN6Marble3kml19kmlTag_listItemTypeE@Base 4:15.08.0
 _ZN6Marble3kml19kmlTag_maxLodPixelsE@Base 4:15.08.0
 _ZN6Marble3kml19kmlTag_minLodPixelsE@Base 4:15.08.0
 _ZN6Marble3kml20KmlPolygonTagHandlerD0Ev@Base 4:15.08.0
 _ZN6Marble3kml20KmlPolygonTagHandlerD1Ev@Base 4:15.08.0
 _ZN6Marble3kml20KmlPolygonTagHandlerD2Ev@Base 4:15.08.0
 _ZN6Marble3kml20KmlSnippetTagHandlerD0Ev@Base 4:15.08.0
 _ZN6Marble3kml20KmlSnippetTagHandlerD1Ev@Base 4:15.08.0
 _ZN6Marble3kml20KmlSnippetTagHandlerD2Ev@Base 4:15.08.0
 _ZN6Marble3kml20KmlbgColorTagHandlerD0Ev@Base 4:15.08.0
 _ZN6Marble3kml20KmlbgColorTagHandlerD1Ev@Base 4:15.08.0
 _ZN6Marble3kml20KmlbgColorTagHandlerD2Ev@Base 4:15.08.0
 _ZN6Marble3kml20KmlexpiresTagHandlerD0Ev@Base 4:15.08.0
 _ZN6Marble3kml20KmlexpiresTagHandlerD1Ev@Base 4:15.08.0
 _ZN6Marble3kml20KmlexpiresTagHandlerD2Ev@Base 4:15.08.0
 _ZN6Marble3kml20KmlextrudeTagHandlerD0Ev@Base 4:15.08.0
 _ZN6Marble3kml20KmlextrudeTagHandlerD1Ev@Base 4:15.08.0
 _ZN6Marble3kml20KmlextrudeTagHandlerD2Ev@Base 4:15.08.0
 _ZN6Marble3kml20KmlheadingTagHandlerD0Ev@Base 4:15.08.0
 _ZN6Marble3kml20KmlheadingTagHandlerD1Ev@Base 4:15.08.0
 _ZN6Marble3kml20KmlheadingTagHandlerD2Ev@Base 4:15.08.0
 _ZN6Marble3kml20KmlhotSpotTagHandlerD0Ev@Base 4:15.08.0
 _ZN6Marble3kml20KmlhotSpotTagHandlerD1Ev@Base 4:15.08.0
 _ZN6Marble3kml20KmlhotSpotTagHandlerD2Ev@Base 4:15.08.0
 _ZN6Marble3kml20KmlleftFovTagHandlerD0Ev@Base 4:15.08.0
 _ZN6Marble3kml20KmlleftFovTagHandlerD1Ev@Base 4:15.08.0
 _ZN6Marble3kml20KmlleftFovTagHandlerD2Ev@Base 4:15.08.0
 _ZN6Marble3kml20KmlmessageTagHandlerD0Ev@Base 4:15.08.0
 _ZN6Marble3kml20KmlmessageTagHandlerD1Ev@Base 4:15.08.0
 _ZN6Marble3kml20KmlmessageTagHandlerD2Ev@Base 4:15.08.0
 _ZN6Marble3kml20KmloutlineTagHandlerD0Ev@Base 4:15.08.0
 _ZN6Marble3kml20KmloutlineTagHandlerD1Ev@Base 4:15.08.0
 _ZN6Marble3kml20KmloutlineTagHandlerD2Ev@Base 4:15.08.0
 _ZN6Marble3kml20kmlTag_GroundOverlayE@Base 4:15.08.0
 _ZN6Marble3kml20kmlTag_MultiGeometryE@Base 4:15.08.0
 _ZN6Marble3kml20kmlTag_ObjArrayFieldE@Base 4:15.08.0
 _ZN6Marble3kml20kmlTag_ScreenOverlayE@Base 4:15.08.0
 _ZN6Marble3kml20kmlTag_StyleSelectorE@Base 4:15.08.0
 _ZN6Marble3kml20kmlTag_maxFadeExtentE@Base 4:15.08.0
 _ZN6Marble3kml20kmlTag_minFadeExtentE@Base 4:15.08.0
 _ZN6Marble3kml20kmlTag_nameSpaceGx22E@Base 4:15.08.0
 _ZN6Marble3kml21KmlDocumentTagHandlerD0Ev@Base 4:15.08.0
 _ZN6Marble3kml21KmlDocumentTagHandlerD1Ev@Base 4:15.08.0
 _ZN6Marble3kml21KmlDocumentTagHandlerD2Ev@Base 4:15.08.0
 _ZN6Marble3kml21KmlItemIconTagHandlerD0Ev@Base 4:15.08.0
 _ZN6Marble3kml21KmlItemIconTagHandlerD1Ev@Base 4:15.08.0
 _ZN6Marble3kml21KmlItemIconTagHandlerD2Ev@Base 4:15.08.0
 _ZN6Marble3kml21KmlLocationTagHandlerD0Ev@Base 4:15.08.0
 _ZN6Marble3kml21KmlLocationTagHandlerD1Ev@Base 4:15.08.0
 _ZN6Marble3kml21KmlLocationTagHandlerD2Ev@Base 4:15.08.0
 _ZN6Marble3kml21KmlPlaylistTagHandlerD0Ev@Base 4:15.08.0
 _ZN6Marble3kml21KmlPlaylistTagHandlerD1Ev@Base 4:15.08.0
 _ZN6Marble3kml21KmlPlaylistTagHandlerD2Ev@Base 4:15.08.0
 _ZN6Marble3kml21KmlSoundCueTagHandlerD0Ev@Base 4:15.08.0
 _ZN6Marble3kml21KmlSoundCueTagHandlerD1Ev@Base 4:15.08.0
 _ZN6Marble3kml21KmlSoundCueTagHandlerD2Ev@Base 4:15.08.0
 _ZN6Marble3kml21KmlStyleMapTagHandlerD0Ev@Base 4:15.08.0
 _ZN6Marble3kml21KmlStyleMapTagHandlerD1Ev@Base 4:15.08.0
 _ZN6Marble3kml21KmlStyleMapTagHandlerD2Ev@Base 4:15.08.0
 _ZN6Marble3kml21KmlTimeSpanTagHandlerD0Ev@Base 4:15.08.0
 _ZN6Marble3kml21KmlTimeSpanTagHandlerD1Ev@Base 4:15.08.0
 _ZN6Marble3kml21KmlTimeSpanTagHandlerD2Ev@Base 4:15.08.0
 _ZN6Marble3kml21KmlaltitudeTagHandlerD0Ev@Base 4:15.08.0
 _ZN6Marble3kml21KmlaltitudeTagHandlerD1Ev@Base 4:15.08.0
 _ZN6Marble3kml21KmlaltitudeTagHandlerD2Ev@Base 4:15.08.0
 _ZN6Marble3kml21KmldurationTagHandlerD0Ev@Base 4:15.08.0
 _ZN6Marble3kml21KmldurationTagHandlerD1Ev@Base 4:15.08.0
 _ZN6Marble3kml21KmldurationTagHandlerD2Ev@Base 4:15.08.0
 _ZN6Marble3kml21KmllatitudeTagHandlerD0Ev@Base 4:15.08.0
 _ZN6Marble3kml21KmllatitudeTagHandlerD1Ev@Base 4:15.08.0
 _ZN6Marble3kml21KmllatitudeTagHandlerD2Ev@Base 4:15.08.0
 _ZN6Marble3kml21KmllinkNameTagHandlerD0Ev@Base 4:15.08.0
 _ZN6Marble3kml21KmllinkNameTagHandlerD1Ev@Base 4:15.08.0
 _ZN6Marble3kml21KmllinkNameTagHandlerD2Ev@Base 4:15.08.0
 _ZN6Marble3kml21KmlmaxWidthTagHandlerD0Ev@Base 4:15.08.0
 _ZN6Marble3kml21KmlmaxWidthTagHandlerD1Ev@Base 4:15.08.0
 _ZN6Marble3kml21KmlmaxWidthTagHandlerD2Ev@Base 4:15.08.0
 _ZN6Marble3kml21KmlplayModeTagHandlerD0Ev@Base 4:15.08.0
 _ZN6Marble3kml21KmlplayModeTagHandlerD1Ev@Base 4:15.08.0
 _ZN6Marble3kml21KmlplayModeTagHandlerD2Ev@Base 4:15.08.0
 _ZN6Marble3kml21KmlrightFovTagHandlerD0Ev@Base 4:15.08.0
 _ZN6Marble3kml21KmlrightFovTagHandlerD1Ev@Base 4:15.08.0
 _ZN6Marble3kml21KmlrightFovTagHandlerD2Ev@Base 4:15.08.0
 _ZN6Marble3kml21KmlrotationTagHandlerD0Ev@Base 4:15.08.0
 _ZN6Marble3kml21KmlrotationTagHandlerD1Ev@Base 4:15.08.0
 _ZN6Marble3kml21KmlrotationTagHandlerD2Ev@Base 4:15.08.0
 _ZN6Marble3kml21KmlscreenXYTagHandlerD0Ev@Base 4:15.08.0
 _ZN6Marble3kml21KmlscreenXYTagHandlerD1Ev@Base 4:15.08.0
 _ZN6Marble3kml21KmlscreenXYTagHandlerD2Ev@Base 4:15.08.0
 _ZN6Marble3kml21KmlstyleUrlTagHandlerD0Ev@Base 4:15.08.0
 _ZN6Marble3kml21KmlstyleUrlTagHandlerD1Ev@Base 4:15.08.0
 _ZN6Marble3kml21KmlstyleUrlTagHandlerD2Ev@Base 4:15.08.0
 _ZN6Marble3kml21KmltileSizeTagHandlerD0Ev@Base 4:15.08.0
 _ZN6Marble3kml21KmltileSizeTagHandlerD1Ev@Base 4:15.08.0
 _ZN6Marble3kml21KmltileSizeTagHandlerD2Ev@Base 4:15.08.0
 _ZN6Marble3kml21kmlTag_AddressDetailsE@Base 4:15.08.0
 _ZN6Marble3kml21kmlTag_AnimatedUpdateE@Base 4:15.08.0
 _ZN6Marble3kml21kmlTag_nameSpaceOgc22E@Base 4:15.08.0
 _ZN6Marble3kml21kmlTag_viewBoundScaleE@Base 4:15.08.0
 _ZN6Marble3kml22KmlIconStyleTagHandlerD0Ev@Base 4:15.08.0
 _ZN6Marble3kml22KmlIconStyleTagHandlerD1Ev@Base 4:15.08.0
 _ZN6Marble3kml22KmlIconStyleTagHandlerD2Ev@Base 4:15.08.0
 _ZN6Marble3kml22KmlLatLonBoxTagHandlerD0Ev@Base 4:15.08.0
 _ZN6Marble3kml22KmlLatLonBoxTagHandlerD1Ev@Base 4:15.08.0
 _ZN6Marble3kml22KmlLatLonBoxTagHandlerD2Ev@Base 4:15.08.0
 _ZN6Marble3kml22KmlLineStyleTagHandlerD0Ev@Base 4:15.08.0
 _ZN6Marble3kml22KmlLineStyleTagHandlerD1Ev@Base 4:15.08.0
 _ZN6Marble3kml22KmlLineStyleTagHandlerD2Ev@Base 4:15.08.0
 _ZN6Marble3kml22KmlListStyleTagHandlerD0Ev@Base 4:15.08.0
 _ZN6Marble3kml22KmlListStyleTagHandlerD1Ev@Base 4:15.08.0
 _ZN6Marble3kml22KmlListStyleTagHandlerD2Ev@Base 4:15.08.0
 _ZN6Marble3kml22KmlPlacemarkTagHandlerD0Ev@Base 4:15.08.0
 _ZN6Marble3kml22KmlPlacemarkTagHandlerD1Ev@Base 4:15.08.0
 _ZN6Marble3kml22KmlPlacemarkTagHandlerD2Ev@Base 4:15.08.0
 _ZN6Marble3kml22KmlPolyStyleTagHandlerD0Ev@Base 4:15.08.0
 _ZN6Marble3kml22KmlPolyStyleTagHandlerD1Ev@Base 4:15.08.0
 _ZN6Marble3kml22KmlPolyStyleTagHandlerD2Ev@Base 4:15.08.0
 _ZN6Marble3kml22KmlTimeStampTagHandlerD0Ev@Base 4:15.08.0
 _ZN6Marble3kml22KmlTimeStampTagHandlerD1Ev@Base 4:15.08.0
 _ZN6Marble3kml22KmlTimeStampTagHandlerD2Ev@Base 4:15.08.0
 _ZN6Marble3kml22KmlbottomFovTagHandlerD0Ev@Base 4:15.08.0
 _ZN6Marble3kml22KmlbottomFovTagHandlerD1Ev@Base 4:15.08.0
 _ZN6Marble3kml22KmlbottomFovTagHandlerD2Ev@Base 4:15.08.0
 _ZN6Marble3kml22KmlcolorModeTagHandlerD0Ev@Base 4:15.08.0
 _ZN6Marble3kml22KmlcolorModeTagHandlerD1Ev@Base 4:15.08.0
 _ZN6Marble3kml22KmlcolorModeTagHandlerD2Ev@Base 4:15.08.0
 _ZN6Marble3kml22KmldrawOrderTagHandlerD0Ev@Base 4:15.08.0
 _ZN6Marble3kml22KmldrawOrderTagHandlerD1Ev@Base 4:15.08.0
 _ZN6Marble3kml22KmldrawOrderTagHandlerD2Ev@Base 4:15.08.0
 _ZN6Marble3kml22KmlflyToModeTagHandlerD0Ev@Base 4:15.08.0
 _ZN6Marble3kml22KmlflyToModeTagHandlerD1Ev@Base 4:15.08.0
 _ZN6Marble3kml22KmlflyToModeTagHandlerD2Ev@Base 4:15.08.0
 _ZN6Marble3kml22KmlflyToViewTagHandlerD0Ev@Base 4:15.08.0
 _ZN6Marble3kml22KmlflyToViewTagHandlerD1Ev@Base 4:15.08.0
 _ZN6Marble3kml22KmlflyToViewTagHandlerD2Ev@Base 4:15.08.0
 _ZN6Marble3kml22KmlhttpQueryTagHandlerD0Ev@Base 4:15.08.0
 _ZN6Marble3kml22KmlhttpQueryTagHandlerD1Ev@Base 4:15.08.0
 _ZN6Marble3kml22KmlhttpQueryTagHandlerD2Ev@Base 4:15.08.0
 _ZN6Marble3kml22KmllongitudeTagHandlerD0Ev@Base 4:15.08.0
 _ZN6Marble3kml22KmllongitudeTagHandlerD1Ev@Base 4:15.08.0
 _ZN6Marble3kml22KmllongitudeTagHandlerD2Ev@Base 4:15.08.0
 _ZN6Marble3kml22KmlmaxHeightTagHandlerD0Ev@Base 4:15.08.0
 _ZN6Marble3kml22KmlmaxHeightTagHandlerD1Ev@Base 4:15.08.0
 _ZN6Marble3kml22KmlmaxHeightTagHandlerD2Ev@Base 4:15.08.0
 _ZN6Marble3kml22KmloverlayXYTagHandlerD0Ev@Base 4:15.08.0
 _ZN6Marble3kml22KmloverlayXYTagHandlerD1Ev@Base 4:15.08.0
 _ZN6Marble3kml22KmloverlayXYTagHandlerD2Ev@Base 4:15.08.0
 _ZN6Marble3kml22KmltextColorTagHandlerD0Ev@Base 4:15.08.0
 _ZN6Marble3kml22KmltextColorTagHandlerD1Ev@Base 4:15.08.0
 _ZN6Marble3kml22KmltextColorTagHandlerD2Ev@Base 4:15.08.0
 _ZN6Marble3kml22kmlTag_CountryNameCodeE@Base 4:15.08.0
 _ZN6Marble3kml22kmlTag_MarblePlacemarkE@Base 4:15.08.0
 _ZN6Marble3kml22kmlTag_SimpleArrayDataE@Base 4:15.08.0
 _ZN6Marble3kml22kmlTag_innerBoundaryIsE@Base 4:15.08.0
 _ZN6Marble3kml22kmlTag_linkDescriptionE@Base 4:15.08.0
 _ZN6Marble3kml22kmlTag_outerBoundaryIsE@Base 4:15.08.0
 _ZN6Marble3kml22kmlTag_refreshIntervalE@Base 4:15.08.0
 _ZN6Marble3kml22kmlTag_viewRefreshModeE@Base 4:15.08.0
 _ZN6Marble3kml22kmlTag_viewRefreshTimeE@Base 4:15.08.0
 _ZN6Marble3kml23KmlLabelStyleTagHandlerD0Ev@Base 4:15.08.0
 _ZN6Marble3kml23KmlLabelStyleTagHandlerD1Ev@Base 4:15.08.0
 _ZN6Marble3kml23KmlLabelStyleTagHandlerD2Ev@Base 4:15.08.0
 _ZN6Marble3kml23KmlLatLonQuadTagHandlerD0Ev@Base 4:15.08.0
 _ZN6Marble3kml23KmlLatLonQuadTagHandlerD1Ev@Base 4:15.08.0
 _ZN6Marble3kml23KmlLatLonQuadTagHandlerD2Ev@Base 4:15.08.0
 _ZN6Marble3kml23KmlLineStringTagHandlerD0Ev@Base 4:15.08.0
 _ZN6Marble3kml23KmlLineStringTagHandlerD1Ev@Base 4:15.08.0
 _ZN6Marble3kml23KmlLineStringTagHandlerD2Ev@Base 4:15.08.0
 _ZN6Marble3kml23KmlLinearRingTagHandlerD0Ev@Base 4:15.08.0
 _ZN6Marble3kml23KmlLinearRingTagHandlerD1Ev@Base 4:15.08.0
 _ZN6Marble3kml23KmlLinearRingTagHandlerD2Ev@Base 4:15.08.0
 _ZN6Marble3kml23KmlMultiTrackTagHandlerD0Ev@Base 4:15.08.0
 _ZN6Marble3kml23KmlMultiTrackTagHandlerD1Ev@Base 4:15.08.0
 _ZN6Marble3kml23KmlMultiTrackTagHandlerD2Ev@Base 4:15.08.0
 _ZN6Marble3kml23KmlSchemaDataTagHandlerD0Ev@Base 4:15.08.0
 _ZN6Marble3kml23KmlSchemaDataTagHandlerD1Ev@Base 4:15.08.0
 _ZN6Marble3kml23KmlSchemaDataTagHandlerD2Ev@Base 4:15.08.0
 _ZN6Marble3kml23KmlSimpleDataTagHandlerD0Ev@Base 4:15.08.0
 _ZN6Marble3kml23KmlSimpleDataTagHandlerD1Ev@Base 4:15.08.0
 _ZN6Marble3kml23KmlSimpleDataTagHandlerD2Ev@Base 4:15.08.0
 _ZN6Marble3kml23KmlViewVolumeTagHandlerD0Ev@Base 4:15.08.0
 _ZN6Marble3kml23KmlViewVolumeTagHandlerD1Ev@Base 4:15.08.0
 _ZN6Marble3kml23KmlViewVolumeTagHandlerD2Ev@Base 4:15.08.0
 _ZN6Marble3kml23KmlgridOriginTagHandlerD0Ev@Base 4:15.08.0
 _ZN6Marble3kml23KmlgridOriginTagHandlerD1Ev@Base 4:15.08.0
 _ZN6Marble3kml23KmlgridOriginTagHandlerD2Ev@Base 4:15.08.0
 _ZN6Marble3kml23KmlrotationXYTagHandlerD0Ev@Base 4:15.08.0
 _ZN6Marble3kml23KmlrotationXYTagHandlerD1Ev@Base 4:15.08.0
 _ZN6Marble3kml23KmlrotationXYTagHandlerD2Ev@Base 4:15.08.0
 _ZN6Marble3kml23KmlsourceHrefTagHandlerD0Ev@Base 4:15.08.0
 _ZN6Marble3kml23KmlsourceHrefTagHandlerD1Ev@Base 4:15.08.0
 _ZN6Marble3kml23KmlsourceHrefTagHandlerD2Ev@Base 4:15.08.0
 _ZN6Marble3kml23KmltargetHrefTagHandlerD0Ev@Base 4:15.08.0
 _ZN6Marble3kml23KmltargetHrefTagHandlerD1Ev@Base 4:15.08.0
 _ZN6Marble3kml23KmltargetHrefTagHandlerD2Ev@Base 4:15.08.0
 _ZN6Marble3kml23KmltessellateTagHandlerD0Ev@Base 4:15.08.0
 _ZN6Marble3kml23KmltessellateTagHandlerD1Ev@Base 4:15.08.0
 _ZN6Marble3kml23KmltessellateTagHandlerD2Ev@Base 4:15.08.0
 _ZN6Marble3kml23KmlviewFormatTagHandlerD0Ev@Base 4:15.08.0
 _ZN6Marble3kml23KmlviewFormatTagHandlerD1Ev@Base 4:15.08.0
 _ZN6Marble3kml23KmlviewFormatTagHandlerD2Ev@Base 4:15.08.0
 _ZN6Marble3kml23KmlvisibilityTagHandlerD0Ev@Base 4:15.08.0
 _ZN6Marble3kml23KmlvisibilityTagHandlerD1Ev@Base 4:15.08.0
 _ZN6Marble3kml23KmlvisibilityTagHandlerD2Ev@Base 4:15.08.0
 _ZN6Marble3kml23kmlTag_SimpleArrayFieldE@Base 4:15.08.0
 _ZN6Marble3kml23kmlTag_maxSessionLengthE@Base 4:15.08.0
 _ZN6Marble3kml23kmlTag_minRefreshPeriodE@Base 4:15.08.0
 _ZN6Marble3kml24KmlNetworkLinkTagHandlerD0Ev@Base 4:15.08.0
 _ZN6Marble3kml24KmlNetworkLinkTagHandlerD1Ev@Base 4:15.08.0
 _ZN6Marble3kml24KmlNetworkLinkTagHandlerD2Ev@Base 4:15.08.0
 _ZN6Marble3kml24KmlOrientationTagHandlerD0Ev@Base 4:15.08.0
 _ZN6Marble3kml24KmlOrientationTagHandlerD1Ev@Base 4:15.08.0
 _ZN6Marble3kml24KmlOrientationTagHandlerD2Ev@Base 4:15.08.0
 _ZN6Marble3kml24KmlResourceMapTagHandlerD0Ev@Base 4:15.08.0
 _ZN6Marble3kml24KmlResourceMapTagHandlerD1Ev@Base 4:15.08.0
 _ZN6Marble3kml24KmlResourceMapTagHandlerD2Ev@Base 4:15.08.0
 _ZN6Marble3kml24KmlSimpleFieldTagHandler11resolveTypeERK7QString@Base 4:15.08.0
 _ZN6Marble3kml24KmlSimpleFieldTagHandlerD0Ev@Base 4:15.08.0
 _ZN6Marble3kml24KmlSimpleFieldTagHandlerD1Ev@Base 4:15.08.0
 _ZN6Marble3kml24KmlSimpleFieldTagHandlerD2Ev@Base 4:15.08.0
 _ZN6Marble3kml24KmlTourControlTagHandlerD0Ev@Base 4:15.08.0
 _ZN6Marble3kml24KmlTourControlTagHandlerD1Ev@Base 4:15.08.0
 _ZN6Marble3kml24KmlTourControlTagHandlerD2Ev@Base 4:15.08.0
 _ZN6Marble3kml24KmlcoordinatesTagHandlerD0Ev@Base 4:15.08.0
 _ZN6Marble3kml24KmlcoordinatesTagHandlerD1Ev@Base 4:15.08.0
 _ZN6Marble3kml24KmlcoordinatesTagHandlerD2Ev@Base 4:15.08.0
 _ZN6Marble3kml24KmlcountrycodeTagHandlerD0Ev@Base 4:15.08.0
 _ZN6Marble3kml24KmlcountrycodeTagHandlerD1Ev@Base 4:15.08.0
 _ZN6Marble3kml24KmlcountrycodeTagHandlerD2Ev@Base 4:15.08.0
 _ZN6Marble3kml24KmldescriptionTagHandlerD0Ev@Base 4:15.08.0
 _ZN6Marble3kml24KmldescriptionTagHandlerD1Ev@Base 4:15.08.0
 _ZN6Marble3kml24KmldescriptionTagHandlerD2Ev@Base 4:15.08.0
 _ZN6Marble3kml24KmldisplayModeTagHandlerD0Ev@Base 4:15.08.0
 _ZN6Marble3kml24KmldisplayModeTagHandlerD1Ev@Base 4:15.08.0
 _ZN6Marble3kml24KmldisplayModeTagHandlerD2Ev@Base 4:15.08.0
 _ZN6Marble3kml24KmldisplayNameTagHandlerD0Ev@Base 4:15.08.0
 _ZN6Marble3kml24KmldisplayNameTagHandlerD1Ev@Base 4:15.08.0
 _ZN6Marble3kml24KmldisplayNameTagHandlerD2Ev@Base 4:15.08.0
 _ZN6Marble3kml24KmllinkSnippetTagHandlerD0Ev@Base 4:15.08.0
 _ZN6Marble3kml24KmllinkSnippetTagHandlerD1Ev@Base 4:15.08.0
 _ZN6Marble3kml24KmllinkSnippetTagHandlerD2Ev@Base 4:15.08.0
 _ZN6Marble3kml24KmlmaxAltitudeTagHandlerD0Ev@Base 4:15.08.0
 _ZN6Marble3kml24KmlmaxAltitudeTagHandlerD1Ev@Base 4:15.08.0
 _ZN6Marble3kml24KmlmaxAltitudeTagHandlerD2Ev@Base 4:15.08.0
 _ZN6Marble3kml24KmlminAltitudeTagHandlerD0Ev@Base 4:15.08.0
 _ZN6Marble3kml24KmlminAltitudeTagHandlerD1Ev@Base 4:15.08.0
 _ZN6Marble3kml24KmlminAltitudeTagHandlerD2Ev@Base 4:15.08.0
 _ZN6Marble3kml24KmlrefreshModeTagHandlerD0Ev@Base 4:15.08.0
 _ZN6Marble3kml24KmlrefreshModeTagHandlerD1Ev@Base 4:15.08.0
 _ZN6Marble3kml24KmlrefreshModeTagHandlerD2Ev@Base 4:15.08.0
 _ZN6Marble3kml24kmlTag_balloonVisibilityE@Base 4:15.08.0
 _ZN6Marble3kml24kmlTag_refreshVisibilityE@Base 4:15.08.0
 _ZN6Marble3kml25KmlBalloonStyleTagHandlerD0Ev@Base 4:15.08.0
 _ZN6Marble3kml25KmlBalloonStyleTagHandlerD1Ev@Base 4:15.08.0
 _ZN6Marble3kml25KmlBalloonStyleTagHandlerD2Ev@Base 4:15.08.0
 _ZN6Marble3kml25KmlExtendedDataTagHandlerD0Ev@Base 4:15.08.0
 _ZN6Marble3kml25KmlExtendedDataTagHandlerD1Ev@Base 4:15.08.0
 _ZN6Marble3kml25KmlExtendedDataTagHandlerD2Ev@Base 4:15.08.0
 _ZN6Marble3kml25KmlImagePyramidTagHandlerD0Ev@Base 4:15.08.0
 _ZN6Marble3kml25KmlImagePyramidTagHandlerD1Ev@Base 4:15.08.0
 _ZN6Marble3kml25KmlImagePyramidTagHandlerD2Ev@Base 4:15.08.0
 _ZN6Marble3kml25KmlLatLonAltBoxTagHandlerD0Ev@Base 4:15.08.0
 _ZN6Marble3kml25KmlLatLonAltBoxTagHandlerD1Ev@Base 4:15.08.0
 _ZN6Marble3kml25KmlLatLonAltBoxTagHandlerD2Ev@Base 4:15.08.0
 _ZN6Marble3kml25KmlPhotoOverlayTagHandlerD0Ev@Base 4:15.08.0
 _ZN6Marble3kml25KmlPhotoOverlayTagHandlerD1Ev@Base 4:15.08.0
 _ZN6Marble3kml25KmlPhotoOverlayTagHandlerD2Ev@Base 4:15.08.0
 _ZN6Marble3kml25KmlaltitudeModeTagHandlerD0Ev@Base 4:15.08.0
 _ZN6Marble3kml25KmlaltitudeModeTagHandlerD1Ev@Base 4:15.08.0
 _ZN6Marble3kml25KmlaltitudeModeTagHandlerD2Ev@Base 4:15.08.0
 _ZN6Marble3kml25KmldelayedStartTagHandlerD0Ev@Base 4:15.08.0
 _ZN6Marble3kml25KmldelayedStartTagHandlerD1Ev@Base 4:15.08.0
