# SymbolsHelper-Confirmed: 4:4.14.2 amd64
libmarblewidget.so.19 libmarblewidget19 #MINVER#
 _ZN13MarbleWebView11qt_metacallEN11QMetaObject4CallEiPPv@Base 4:4.13.90
 _ZN13MarbleWebView11qt_metacastEPKc@Base 4:4.13.90
 _ZN13MarbleWebView13keyPressEventEP9QKeyEvent@Base 4:4.13.90
 _ZN13MarbleWebView16contextMenuEventEP17QContextMenuEvent@Base 4:4.13.90
 _ZN13MarbleWebView16copySelectedTextEv@Base 4:4.13.90
 _ZN13MarbleWebView16staticMetaObjectE@Base 4:4.13.90
 _ZN13MarbleWebViewC1EP7QWidget@Base 4:4.13.90
 _ZN13MarbleWebViewC2EP7QWidget@Base 4:4.13.90
 _ZN13MarbleWebViewD0Ev@Base 4:4.13.90
 _ZN13MarbleWebViewD1Ev@Base 4:4.13.90
 _ZN13MarbleWebViewD2Ev@Base 4:4.13.90
 _ZN22KDescendantsProxyModel11qt_metacallEN11QMetaObject4CallEiPPv@Base 4:4.13.90
 _ZN22KDescendantsProxyModel11qt_metacastEPKc@Base 4:4.13.90
 _ZN22KDescendantsProxyModel14setSourceModelEP18QAbstractItemModel@Base 4:4.13.90
 _ZN22KDescendantsProxyModel16staticMetaObjectE@Base 4:4.13.90
 _ZN22KDescendantsProxyModel20setAncestorSeparatorERK7QString@Base 4:4.13.90
 _ZN22KDescendantsProxyModel22setDisplayAncestorDataEb@Base 4:4.13.90
 _ZN22KDescendantsProxyModelC1EP7QObject@Base 4:4.13.90
 _ZN22KDescendantsProxyModelC2EP7QObject@Base 4:4.13.90
 _ZN22KDescendantsProxyModelD0Ev@Base 4:4.13.90
 _ZN22KDescendantsProxyModelD1Ev@Base 4:4.13.90
 _ZN22KDescendantsProxyModelD2Ev@Base 4:4.13.90
 (subst)_ZN6Marble10GeoDataLod15setMaxLodPixelsE{qreal}@Base 4:4.13.90
 (subst)_ZN6Marble10GeoDataLod15setMinLodPixelsE{qreal}@Base 4:4.13.90
 (subst)_ZN6Marble10GeoDataLod16setMaxFadeExtentE{qreal}@Base 4:4.13.90
 (subst)_ZN6Marble10GeoDataLod16setMinFadeExtentE{qreal}@Base 4:4.13.90
 _ZN6Marble10GeoDataLod6unpackER11QDataStream@Base 4:4.13.90
 _ZN6Marble10GeoDataLodC1ERKS0_@Base 4:4.13.90
 _ZN6Marble10GeoDataLodC1Ev@Base 4:4.13.90
 _ZN6Marble10GeoDataLodC2ERKS0_@Base 4:4.13.90
 _ZN6Marble10GeoDataLodC2Ev@Base 4:4.13.90
 _ZN6Marble10GeoDataLodD0Ev@Base 4:4.13.90
 _ZN6Marble10GeoDataLodD1Ev@Base 4:4.13.90
 _ZN6Marble10GeoDataLodD2Ev@Base 4:4.13.90
 _ZN6Marble10GeoDataLodaSERKS0_@Base 4:4.13.90
 _ZN6Marble10GeoPainter10drawPixmapERKNS_18GeoDataCoordinatesERK7QPixmap@Base 4:4.13.90
 (subst)_ZN6Marble10GeoPainter11drawEllipseERKNS_18GeoDataCoordinatesE{qreal}{qreal}b@Base 4:4.13.90
 _ZN6Marble10GeoPainter11drawPolygonERKNS_14GeoDataPolygonEN2Qt8FillRuleE@Base 4:4.13.90
 _ZN6Marble10GeoPainter11drawPolygonERKNS_17GeoDataLinearRingEN2Qt8FillRuleE@Base 4:4.13.90
 _ZN6Marble10GeoPainter12drawPolylineERKNS_17GeoDataLineStringERK7QString6QFlagsINS_17LabelPositionFlagEE@Base 4:4.13.90
 _ZN6Marble10GeoPainter13drawRoundRectERKNS_18GeoDataCoordinatesEiiii@Base 4:4.13.90
 (subst)_ZN6Marble10GeoPainter14drawAnnotationERKNS_18GeoDataCoordinatesERK7QString6QSizeF{qreal}{qreal}{qreal}{qreal}@Base 4:4.13.90
 (subst)_ZN6Marble10GeoPainter8drawRectERKNS_18GeoDataCoordinatesE{qreal}{qreal}b@Base 4:4.13.90
 _ZN6Marble10GeoPainter8drawTextERKNS_18GeoDataCoordinatesERK7QString@Base 4:4.13.90
 _ZN6Marble10GeoPainter9drawImageERKNS_18GeoDataCoordinatesERK6QImage@Base 4:4.13.90
 _ZN6Marble10GeoPainter9drawPointERKNS_12GeoDataPointE@Base 4:4.13.90
 _ZN6Marble10GeoPainter9drawPointERKNS_18GeoDataCoordinatesE@Base 4:4.13.90
 _ZN6Marble10GeoPainterC1EP12QPaintDevicePKNS_14ViewportParamsENS_10MapQualityE@Base 4:4.13.90
 _ZN6Marble10GeoPainterC2EP12QPaintDevicePKNS_14ViewportParamsENS_10MapQualityE@Base 4:4.13.90
 _ZN6Marble10GeoPainterD1Ev@Base 4:4.13.90
 _ZN6Marble10GeoPainterD2Ev@Base 4:4.13.90
 _ZN6Marble10GoToDialog11qt_metacallEN11QMetaObject4CallEiPPv@Base 4:4.13.90
 _ZN6Marble10GoToDialog11qt_metacastEPKc@Base 4:4.13.90
 _ZN6Marble10GoToDialog16setSearchEnabledEb@Base 4:4.13.90
 _ZN6Marble10GoToDialog16staticMetaObjectE@Base 4:4.13.90
 _ZN6Marble10GoToDialog19setShowRoutingItemsEb@Base 4:4.13.90
 _ZN6Marble10GoToDialogC1EPNS_11MarbleModelEP7QWidget6QFlagsIN2Qt10WindowTypeEE@Base 4:4.13.90
 _ZN6Marble10GoToDialogC2EPNS_11MarbleModelEP7QWidget6QFlagsIN2Qt10WindowTypeEE@Base 4:4.13.90
 _ZN6Marble10GoToDialogD0Ev@Base 4:4.13.90
 _ZN6Marble10GoToDialogD1Ev@Base 4:4.13.90
 _ZN6Marble10GoToDialogD2Ev@Base 4:4.13.90
 _ZN6Marble10LatLonEdit11qt_metacallEN11QMetaObject4CallEiPPv@Base 4:4.13.90
 _ZN6Marble10LatLonEdit11qt_metacastEPKc@Base 4:4.13.90
 _ZN6Marble10LatLonEdit11recalculateEv@Base 4:4.13.90
 _ZN6Marble10LatLonEdit11setNotationENS_18GeoDataCoordinates8NotationE@Base 4:4.13.90
 _ZN6Marble10LatLonEdit12setDimensionENS_9DimensionE@Base 4:4.13.90
 (subst)_ZN6Marble10LatLonEdit12valueChangedE{qreal}@Base 4:4.13.90
 _ZN6Marble10LatLonEdit13onSignChangedEv@Base 4:4.13.90
 _ZN6Marble10LatLonEdit16staticMetaObjectE@Base 4:4.13.90
 _ZN6Marble10LatLonEdit21checkIntValueOverflowEv@Base 4:4.13.90
 _ZN6Marble10LatLonEdit22checkUIntValueOverflowEv@Base 4:4.13.90
 _ZN6Marble10LatLonEdit23checkFloatValueOverflowEv@Base 4:4.13.90
 (subst)_ZN6Marble10LatLonEdit8setValueE{qreal}@Base 4:4.13.90
 _ZN6Marble10LatLonEditC1EP7QWidgetNS_9DimensionENS_18GeoDataCoordinates8NotationE@Base 4:4.13.90
 _ZN6Marble10LatLonEditC2EP7QWidgetNS_9DimensionENS_18GeoDataCoordinates8NotationE@Base 4:4.13.90
 _ZN6Marble10LatLonEditD0Ev@Base 4:4.13.90
 _ZN6Marble10LatLonEditD1Ev@Base 4:4.13.90
 _ZN6Marble10LatLonEditD2Ev@Base 4:4.13.90
 _ZN6Marble10MarbleDirs10pluginPathERK7QString@Base 4:4.13.90
 _ZN6Marble10MarbleDirs10systemPathEv@Base 4:4.13.90
 _ZN6Marble10MarbleDirs13oldLocalPathsEv@Base 4:4.13.90
 _ZN6Marble10MarbleDirs14marbleDataPathEv@Base 4:4.13.90
 _ZN6Marble10MarbleDirs15pluginEntryListERK7QString6QFlagsIN4QDir6FilterEE@Base 4:4.13.90
 _ZN6Marble10MarbleDirs15pluginLocalPathEv@Base 4:4.13.90
 _ZN6Marble10MarbleDirs16marblePluginPathEv@Base 4:4.13.90
 _ZN6Marble10MarbleDirs16pluginSystemPathEv@Base 4:4.13.90
 _ZN6Marble10MarbleDirs17setMarbleDataPathERK7QString@Base 4:4.13.90
 _ZN6Marble10MarbleDirs19setMarblePluginPathERK7QString@Base 4:4.13.90
 _ZN6Marble10MarbleDirs4pathERK7QString@Base 4:4.13.90
 _ZN6Marble10MarbleDirs5debugEv@Base 4:4.13.90
 _ZN6Marble10MarbleDirs9entryListERK7QString6QFlagsIN4QDir6FilterEE@Base 4:4.13.90
 _ZN6Marble10MarbleDirs9localPathEv@Base 4:4.13.90
 _ZN6Marble10MarbleDirsC1Ev@Base 4:4.13.90
 _ZN6Marble10MarbleDirsC2Ev@Base 4:4.13.90
 _ZN6Marble10PopupLayer10setContentERK7QStringRK4QUrl@Base 4:4.13.90
 _ZN6Marble10PopupLayer10setVisibleEb@Base 4:4.13.90
 _ZN6Marble10PopupLayer11eventFilterEP7QObjectP6QEvent@Base 4:4.13.90
 _ZN6Marble10PopupLayer11qt_metacallEN11QMetaObject4CallEiPPv@Base 4:4.13.90
 _ZN6Marble10PopupLayer11qt_metacastEPKc@Base 4:4.13.90
 _ZN6Marble10PopupLayer12setTextColorERK6QColor@Base 4:4.13.90
 _ZN6Marble10PopupLayer13hidePopupItemEv@Base 4:4.13.90
 _ZN6Marble10PopupLayer13repaintNeededEv@Base 4:4.13.90
 _ZN6Marble10PopupLayer14setCoordinatesERKNS_18GeoDataCoordinatesE6QFlagsIN2Qt13AlignmentFlagEE@Base 4:4.13.90
 _ZN6Marble10PopupLayer16staticMetaObjectE@Base 4:4.13.90
 _ZN6Marble10PopupLayer18setBackgroundColorERK6QColor@Base 4:4.13.90
 _ZN6Marble10PopupLayer5popupEv@Base 4:4.13.90
 _ZN6Marble10PopupLayer6renderEPNS_10GeoPainterEPNS_14ViewportParamsERK7QStringPNS_13GeoSceneLayerE@Base 4:4.13.90
 _ZN6Marble10PopupLayer6setUrlERK4QUrl@Base 4:4.13.90
 _ZN6Marble10PopupLayer7Private18setAppropriateSizeEPKNS_14ViewportParamsE@Base 4:4.13.90
 _ZN6Marble10PopupLayer7PrivateC1EPNS_12MarbleWidgetEPS0_@Base 4:4.13.90
 _ZN6Marble10PopupLayer7PrivateC2EPNS_12MarbleWidgetEPS0_@Base 4:4.13.90
 _ZN6Marble10PopupLayer7setSizeERK6QSizeF@Base 4:4.13.90
 _ZN6Marble10PopupLayerC1EPNS_12MarbleWidgetEP7QObject@Base 4:4.13.90
 _ZN6Marble10PopupLayerC2EPNS_12MarbleWidgetEP7QObject@Base 4:4.13.90
 _ZN6Marble10PopupLayerD0Ev@Base 4:4.13.90
 _ZN6Marble10PopupLayerD1Ev@Base 4:4.13.90
 _ZN6Marble10PopupLayerD2Ev@Base 4:4.13.90
 (subst)_ZN6Marble10Quaternion13fromSphericalE{qreal}{qreal}@Base 4:4.13.90
 (subst)_ZN6Marble10Quaternion16rotateAroundAxisERA3_A4_K{qreal}@Base 4:4.13.90
 _ZN6Marble10Quaternion16rotateAroundAxisERKS0_@Base 4:4.13.90
 (subst)_ZN6Marble10Quaternion5nlerpERKS0_S2_{qreal}@Base 4:4.13.90
 (subst)_ZN6Marble10Quaternion5slerpERKS0_S2_{qreal}@Base 4:4.13.90
 (subst)_ZN6Marble10Quaternion9fromEulerE{qreal}{qreal}{qreal}@Base 4:4.13.90
 _ZN6Marble10Quaternion9normalizeEv@Base 4:4.13.90
 _ZN6Marble10QuaternionC1Ev@Base 4:4.13.90
 (subst)_ZN6Marble10QuaternionC1E{qreal}{qreal}{qreal}{qreal}@Base 4:4.13.90
 _ZN6Marble10QuaternionC2Ev@Base 4:4.13.90
 (subst)_ZN6Marble10QuaternionC2E{qreal}{qreal}{qreal}{qreal}@Base 4:4.13.90
 _ZN6Marble10QuaternionmLERKS0_@Base 4:4.13.90
 (subst)_ZN6Marble10QuaternionmLE{qreal}@Base 4:4.13.90
 _ZN6Marble10SunLocator11qt_metacallEN11QMetaObject4CallEiPPv@Base 4:4.13.90
 _ZN6Marble10SunLocator11qt_metacastEPKc@Base 4:4.13.90
 _ZN6Marble10SunLocator14updatePositionEv@Base 4:4.13.90
 (subst)_ZN6Marble10SunLocator15positionChangedE{qreal}{qreal}@Base 4:4.13.90
 _ZN6Marble10SunLocator16staticMetaObjectE@Base 4:4.13.90
 _ZN6Marble10SunLocator6updateEv@Base 4:4.13.90
 _ZN6Marble10SunLocator9setPlanetEPKNS_6PlanetE@Base 4:4.13.90
 _ZN6Marble10SunLocatorC1EPKNS_11MarbleClockEPKNS_6PlanetE@Base 4:4.13.90
 _ZN6Marble10SunLocatorC2EPKNS_11MarbleClockEPKNS_6PlanetE@Base 4:4.13.90
 _ZN6Marble10SunLocatorD0Ev@Base 4:4.13.90
 _ZN6Marble10SunLocatorD1Ev@Base 4:4.13.90
 _ZN6Marble10SunLocatorD2Ev@Base 4:4.13.90
 _ZN6Marble10TourWidget11qt_metacallEN11QMetaObject4CallEiPPv@Base 4:4.13.90
 _ZN6Marble10TourWidget11qt_metacastEPKc@Base 4:4.13.90
 _ZN6Marble10TourWidget11stopPlayingEv@Base 4:4.13.90
 _ZN6Marble10TourWidget12pausePlayingEv@Base 4:4.13.90
 _ZN6Marble10TourWidget12startPlayingEv@Base 4:4.13.90
 _ZN6Marble10TourWidget13togglePlayingEv@Base 4:4.13.90
 _ZN6Marble10TourWidget14deleteSelectedEv@Base 4:4.13.90
 _ZN6Marble10TourWidget14featureUpdatedEPNS_14GeoDataFeatureE@Base 4:4.13.90
 _ZN6Marble10TourWidget15setMarbleWidgetEPNS_12MarbleWidgetE@Base 4:4.13.90
 _ZN6Marble10TourWidget16handleSliderMoveEi@Base 4:4.13.90
 _ZN6Marble10TourWidget16staticMetaObjectE@Base 4:4.13.90
 _ZN6Marble10TourWidget6moveUpEv@Base 4:4.13.90
 _ZN6Marble10TourWidget8addFlyToEv@Base 4:4.13.90
 _ZN6Marble10TourWidget8centerOnERKNS_18GeoDataCoordinatesE@Base 4:4.13.90
 _ZN6Marble10TourWidget8moveDownEv@Base 4:4.13.90
 _ZN6Marble10TourWidget8openTourERK7QString@Base 4:4.13.90
 _ZN6Marble10TourWidgetC1EP7QWidget6QFlagsIN2Qt10WindowTypeEE@Base 4:4.13.90
 _ZN6Marble10TourWidgetC2EP7QWidget6QFlagsIN2Qt10WindowTypeEE@Base 4:4.13.90
 _ZN6Marble10TourWidgetD0Ev@Base 4:4.13.90
 _ZN6Marble10TourWidgetD1Ev@Base 4:4.13.90
 _ZN6Marble10TourWidgetD2Ev@Base 4:4.13.90
 _ZN6Marble10geoDataDocERNS_9GeoParserE@Base 4:4.13.90
 _ZN6Marble11ClipPainter11drawPolygonERK9QPolygonFN2Qt8FillRuleE@Base 4:4.13.90
 _ZN6Marble11ClipPainter11setClippingEb@Base 4:4.13.90
 _ZN6Marble11ClipPainter12drawPolylineERK9QPolygonF@Base 4:4.13.90
 _ZN6Marble11ClipPainter12drawPolylineERK9QPolygonFR7QVectorI7QPointFE6QFlagsINS_17LabelPositionFlagEE@Base 4:4.13.90
 _ZN6Marble11ClipPainterC1EP12QPaintDeviceb@Base 4:4.13.90
 _ZN6Marble11ClipPainterC1Ev@Base 4:4.13.90
 _ZN6Marble11ClipPainterC2EP12QPaintDeviceb@Base 4:4.13.90
 _ZN6Marble11ClipPainterC2Ev@Base 4:4.13.90
 _ZN6Marble11ClipPainterD1Ev@Base 4:4.13.90
 _ZN6Marble11ClipPainterD2Ev@Base 4:4.13.90
 _ZN6Marble11GeoDataData14setDisplayNameERK7QString@Base 4:4.13.90
 _ZN6Marble11GeoDataData6unpackER11QDataStream@Base 4:4.13.90
 _ZN6Marble11GeoDataData7setNameERK7QString@Base 4:4.13.90
 _ZN6Marble11GeoDataData8setValueERK8QVariant@Base 4:4.13.90
 _ZN6Marble11GeoDataDataC1ERK7QStringRK8QVariant@Base 4:4.13.90
 _ZN6Marble11GeoDataDataC1ERKS0_@Base 4:4.13.90
 _ZN6Marble11GeoDataDataC1Ev@Base 4:4.13.90
 _ZN6Marble11GeoDataDataC2ERK7QStringRK8QVariant@Base 4:4.13.90
 _ZN6Marble11GeoDataDataC2ERKS0_@Base 4:4.13.90
 _ZN6Marble11GeoDataDataC2Ev@Base 4:4.13.90
 _ZN6Marble11GeoDataDataD0Ev@Base 4:4.13.90
 _ZN6Marble11GeoDataDataD1Ev@Base 4:4.13.90
 _ZN6Marble11GeoDataDataD2Ev@Base 4:4.13.90
 _ZN6Marble11GeoDataDataaSERKS0_@Base 4:4.13.90
 _ZN6Marble11GeoDataLink12setHttpQueryERK7QString@Base 4:4.13.90
 _ZN6Marble11GeoDataLink13setViewFormatERK7QString@Base 4:4.13.90
 _ZN6Marble11GeoDataLink14setRefreshModeENS0_11RefreshModeE@Base 4:4.13.90
 (subst)_ZN6Marble11GeoDataLink17setViewBoundScaleE{qreal}@Base 4:4.13.90
 (subst)_ZN6Marble11GeoDataLink18setRefreshIntervalE{qreal}@Base 4:4.13.90
 _ZN6Marble11GeoDataLink18setViewRefreshModeENS0_15ViewRefreshModeE@Base 4:4.13.90
 (subst)_ZN6Marble11GeoDataLink18setViewRefreshTimeE{qreal}@Base 4:4.13.90
 _ZN6Marble11GeoDataLink7setHrefE7QString@Base 4:4.13.90
 _ZN6Marble11GeoDataLinkC1ERKS0_@Base 4:4.13.90
 _ZN6Marble11GeoDataLinkC1Ev@Base 4:4.13.90
 _ZN6Marble11GeoDataLinkC2ERKS0_@Base 4:4.13.90
 _ZN6Marble11GeoDataLinkC2Ev@Base 4:4.13.90
 _ZN6Marble11GeoDataLinkD0Ev@Base 4:4.13.90
 _ZN6Marble11GeoDataLinkD1Ev@Base 4:4.13.90
 _ZN6Marble11GeoDataLinkD2Ev@Base 4:4.13.90
 _ZN6Marble11GeoDataLinkaSERKS0_@Base 4:4.13.90
 _ZN6Marble11GeoDataLinkeqERKS0_@Base 4:4.13.90
 _ZN6Marble11GeoDataLinkneERKS0_@Base 4:4.13.90
 _ZN6Marble11GeoDataTour11setPlaylistEPNS_15GeoDataPlaylistE@Base 4:4.13.90
 _ZN6Marble11GeoDataTour4nullE@Base 4:4.13.90
 _ZN6Marble11GeoDataTour8playlistEv@Base 4:4.13.90
 _ZN6Marble11GeoDataTourC1ERKS0_@Base 4:4.13.90
 _ZN6Marble11GeoDataTourC1Ev@Base 4:4.13.90
 _ZN6Marble11GeoDataTourC2ERKS0_@Base 4:4.13.90
 _ZN6Marble11GeoDataTourC2Ev@Base 4:4.13.90
 _ZN6Marble11GeoDataTourD0Ev@Base 4:4.13.90
 _ZN6Marble11GeoDataTourD1Ev@Base 4:4.13.90
 _ZN6Marble11GeoDataTourD2Ev@Base 4:4.13.90
 _ZN6Marble11GeoDataTouraSERKS0_@Base 4:4.13.90
 _ZN6Marble11GeoDataVec29setXunitsENS0_4UnitE@Base 4:4.13.90
 _ZN6Marble11GeoDataVec29setYunitsENS0_4UnitE@Base 4:4.13.90
 _ZN6Marble11GeoDataVec2C1ERKS0_@Base 4:4.13.90
 (subst)_ZN6Marble11GeoDataVec2C1ERK{qreal}S2_RK7QStringS5_@Base 4:4.13.90
 _ZN6Marble11GeoDataVec2C1Ev@Base 4:4.13.90
 _ZN6Marble11GeoDataVec2C2ERKS0_@Base 4:4.13.90
 (subst)_ZN6Marble11GeoDataVec2C2ERK{qreal}S2_RK7QStringS5_@Base 4:4.13.90
 _ZN6Marble11GeoDataVec2C2Ev@Base 4:4.13.90
 _ZN6Marble11GeoDataVec2D1Ev@Base 4:4.13.90
 _ZN6Marble11GeoDataVec2D2Ev@Base 4:4.13.90
 _ZN6Marble11GeoDataVec2aSERKS0_@Base 4:4.13.90
 _ZN6Marble11GeoDataWait11setDurationEd@Base 4:4.13.90
 _ZN6Marble11GeoDataWaitC1Ev@Base 4:4.13.90
 _ZN6Marble11GeoDataWaitC2Ev@Base 4:4.13.90
 _ZN6Marble11GeoDataWaitD0Ev@Base 4:4.13.90
 _ZN6Marble11GeoDataWaitD1Ev@Base 4:4.13.90
 _ZN6Marble11GeoDataWaitD2Ev@Base 4:4.13.90
 _ZN6Marble11GeoDocumentC1Ev@Base 4:4.13.90
 _ZN6Marble11GeoDocumentC2Ev@Base 4:4.13.90
 _ZN6Marble11GeoDocumentD0Ev@Base 4:4.13.90
 _ZN6Marble11GeoDocumentD1Ev@Base 4:4.13.90
 _ZN6Marble11GeoDocumentD2Ev@Base 4:4.13.90
 _ZN6Marble11GeoSceneMap13setLabelColorERK6QColor@Base 4:4.13.90
 _ZN6Marble11GeoSceneMap18setBackgroundColorERK6QColor@Base 4:4.13.90
 _ZN6Marble11GeoSceneMap5layerERK7QString@Base 4:4.13.90
 _ZN6Marble11GeoSceneMap6filterERK7QString@Base 4:4.13.90
 _ZN6Marble11GeoSceneMap8addLayerEPNS_13GeoSceneLayerE@Base 4:4.13.90
 _ZN6Marble11GeoSceneMap9addFilterEPNS_14GeoSceneFilterE@Base 4:4.13.90
 _ZN6Marble11GeoSceneMapC1Ev@Base 4:4.13.90
 _ZN6Marble11GeoSceneMapC2Ev@Base 4:4.13.90
 _ZN6Marble11GeoSceneMapD0Ev@Base 4:4.13.90
 _ZN6Marble11GeoSceneMapD1Ev@Base 4:4.13.90
 _ZN6Marble11GeoSceneMapD2Ev@Base 4:4.13.90
 _ZN6Marble11MarbleClock11qt_metacallEN11QMetaObject4CallEiPPv@Base 4:4.13.90
 _ZN6Marble11MarbleClock11qt_metacastEPKc@Base 4:4.13.90
 _ZN6Marble11MarbleClock11setDateTimeERK9QDateTime@Base 4:4.13.90
 _ZN6Marble11MarbleClock11setTimezoneEi@Base 4:4.13.90
 _ZN6Marble11MarbleClock11timeChangedEv@Base 4:4.13.90
 _ZN6Marble11MarbleClock16staticMetaObjectE@Base 4:4.13.90
 _ZN6Marble11MarbleClock17setUpdateIntervalEi@Base 4:4.13.90
 _ZN6Marble11MarbleClock21updateIntervalChangedEi@Base 4:4.13.90
 _ZN6Marble11MarbleClock8setSpeedEi@Base 4:4.13.90
 _ZN6Marble11MarbleClockC1EP7QObject@Base 4:4.13.90
 _ZN6Marble11MarbleClockC2EP7QObject@Base 4:4.13.90
 _ZN6Marble11MarbleClockD0Ev@Base 4:4.13.90
 _ZN6Marble11MarbleClockD1Ev@Base 4:4.13.90
 _ZN6Marble11MarbleClockD2Ev@Base 4:4.13.90
 _ZN6Marble11MarbleDebug10setEnabledEb@Base 4:4.13.90
 _ZN6Marble11MarbleDebug9isEnabledEv@Base 4:4.13.90
 _ZN6Marble11MarbleDebug9m_enabledE@Base 4:4.13.90
 _ZN6Marble11MarbleModel10sunLocatorEv@Base 4:4.13.90
 _ZN6Marble11MarbleModel11fileManagerEv@Base 4:4.13.90
 _ZN6Marble11MarbleModel11homeChangedERKNS_18GeoDataCoordinatesE@Base 4:4.13.90
 _ZN6Marble11MarbleModel11qt_metacallEN11QMetaObject4CallEiPPv@Base 4:4.13.90
 _ZN6Marble11MarbleModel11qt_metacastEPKc@Base 4:4.13.90
 _ZN6Marble11MarbleModel12themeChangedE7QString@Base 4:4.13.90
 _ZN6Marble11MarbleModel13pluginManagerEv@Base 4:4.13.90
 _ZN6Marble11MarbleModel13removeGeoDataERK7QString@Base 4:4.13.90
 _ZN6Marble11MarbleModel13setClockSpeedEi@Base 4:4.13.90
 _ZN6Marble11MarbleModel13setMapThemeIdERK7QString@Base 4:4.13.90
 _ZN6Marble11MarbleModel14addGeoDataFileERK7QString@Base 4:4.13.90
 _ZN6Marble11MarbleModel14assignNewStyleERK7QStringPNS_12GeoDataStyleE@Base 4:4.13.90
 _ZN6Marble11MarbleModel14elevationModelEv@Base 4:4.13.90
 _ZN6Marble11MarbleModel14placemarkModelEv@Base 4:4.13.90
 _ZN6Marble11MarbleModel14routingManagerEv@Base 4:4.13.90
 _ZN6Marble11MarbleModel14setWorkOfflineEb@Base 4:4.13.90
 _ZN6Marble11MarbleModel14updatePropertyERK7QStringb@Base 4:4.13.90
 _ZN6Marble11MarbleModel15bookmarkManagerEv@Base 4:4.13.90
 _ZN6Marble11MarbleModel15downloadManagerEv@Base 4:4.13.90
 _ZN6Marble11MarbleModel16addGeoDataStringERK7QStringS3_@Base 4:4.13.90
 _ZN6Marble11MarbleModel16assignFillColorsERK7QString@Base 4:4.13.90
 _ZN6Marble11MarbleModel16setClockDateTimeERK9QDateTime@Base 4:4.13.90
 _ZN6Marble11MarbleModel16setClockTimezoneEi@Base 4:4.13.90
 _ZN6Marble11MarbleModel16staticMetaObjectE@Base 4:4.13.90
 _ZN6Marble11MarbleModel18creatingTilesStartEPNS_11TileCreatorERK7QStringS5_@Base 4:4.13.90
 _ZN6Marble11MarbleModel18groundOverlayModelEv@Base 4:4.13.90
 _ZN6Marble11MarbleModel18workOfflineChangedEv@Base 4:4.13.90
 _ZN6Marble11MarbleModel19addDownloadPoliciesEPKNS_16GeoSceneDocumentE@Base 4:4.13.90
 _ZN6Marble11MarbleModel19setTrackedPlacemarkEPKNS_16GeoDataPlacemarkE@Base 4:4.13.90
 _ZN6Marble11MarbleModel23placemarkSelectionModelEv@Base 4:4.13.90
 _ZN6Marble11MarbleModel23trackedPlacemarkChangedEPKNS_16GeoDataPlacemarkE@Base 4:4.13.90
 _ZN6Marble11MarbleModel24clearPersistentTileCacheEv@Base 4:4.13.90
 _ZN6Marble11MarbleModel27setPersistentTileCacheLimitEy@Base 4:4.13.90
 _ZN6Marble11MarbleModel5clockEv@Base 4:4.13.90
 _ZN6Marble11MarbleModel6legendEv@Base 4:4.13.90
 _ZN6Marble11MarbleModel7setHomeERKNS_18GeoDataCoordinatesEi@Base 4:4.13.90
 (subst)_ZN6Marble11MarbleModel7setHomeE{qreal}{qreal}i@Base 4:4.13.90
 _ZN6Marble11MarbleModel8mapThemeEv@Base 4:4.13.90
 _ZN6Marble11MarbleModel9setLegendEP13QTextDocument@Base 4:4.13.90
 _ZN6Marble11MarbleModel9treeModelEv@Base 4:4.13.90
 _ZN6Marble11MarbleModelC1EP7QObject@Base 4:4.13.90
 _ZN6Marble11MarbleModelC2EP7QObject@Base 4:4.13.90
 _ZN6Marble11MarbleModelD0Ev@Base 4:4.13.90
 _ZN6Marble11MarbleModelD1Ev@Base 4:4.13.90
 _ZN6Marble11MarbleModelD2Ev@Base 4:4.13.90
 _ZN6Marble11RenderState7PrivateC1ERK7QStringNS_12RenderStatusE@Base 4:4.13.90
 _ZN6Marble11RenderState7PrivateC2ERK7QStringNS_12RenderStatusE@Base 4:4.13.90
 _ZN6Marble11RenderState8addChildERKS0_@Base 4:4.13.90
 _ZN6Marble11RenderStateC1ERK7QStringNS_12RenderStatusE@Base 4:4.13.90
 _ZN6Marble11RenderStateC1ERKS0_@Base 4:4.13.90
 _ZN6Marble11RenderStateC2ERK7QStringNS_12RenderStatusE@Base 4:4.13.90
 _ZN6Marble11RenderStateC2ERKS0_@Base 4:4.13.90
 _ZN6Marble11RenderStateD1Ev@Base 4:4.13.90
 _ZN6Marble11RenderStateD2Ev@Base 4:4.13.90
 _ZN6Marble11RenderStateaSERKS0_@Base 4:4.13.90
 _ZN6Marble11TileCreator11qt_metacallEN11QMetaObject4CallEiPPv@Base 4:4.13.90
 _ZN6Marble11TileCreator11qt_metacastEPKc@Base 4:4.13.90
 _ZN6Marble11TileCreator13setTileFormatERK7QString@Base 4:4.13.90
 _ZN6Marble11TileCreator14setTileQualityEi@Base 4:4.13.90
 _ZN6Marble11TileCreator16staticMetaObjectE@Base 4:4.13.90
 _ZN6Marble11TileCreator18cancelTileCreationEv@Base 4:4.13.90
 _ZN6Marble11TileCreator20setVerifyExactResultEb@Base 4:4.13.90
 _ZN6Marble11TileCreator3runEv@Base 4:4.13.90
 _ZN6Marble11TileCreator8progressEi@Base 4:4.13.90
 _ZN6Marble11TileCreator9setResumeEb@Base 4:4.13.90
 _ZN6Marble11TileCreatorC1EPNS_17TileCreatorSourceERK7QStringS5_@Base 4:4.13.90
 _ZN6Marble11TileCreatorC1ERK7QStringS3_S3_S3_@Base 4:4.13.90
 _ZN6Marble11TileCreatorC2EPNS_17TileCreatorSourceERK7QStringS5_@Base 4:4.13.90
 _ZN6Marble11TileCreatorC2ERK7QStringS3_S3_S3_@Base 4:4.13.90
 _ZN6Marble11TileCreatorD0Ev@Base 4:4.13.90
 _ZN6Marble11TileCreatorD1Ev@Base 4:4.13.90
 _ZN6Marble11TileCreatorD2Ev@Base 4:4.13.90
 _ZN6Marble12GeoDataAlias13setSourceHrefERK7QString@Base 4:4.13.90
 _ZN6Marble12GeoDataAlias13setTargetHrefERK7QString@Base 4:4.13.90
 _ZN6Marble12GeoDataAliasC1ERKS0_@Base 4:4.13.90
 _ZN6Marble12GeoDataAliasC1Ev@Base 4:4.13.90
 _ZN6Marble12GeoDataAliasC2ERKS0_@Base 4:4.13.90
 _ZN6Marble12GeoDataAliasC2Ev@Base 4:4.13.90
 _ZN6Marble12GeoDataAliasD0Ev@Base 4:4.13.90
 _ZN6Marble12GeoDataAliasD1Ev@Base 4:4.13.90
 _ZN6Marble12GeoDataAliasD2Ev@Base 4:4.13.90
 _ZN6Marble12GeoDataAliasaSERKS0_@Base 4:4.13.90
 _ZN6Marble12GeoDataFlyTo11setDurationEd@Base 4:4.13.90
 _ZN6Marble12GeoDataFlyTo12setFlyToModeENS0_9FlyToModeE@Base 4:4.13.90
 _ZN6Marble12GeoDataFlyTo4viewEv@Base 4:4.13.90
 _ZN6Marble12GeoDataFlyTo7setViewEPNS_19GeoDataAbstractViewE@Base 4:4.13.90
 _ZN6Marble12GeoDataFlyToC1ERKS0_@Base 4:4.13.90
 _ZN6Marble12GeoDataFlyToC1Ev@Base 4:4.13.90
 _ZN6Marble12GeoDataFlyToC2ERKS0_@Base 4:4.13.90
 _ZN6Marble12GeoDataFlyToC2Ev@Base 4:4.13.90
 _ZN6Marble12GeoDataFlyToD0Ev@Base 4:4.13.90
 _ZN6Marble12GeoDataFlyToD1Ev@Base 4:4.13.90
 _ZN6Marble12GeoDataFlyToD2Ev@Base 4:4.13.90
 _ZN6Marble12GeoDataFlyToaSERKS0_@Base 4:4.13.90
 _ZN6Marble12GeoDataModel11coordinatesEv@Base 4:4.13.90
 _ZN6Marble12GeoDataModel11orientationEv@Base 4:4.13.90
 _ZN6Marble12GeoDataModel11resourceMapEv@Base 4:4.13.90
 _ZN6Marble12GeoDataModel11setLocationERKNS_15GeoDataLocationE@Base 4:4.13.90
 _ZN6Marble12GeoDataModel13setSourceHrefERK7QString@Base 4:4.13.90
 _ZN6Marble12GeoDataModel13setTargetHrefERK7QString@Base 4:4.13.90
 _ZN6Marble12GeoDataModel14setCoordinatesERKNS_18GeoDataCoordinatesE@Base 4:4.13.90
 _ZN6Marble12GeoDataModel14setOrientationERKNS_18GeoDataOrientationE@Base 4:4.13.90
 _ZN6Marble12GeoDataModel14setResourceMapERKNS_18GeoDataResourceMapE@Base 4:4.13.90
 _ZN6Marble12GeoDataModel4linkEv@Base 4:4.13.90
 _ZN6Marble12GeoDataModel5scaleEv@Base 4:4.13.90
 _ZN6Marble12GeoDataModel7setLinkERKNS_11GeoDataLinkE@Base 4:4.13.90
 _ZN6Marble12GeoDataModel8locationEv@Base 4:4.13.90
 _ZN6Marble12GeoDataModel8setScaleERKNS_12GeoDataScaleE@Base 4:4.13.90
 _ZN6Marble12GeoDataModelC1ERKS0_@Base 4:4.13.90
 _ZN6Marble12GeoDataModelC1Ev@Base 4:4.13.90
 _ZN6Marble12GeoDataModelC2ERKS0_@Base 4:4.13.90
 _ZN6Marble12GeoDataModelC2Ev@Base 4:4.13.90
 _ZN6Marble12GeoDataModelD0Ev@Base 4:4.13.90
 _ZN6Marble12GeoDataModelD1Ev@Base 4:4.13.90
 _ZN6Marble12GeoDataModelD2Ev@Base 4:4.13.90
 _ZN6Marble12GeoDataModelaSERKS0_@Base 4:4.13.90
 _ZN6Marble12GeoDataPoint14setCoordinatesERKNS_18GeoDataCoordinatesE@Base 4:4.13.90
 _ZN6Marble12GeoDataPoint1pEv@Base 4:4.13.90
 _ZN6Marble12GeoDataPoint6detachEv@Base 4:4.13.90
 _ZN6Marble12GeoDataPoint6unpackER11QDataStream@Base 4:4.13.90
 _ZN6Marble12GeoDataPointC1ERKNS_18GeoDataCoordinatesE@Base 4:4.13.90
 _ZN6Marble12GeoDataPointC1ERKS0_@Base 4:4.13.90
 _ZN6Marble12GeoDataPointC1Ev@Base 4:4.13.90
 (subst)_ZN6Marble12GeoDataPointC1E{qreal}{qreal}{qreal}NS_18GeoDataCoordinates4UnitE@Base 4:4.13.90
 _ZN6Marble12GeoDataPointC2ERKNS_18GeoDataCoordinatesE@Base 4:4.13.90
 _ZN6Marble12GeoDataPointC2ERKS0_@Base 4:4.13.90
 _ZN6Marble12GeoDataPointC2Ev@Base 4:4.13.90
 (subst)_ZN6Marble12GeoDataPointC2E{qreal}{qreal}{qreal}NS_18GeoDataCoordinates4UnitE@Base 4:4.13.90
 _ZN6Marble12GeoDataPointD0Ev@Base 4:4.13.90
 _ZN6Marble12GeoDataPointD1Ev@Base 4:4.13.90
 _ZN6Marble12GeoDataPointD2Ev@Base 4:4.13.90
 _ZN6Marble12GeoDataScale4setXEd@Base 4:4.13.90
 _ZN6Marble12GeoDataScale4setYEd@Base 4:4.13.90
 _ZN6Marble12GeoDataScale4setZEd@Base 4:4.13.90
 _ZN6Marble12GeoDataScaleC1ERKS0_@Base 4:4.13.90
 _ZN6Marble12GeoDataScaleC1Ev@Base 4:4.13.90
 _ZN6Marble12GeoDataScaleC2ERKS0_@Base 4:4.13.90
 _ZN6Marble12GeoDataScaleC2Ev@Base 4:4.13.90
 _ZN6Marble12GeoDataScaleD0Ev@Base 4:4.13.90
 _ZN6Marble12GeoDataScaleD1Ev@Base 4:4.13.90
 _ZN6Marble12GeoDataScaleD2Ev@Base 4:4.13.90
 _ZN6Marble12GeoDataScaleaSERKS0_@Base 4:4.13.90
 _ZN6Marble12GeoDataStyle10labelStyleEv@Base 4:4.13.90
 _ZN6Marble12GeoDataStyle12balloonStyleEv@Base 4:4.13.90
 _ZN6Marble12GeoDataStyle12setIconStyleERKNS_16GeoDataIconStyleE@Base 4:4.13.90
 _ZN6Marble12GeoDataStyle12setLineStyleERKNS_16GeoDataLineStyleE@Base 4:4.13.90
 _ZN6Marble12GeoDataStyle12setListStyleERKNS_16GeoDataListStyleE@Base 4:4.13.90
 _ZN6Marble12GeoDataStyle12setPolyStyleERKNS_16GeoDataPolyStyleE@Base 4:4.13.90
 _ZN6Marble12GeoDataStyle13setLabelStyleERKNS_17GeoDataLabelStyleE@Base 4:4.13.90
 _ZN6Marble12GeoDataStyle15setBalloonStyleERKNS_19GeoDataBalloonStyleE@Base 4:4.13.90
 _ZN6Marble12GeoDataStyle6unpackER11QDataStream@Base 4:4.13.90
 _ZN6Marble12GeoDataStyle9iconStyleEv@Base 4:4.13.90
 _ZN6Marble12GeoDataStyle9lineStyleEv@Base 4:4.13.90
 _ZN6Marble12GeoDataStyle9listStyleEv@Base 4:4.13.90
 _ZN6Marble12GeoDataStyle9polyStyleEv@Base 4:4.13.90
 _ZN6Marble12GeoDataStyleC1ERK6QImageRK5QFontRK6QColor@Base 4:4.13.90
 _ZN6Marble12GeoDataStyleC1ERKS0_@Base 4:4.13.90
 _ZN6Marble12GeoDataStyleC1Ev@Base 4:4.13.90
 _ZN6Marble12GeoDataStyleC2ERK6QImageRK5QFontRK6QColor@Base 4:4.13.90
 _ZN6Marble12GeoDataStyleC2ERKS0_@Base 4:4.13.90
 _ZN6Marble12GeoDataStyleC2Ev@Base 4:4.13.90
 _ZN6Marble12GeoDataStyleD0Ev@Base 4:4.13.90
 _ZN6Marble12GeoDataStyleD1Ev@Base 4:4.13.90
 _ZN6Marble12GeoDataStyleD2Ev@Base 4:4.13.90
 _ZN6Marble12GeoDataStyleaSERKS0_@Base 4:4.13.90
 _ZN6Marble12GeoDataTrack10appendWhenERK9QDateTime@Base 4:4.13.90
 _ZN6Marble12GeoDataTrack11removeAfterERK9QDateTime@Base 4:4.13.90
 _ZN6Marble12GeoDataTrack12removeBeforeERK9QDateTime@Base 4:4.13.90
 (subst)_ZN6Marble12GeoDataTrack14appendAltitudeE{qreal}@Base 4:4.13.90
 _ZN6Marble12GeoDataTrack14setInterpolateEb@Base 4:4.13.90
 _ZN6Marble12GeoDataTrack15setExtendedDataERKNS_19GeoDataExtendedDataE@Base 4:4.13.90
 _ZN6Marble12GeoDataTrack17appendCoordinatesERKNS_18GeoDataCoordinatesE@Base 4:4.13.90
 _ZN6Marble12GeoDataTrack5clearEv@Base 4:4.13.90
 _ZN6Marble12GeoDataTrack6unpackER11QDataStream@Base 4:4.13.90
 _ZN6Marble12GeoDataTrack8addPointERK9QDateTimeRKNS_18GeoDataCoordinatesE@Base 4:4.13.90
 _ZN6Marble12GeoDataTrackC1ERKNS_15GeoDataGeometryE@Base 4:4.13.90
 _ZN6Marble12GeoDataTrackC1Ev@Base 4:4.13.90
 _ZN6Marble12GeoDataTrackC2ERKNS_15GeoDataGeometryE@Base 4:4.13.90
 _ZN6Marble12GeoDataTrackC2Ev@Base 4:4.13.90
 _ZN6Marble12GeoDataTrackD0Ev@Base 4:4.13.90
 _ZN6Marble12GeoDataTrackD1Ev@Base 4:4.13.90
 _ZN6Marble12GeoDataTrackD2Ev@Base 4:4.13.90
 _ZN6Marble12GeoDataTypes14GeoDataLodTypeE@Base 4:4.13.90
 _ZN6Marble12GeoDataTypes15GeoDataDataTypeE@Base 4:4.13.90
 _ZN6Marble12GeoDataTypes15GeoDataLinkTypeE@Base 4:4.13.90
 _ZN6Marble12GeoDataTypes15GeoDataTourTypeE@Base 4:4.13.90
 _ZN6Marble12GeoDataTypes15GeoDataWaitTypeE@Base 4:4.13.90
 _ZN6Marble12GeoDataTypes16GeoDataAliasTypeE@Base 4:4.13.90
 _ZN6Marble12GeoDataTypes16GeoDataFlyToTypeE@Base 4:4.13.90
 _ZN6Marble12GeoDataTypes16GeoDataModelTypeE@Base 4:4.13.90
 _ZN6Marble12GeoDataTypes16GeoDataPointTypeE@Base 4:4.13.90
 _ZN6Marble12GeoDataTypes16GeoDataScaleTypeE@Base 4:4.13.90
 _ZN6Marble12GeoDataTypes16GeoDataStyleTypeE@Base 4:4.13.90
 _ZN6Marble12GeoDataTypes16GeoDataTrackTypeE@Base 4:4.13.90
 _ZN6Marble12GeoDataTypes17GeoDataCameraTypeE@Base 4:4.13.90
 _ZN6Marble12GeoDataTypes17GeoDataChangeTypeE@Base 4:4.13.90
 _ZN6Marble12GeoDataTypes17GeoDataCreateTypeE@Base 4:4.13.90
 _ZN6Marble12GeoDataTypes17GeoDataDeleteTypeE@Base 4:4.13.90
 _ZN6Marble12GeoDataTypes17GeoDataFolderTypeE@Base 4:4.13.90
 _ZN6Marble12GeoDataTypes17GeoDataLookAtTypeE@Base 4:4.13.90
 _ZN6Marble12GeoDataTypes17GeoDataRegionTypeE@Base 4:4.13.90
 _ZN6Marble12GeoDataTypes17GeoDataSchemaTypeE@Base 4:4.13.90
 _ZN6Marble12GeoDataTypes17GeoDataUpdateTypeE@Base 4:4.13.90
 _ZN6Marble12GeoDataTypes18GeoDataFeatureTypeE@Base 4:4.13.90
 _ZN6Marble12GeoDataTypes18GeoDataHotspotTypeE@Base 4:4.13.90
 _ZN6Marble12GeoDataTypes18GeoDataPolygonTypeE@Base 4:4.13.90
 _ZN6Marble12GeoDataTypes19GeoDataDocumentTypeE@Base 4:4.13.90
 _ZN6Marble12GeoDataTypes19GeoDataGeometryTypeE@Base 4:4.13.90
 _ZN6Marble12GeoDataTypes19GeoDataItemIconTypeE@Base 4:4.13.90
 _ZN6Marble12GeoDataTypes19GeoDataLocationTypeE@Base 4:4.13.90
 _ZN6Marble12GeoDataTypes19GeoDataPlaylistTypeE@Base 4:4.13.90
 _ZN6Marble12GeoDataTypes19GeoDataSoundCueTypeE@Base 4:4.13.90
 _ZN6Marble12GeoDataTypes19GeoDataStyleMapTypeE@Base 4:4.13.90
 _ZN6Marble12GeoDataTypes19GeoDataTimeSpanTypeE@Base 4:4.13.90
 _ZN6Marble12GeoDataTypes20GeoDataContainerTypeE@Base 4:4.13.90
 _ZN6Marble12GeoDataTypes20GeoDataIconStyleTypeE@Base 4:4.13.90
 _ZN6Marble12GeoDataTypes20GeoDataLatLonBoxTypeE@Base 4:4.13.90
 _ZN6Marble12GeoDataTypes20GeoDataLineStyleTypeE@Base 4:4.13.90
 _ZN6Marble12GeoDataTypes20GeoDataListStyleTypeE@Base 4:4.13.90
 _ZN6Marble12GeoDataTypes20GeoDataPlacemarkTypeE@Base 4:4.13.90
 _ZN6Marble12GeoDataTypes20GeoDataPolyStyleTypeE@Base 4:4.13.90
 _ZN6Marble12GeoDataTypes20GeoDataTimeStampTypeE@Base 4:4.13.90
 _ZN6Marble12GeoDataTypes21GeoDataColorStyleTypeE@Base 4:4.13.90
 _ZN6Marble12GeoDataTypes21GeoDataLabelStyleTypeE@Base 4:4.13.90
 _ZN6Marble12GeoDataTypes21GeoDataLatLonQuadTypeE@Base 4:4.13.90
 _ZN6Marble12GeoDataTypes21GeoDataLineStringTypeE@Base 4:4.13.90
 _ZN6Marble12GeoDataTypes21GeoDataLinearRingTypeE@Base 4:4.13.90
 _ZN6Marble12GeoDataTypes21GeoDataMultiTrackTypeE@Base 4:4.13.90
 _ZN6Marble12GeoDataTypes21GeoDataViewVolumeTypeE@Base 4:4.13.90
 _ZN6Marble12GeoDataTypes22GeoDataNetworkLinkTypeE@Base 4:4.13.90
 _ZN6Marble12GeoDataTypes22GeoDataOrientationTypeE@Base 4:4.13.90
 _ZN6Marble12GeoDataTypes22GeoDataResourceMapTypeE@Base 4:4.13.90
 _ZN6Marble12GeoDataTypes22GeoDataSimpleFieldTypeE@Base 4:4.13.90
 _ZN6Marble12GeoDataTypes22GeoDataTourControlTypeE@Base 4:4.13.90
 _ZN6Marble12GeoDataTypes23GeoDataBalloonStyleTypeE@Base 4:4.13.90
 _ZN6Marble12GeoDataTypes23GeoDataExtendedDataTypeE@Base 4:4.13.90
 _ZN6Marble12GeoDataTypes23GeoDataImagePyramidTypeE@Base 4:4.13.90
 _ZN6Marble12GeoDataTypes23GeoDataLatLonAltBoxTypeE@Base 4:4.13.90
 _ZN6Marble12GeoDataTypes23GeoDataPhotoOverlayTypeE@Base 4:4.13.90
 _ZN6Marble12GeoDataTypes24GeoDataGroundOverlayTypeE@Base 4:4.13.90
 _ZN6Marble12GeoDataTypes24GeoDataInnerBoundaryTypeE@Base 4:4.13.90
 _ZN6Marble12GeoDataTypes24GeoDataMultiGeometryTypeE@Base 4:4.13.90
 _ZN6Marble12GeoDataTypes24GeoDataOuterBoundaryTypeE@Base 4:4.13.90
 _ZN6Marble12GeoDataTypes24GeoDataScreenOverlayTypeE@Base 4:4.13.90
 _ZN6Marble12GeoDataTypes24GeoDataStyleSelectorTypeE@Base 4:4.13.90
 _ZN6Marble12GeoDataTypes24GeoDataTimePrimitiveTypeE@Base 4:4.13.90
 _ZN6Marble12GeoDataTypes25GeoDataAnimatedUpdateTypeE@Base 4:4.13.90
 _ZN6Marble12GeoDataTypes26GeoDataSimpleArrayDataTypeE@Base 4:4.13.90
 _ZN6Marble12GeoDataTypes29GeoDataNetworkLinkControlTypeE@Base 4:4.13.90
 _ZN6Marble12GeoSceneHead10setVisibleEb@Base 4:4.13.90
 _ZN6Marble12GeoSceneHead14setDescriptionERK7QString@Base 4:4.13.90
 _ZN6Marble12GeoSceneHead4iconEv@Base 4:4.13.90
 _ZN6Marble12GeoSceneHead4zoomEv@Base 4:4.13.90
 _ZN6Marble12GeoSceneHead7licenseEv@Base 4:4.13.90
 _ZN6Marble12GeoSceneHead7setNameERK7QString@Base 4:4.13.90
 _ZN6Marble12GeoSceneHead8setThemeERK7QString@Base 4:4.13.90
 (subst)_ZN6Marble12GeoSceneHead9setRadiusE{qreal}@Base 4:4.13.90
 _ZN6Marble12GeoSceneHead9setTargetERK7QString@Base 4:4.13.90
 _ZN6Marble12GeoSceneHeadC1Ev@Base 4:4.13.90
 _ZN6Marble12GeoSceneHeadC2Ev@Base 4:4.13.90
 _ZN6Marble12GeoSceneHeadD0Ev@Base 4:4.13.90
 _ZN6Marble12GeoSceneHeadD1Ev@Base 4:4.13.90
 _ZN6Marble12GeoSceneHeadD2Ev@Base 4:4.13.90
 _ZN6Marble12GeoSceneIcon8setColorERK6QColor@Base 4:4.13.90
 _ZN6Marble12GeoSceneIcon9setPixmapERK7QString@Base 4:4.13.90
 _ZN6Marble12GeoSceneIconC1Ev@Base 4:4.13.90
 _ZN6Marble12GeoSceneIconC2Ev@Base 4:4.13.90
 _ZN6Marble12GeoSceneIconD0Ev@Base 4:4.13.90
 _ZN6Marble12GeoSceneIconD1Ev@Base 4:4.13.90
 _ZN6Marble12GeoSceneIconD2Ev@Base 4:4.13.90
 _ZN6Marble12GeoSceneItem10setSpacingEi@Base 4:4.13.90
 _ZN6Marble12GeoSceneItem12setCheckableEb@Base 4:4.13.90
 _ZN6Marble12GeoSceneItem12setConnectToERK7QString@Base 4:4.13.90
 _ZN6Marble12GeoSceneItem4iconEv@Base 4:4.13.90
 _ZN6Marble12GeoSceneItem7setTextERK7QString@Base 4:4.13.90
 _ZN6Marble12GeoSceneItemC1ERK7QString@Base 4:4.13.90
 _ZN6Marble12GeoSceneItemC2ERK7QString@Base 4:4.13.90
 _ZN6Marble12GeoSceneItemD0Ev@Base 4:4.13.90
 _ZN6Marble12GeoSceneItemD1Ev@Base 4:4.13.90
 _ZN6Marble12GeoSceneItemD2Ev@Base 4:4.13.90
 _ZN6Marble12GeoSceneZoom10setMaximumEi@Base 4:4.13.90
 _ZN6Marble12GeoSceneZoom10setMinimumEi@Base 4:4.13.90
 _ZN6Marble12GeoSceneZoom11setDiscreteEb@Base 4:4.13.90
 _ZN6Marble12GeoSceneZoomC1Ev@Base 4:4.13.90
 _ZN6Marble12GeoSceneZoomC2Ev@Base 4:4.13.90
 _ZN6Marble12GeoSceneZoomD0Ev@Base 4:4.13.90
 _ZN6Marble12GeoSceneZoomD1Ev@Base 4:4.13.90
 _ZN6Marble12GeoSceneZoomD2Ev@Base 4:4.13.90
 _ZN6Marble12GeoUriParser10queryValueERK4QUrlRK7QStringS6_@Base 4:4.13.90
 _ZN6Marble12GeoUriParser5parseEv@Base 4:4.13.90
 _ZN6Marble12GeoUriParser9setGeoUriERK7QString@Base 4:4.13.90
 _ZN6Marble12GeoUriParserC1ERK7QString@Base 4:4.13.90
 _ZN6Marble12GeoUriParserC2ERK7QString@Base 4:4.13.90
 _ZN6Marble12LegendWidget11qt_metacallEN11QMetaObject4CallEiPPv@Base 4:4.13.90
 _ZN6Marble12LegendWidget11qt_metacastEPKc@Base 4:4.13.90
 _ZN6Marble12LegendWidget14setMarbleModelEPNS_11MarbleModelE@Base 4:4.13.90
 _ZN6Marble12LegendWidget15tourLinkClickedERK7QString@Base 4:4.13.90
 _ZN6Marble12LegendWidget16staticMetaObjectE@Base 4:4.13.90
 _ZN6Marble12LegendWidget20propertyValueChangedERK7QStringb@Base 4:4.13.90
 _ZN6Marble12LegendWidgetC1EP7QWidget6QFlagsIN2Qt10WindowTypeEE@Base 4:4.13.90
 _ZN6Marble12LegendWidgetC2EP7QWidget6QFlagsIN2Qt10WindowTypeEE@Base 4:4.13.90
 _ZN6Marble12LegendWidgetD0Ev@Base 4:4.13.90
 _ZN6Marble12LegendWidgetD1Ev@Base 4:4.13.90
 _ZN6Marble12LegendWidgetD2Ev@Base 4:4.13.90
 _ZN6Marble12MarbleGlobal11getInstanceEv@Base 4:4.13.90
 _ZN6Marble12MarbleGlobal11setProfilesE6QFlagsINS0_7ProfileEE@Base 4:4.13.90
 _ZN6Marble12MarbleGlobal14detectProfilesEv@Base 4:4.13.90
 _ZN6Marble12MarbleGlobalC1Ev@Base 4:4.13.90
 _ZN6Marble12MarbleGlobalC2Ev@Base 4:4.13.90
 _ZN6Marble12MarbleGlobalD1Ev@Base 4:4.13.90
 _ZN6Marble12MarbleGlobalD2Ev@Base 4:4.13.90
 _ZN6Marble12MarbleLocale12languageCodeEv@Base 4:4.13.90
 _ZN6Marble12MarbleLocale20setMeasurementSystemENS0_17MeasurementSystemE@Base 4:4.13.90
 _ZN6Marble12MarbleLocaleC1Ev@Base 4:4.13.90
 _ZN6Marble12MarbleLocaleC2Ev@Base 4:4.13.90
 _ZN6Marble12MarbleLocaleD1Ev@Base 4:4.13.90
 _ZN6Marble12MarbleLocaleD2Ev@Base 4:4.13.90
 _ZN6Marble12MarbleWidget10leaveEventEP6QEvent@Base 4:4.13.90
 _ZN6Marble12MarbleWidget10paintEventEP11QPaintEvent@Base 4:4.13.90
 _ZN6Marble12MarbleWidget10popupLayerEv@Base 4:4.13.90
 _ZN6Marble12MarbleWidget10zoomViewByEiNS_9FlyToModeE@Base 4:4.13.90
 _ZN6Marble12MarbleWidget11changeEventEP6QEvent@Base 4:4.13.90
 _ZN6Marble12MarbleWidget11customPaintEPNS_10GeoPainterE@Base 4:4.13.90
 _ZN6Marble12MarbleWidget11qt_metacallEN11QMetaObject4CallEiPPv@Base 4:4.13.90
 _ZN6Marble12MarbleWidget11qt_metacastEPKc@Base 4:4.13.90
 _ZN6Marble12MarbleWidget11removeLayerEPNS_14LayerInterfaceE@Base 4:4.13.90
 _ZN6Marble12MarbleWidget11resizeEventEP12QResizeEvent@Base 4:4.13.90
 (subst)_ZN6Marble12MarbleWidget11setDistanceE{qreal}@Base 4:4.13.90
 _ZN6Marble12MarbleWidget11setShowGridEb@Base 4:4.13.90
 _ZN6Marble12MarbleWidget11zoomChangedEi@Base 4:4.13.90
 _ZN6Marble12MarbleWidget12routingLayerEv@Base 4:4.13.90
 _ZN6Marble12MarbleWidget12setSelectionERK5QRect@Base 4:4.13.90
 _ZN6Marble12MarbleWidget12setShowLakesEb@Base 4:4.13.90
 _ZN6Marble12MarbleWidget12themeChangedERK7QString@Base 4:4.13.90
 _ZN6Marble12MarbleWidget13connectNotifyEPKc@Base 4:4.13.90
 _ZN6Marble12MarbleWidget13mapScreenShotEv@Base 4:4.13.90
 _ZN6Marble12MarbleWidget13setFocusPointERKNS_18GeoDataCoordinatesE@Base 4:4.13.90
 _ZN6Marble12MarbleWidget13setMapThemeIdERK7QString@Base 4:4.13.90
 _ZN6Marble12MarbleWidget13setProjectionENS_10ProjectionE@Base 4:4.13.90
 _ZN6Marble12MarbleWidget13setProjectionEi@Base 4:4.13.90
 _ZN6Marble12MarbleWidget13setShowCitiesEb@Base 4:4.13.90
 _ZN6Marble12MarbleWidget13setShowCloudsEb@Base 4:4.13.90
 _ZN6Marble12MarbleWidget13setShowPlacesEb@Base 4:4.13.90
 _ZN6Marble12MarbleWidget13setShowReliefEb@Base 4:4.13.90
 _ZN6Marble12MarbleWidget13setShowRiversEb@Base 4:4.13.90
 _ZN6Marble12MarbleWidget13setShowTileIdEb@Base 4:4.13.90
 _ZN6Marble12MarbleWidget14downloadRegionERK7QVectorINS_17TileCoordsPyramidEE@Base 4:4.13.90
 _ZN6Marble12MarbleWidget14regionSelectedERK5QListIdE@Base 4:4.13.90
 _ZN6Marble12MarbleWidget14setDefaultFontERK5QFont@Base 4:4.13.90
 _ZN6Marble12MarbleWidget14setShowBordersEb@Base 4:4.13.90
 _ZN6Marble12MarbleWidget14setShowCompassEb@Base 4:4.13.90
 _ZN6Marble12MarbleWidget14setShowTerrainEb@Base 4:4.13.90
 _ZN6Marble12MarbleWidget14setViewContextENS_11ViewContextE@Base 4:4.13.90
 _ZN6Marble12MarbleWidget15distanceChangedERK7QString@Base 4:4.13.90
 (subst)_ZN6Marble12MarbleWidget15framesPerSecondE{qreal}@Base 4:4.13.90
 _ZN6Marble12MarbleWidget15resetFocusPointEv@Base 4:4.13.90
 _ZN6Marble12MarbleWidget15setInputEnabledEb@Base 4:4.13.90
 _ZN6Marble12MarbleWidget15setInputHandlerEPNS_24MarbleWidgetInputHandlerE@Base 4:4.13.90
 _ZN6Marble12MarbleWidget15setShowIceLayerEb@Base 4:4.13.90
 _ZN6Marble12MarbleWidget15setShowScaleBarEb@Base 4:4.13.90
 _ZN6Marble12MarbleWidget16CustomPaintLayerD0Ev@Base 4:4.13.90
 _ZN6Marble12MarbleWidget16CustomPaintLayerD1Ev@Base 4:4.13.90
 _ZN6Marble12MarbleWidget16CustomPaintLayerD2Ev@Base 4:4.13.90
 _ZN6Marble12MarbleWidget16disconnectNotifyEPKc@Base 4:4.13.90
 _ZN6Marble12MarbleWidget16notifyMouseClickEii@Base 4:4.13.90
 _ZN6Marble12MarbleWidget16setPropertyValueERK7QStringb@Base 4:4.13.90
 _ZN6Marble12MarbleWidget16setShowFrameRateEb@Base 4:4.13.90
 _ZN6Marble12MarbleWidget16staticMetaObjectE@Base 4:4.13.90
 _ZN6Marble12MarbleWidget16tileLevelChangedEi@Base 4:4.13.90
 _ZN6Marble12MarbleWidget17projectionChangedENS_10ProjectionE@Base 4:4.13.90
 (subst)_ZN6Marble12MarbleWidget17setCenterLatitudeE{qreal}NS_9FlyToModeE@Base 4:4.13.90
 _ZN6Marble12MarbleWidget17setShowAtmosphereEb@Base 4:4.13.90
 _ZN6Marble12MarbleWidget17setShowBackgroundEb@Base 4:4.13.90
 _ZN6Marble12MarbleWidget17setShowCityLightsEb@Base 4:4.13.90
 _ZN6Marble12MarbleWidget17setShowCrosshairsEb@Base 4:4.13.90
 _ZN6Marble12MarbleWidget17setShowSunShadingEb@Base 4:4.13.90
 _ZN6Marble12MarbleWidget18creatingTilesStartEPNS_11TileCreatorERK7QStringS5_@Base 4:4.13.90
 _ZN6Marble12MarbleWidget18readPluginSettingsER9QSettings@Base 4:4.13.90
 _ZN6Marble12MarbleWidget18renderStateChangedERKNS_11RenderStateE@Base 4:4.13.90
 (subst)_ZN6Marble12MarbleWidget18setCenterLongitudeE{qreal}NS_9FlyToModeE@Base 4:4.13.90
 _ZN6Marble12MarbleWidget18setShowOtherPlacesEb@Base 4:4.13.90
 _ZN6Marble12MarbleWidget18setShowOverviewMapEb@Base 4:4.13.90
 _ZN6Marble12MarbleWidget19renderStatusChangedENS_12RenderStatusE@Base 4:4.13.90
 _ZN6Marble12MarbleWidget19setDefaultAngleUnitENS_9AngleUnitE@Base 4:4.13.90
 _ZN6Marble12MarbleWidget19setShowRuntimeTraceEb@Base 4:4.13.90
 _ZN6Marble12MarbleWidget20mouseMoveGeoPositionERK7QString@Base 4:4.13.90
 _ZN6Marble12MarbleWidget20setAnimationsEnabledEb@Base 4:4.13.90
 (subst)_ZN6Marble12MarbleWidget21mouseClickGeoPositionE{qreal}{qreal}NS_18GeoDataCoordinates4UnitE@Base 4:4.13.90
 _ZN6Marble12MarbleWidget21pluginSettingsChangedEv@Base 4:4.13.90
 _ZN6Marble12MarbleWidget22clearVolatileTileCacheEv@Base 4:4.13.90
 _ZN6Marble12MarbleWidget22setLockToSubSolarPointEb@Base 4:4.13.90
 _ZN6Marble12MarbleWidget23renderPluginInitializedEPNS_12RenderPluginE@Base 4:4.13.90
 _ZN6Marble12MarbleWidget25setVolatileTileCacheLimitEy@Base 4:4.13.90
 _ZN6Marble12MarbleWidget26visibleLatLonAltBoxChangedERKNS_19GeoDataLatLonAltBoxE@Base 4:4.13.90
 _ZN6Marble12MarbleWidget27setMapQualityForViewContextENS_10MapQualityENS_11ViewContextE@Base 4:4.13.90
 _ZN6Marble12MarbleWidget27setSubSolarPointIconVisibleEb@Base 4:4.13.90
 _ZN6Marble12MarbleWidget5flyToERKNS_13GeoDataLookAtENS_9FlyToModeE@Base 4:4.13.90
 _ZN6Marble12MarbleWidget5modelEv@Base 4:4.13.90
 _ZN6Marble12MarbleWidget6goHomeENS_9FlyToModeE@Base 4:4.13.90
 _ZN6Marble12MarbleWidget6moveUpENS_9FlyToModeE@Base 4:4.13.90
 _ZN6Marble12MarbleWidget6zoomInENS_9FlyToModeE@Base 4:4.13.90
 _ZN6Marble12MarbleWidget7setZoomEiNS_9FlyToModeE@Base 4:4.13.90
 _ZN6Marble12MarbleWidget7zoomOutENS_9FlyToModeE@Base 4:4.13.90
 _ZN6Marble12MarbleWidget8addLayerEPNS_14LayerInterfaceE@Base 4:4.13.90
 _ZN6Marble12MarbleWidget8centerOnERKNS_16GeoDataLatLonBoxEb@Base 4:4.13.90
 _ZN6Marble12MarbleWidget8centerOnERKNS_16GeoDataPlacemarkEb@Base 4:4.13.90
 _ZN6Marble12MarbleWidget8centerOnERKNS_18GeoDataCoordinatesEb@Base 4:4.13.90
 (subst)_ZN6Marble12MarbleWidget8centerOnE{qreal}{qreal}b@Base 4:4.13.90
 _ZN6Marble12MarbleWidget8moveDownENS_9FlyToModeE@Base 4:4.13.90
 _ZN6Marble12MarbleWidget8moveLeftENS_9FlyToModeE@Base 4:4.13.90
 (subst)_ZN6Marble12MarbleWidget8rotateByE{qreal}{qreal}NS_9FlyToModeE@Base 4:4.13.90
 _ZN6Marble12MarbleWidget8viewportEv@Base 4:4.13.90
 _ZN6Marble12MarbleWidget8zoomViewEiNS_9FlyToModeE@Base 4:4.13.90
 _ZN6Marble12MarbleWidget9moveRightENS_9FlyToModeE@Base 4:4.13.90
 _ZN6Marble12MarbleWidget9popupMenuEv@Base 4:4.13.90
 _ZN6Marble12MarbleWidget9reloadMapEv@Base 4:4.13.90
 _ZN6Marble12MarbleWidget9setRadiusEi@Base 4:4.13.90
 _ZN6Marble12MarbleWidgetC1EP7QWidget@Base 4:4.13.90
 _ZN6Marble12MarbleWidgetC2EP7QWidget@Base 4:4.13.90
 _ZN6Marble12MarbleWidgetD0Ev@Base 4:4.13.90
 _ZN6Marble12MarbleWidgetD1Ev@Base 4:4.13.90
 _ZN6Marble12MarbleWidgetD2Ev@Base 4:4.13.90
 _ZN6Marble12MovieCapture11qt_metacallEN11QMetaObject4CallEiPPv@Base 4:4.13.90
 _ZN6Marble12MovieCapture11qt_metacastEPKc@Base 4:4.13.90
 _ZN6Marble12MovieCapture11recordFrameEv@Base 4:4.13.90
 _ZN6Marble12MovieCapture13stopRecordingEv@Base 4:4.13.90
 _ZN6Marble12MovieCapture14setDestinationERK7QString@Base 4:4.13.90
 _ZN6Marble12MovieCapture14startRecordingEv@Base 4:4.13.90
 _ZN6Marble12MovieCapture16staticMetaObjectE@Base 4:4.13.90
 _ZN6Marble12MovieCapture19processWrittenMovieEi@Base 4:4.13.90
 _ZN6Marble12MovieCapture6setFpsEi@Base 4:4.13.90
 _ZN6Marble12MovieCaptureC1EPNS_12MarbleWidgetEP7QObject@Base 4:4.13.90
 _ZN6Marble12MovieCaptureC2EPNS_12MarbleWidgetEP7QObject@Base 4:4.13.90
 _ZN6Marble12MovieCaptureD0Ev@Base 4:4.13.90
 _ZN6Marble12MovieCaptureD1Ev@Base 4:4.13.90
 _ZN6Marble12MovieCaptureD2Ev@Base 4:4.13.90
 _ZN6Marble12RenderPlugin10setEnabledEb@Base 4:4.13.90
 _ZN6Marble12RenderPlugin10setSettingERK7QStringRK8QVariant@Base 4:4.13.90
 _ZN6Marble12RenderPlugin10setVisibleEb@Base 4:4.13.90
 _ZN6Marble12RenderPlugin11eventFilterEP7QObjectP6QEvent@Base 4:4.13.90
 _ZN6Marble12RenderPlugin11qt_metacallEN11QMetaObject4CallEiPPv@Base 4:4.13.90
 _ZN6Marble12RenderPlugin11qt_metacastEPKc@Base 4:4.13.90
 _ZN6Marble12RenderPlugin11setSettingsERK5QHashI7QString8QVariantE@Base 4:4.13.90
 _ZN6Marble12RenderPlugin13repaintNeededE7QRegion@Base 4:4.13.90
 _ZN6Marble12RenderPlugin14applyItemStateEv@Base 4:4.13.90
 _ZN6Marble12RenderPlugin14enabledChangedEb@Base 4:4.13.90
 _ZN6Marble12RenderPlugin15settingsChangedE7QString@Base 4:4.13.90
 _ZN6Marble12RenderPlugin16setUserCheckableEb@Base 4:4.13.90
 _ZN6Marble12RenderPlugin16staticMetaObjectE@Base 4:4.13.90
 _ZN6Marble12RenderPlugin17retrieveItemStateEv@Base 4:4.13.90
 _ZN6Marble12RenderPlugin17visibilityChangedEbRK7QString@Base 4:4.13.90
 _ZN6Marble12RenderPlugin19actionGroupsChangedEv@Base 4:4.13.90
 _ZN6Marble12RenderPlugin20userCheckableChangedEb@Base 4:4.13.90
 _ZN6Marble12RenderPlugin22restoreDefaultSettingsEv@Base 4:4.13.90
 _ZN6Marble12RenderPlugin4itemEv@Base 4:4.13.90
 _ZN6Marble12RenderPluginC1EPKNS_11MarbleModelE@Base 4:4.13.90
 _ZN6Marble12RenderPluginC2EPKNS_11MarbleModelE@Base 4:4.13.90
 _ZN6Marble12RenderPluginD0Ev@Base 4:4.13.90
 _ZN6Marble12RenderPluginD1Ev@Base 4:4.13.90
 _ZN6Marble12RenderPluginD2Ev@Base 4:4.13.90
 _ZN6Marble12RouteRequest10setVisitedEib@Base 4:4.13.90
 _ZN6Marble12RouteRequest11qt_metacallEN11QMetaObject4CallEiPPv@Base 4:4.13.90
 _ZN6Marble12RouteRequest11qt_metacastEPKc@Base 4:4.13.90
 _ZN6Marble12RouteRequest11setPositionEiRKNS_18GeoDataCoordinatesERK7QString@Base 4:4.13.90
 _ZN6Marble12RouteRequest13positionAddedEi@Base 4:4.13.90
 _ZN6Marble12RouteRequest15positionChangedEiRKNS_18GeoDataCoordinatesE@Base 4:4.13.90
 _ZN6Marble12RouteRequest15positionRemovedEi@Base 4:4.13.90
 _ZN6Marble12RouteRequest16staticMetaObjectE@Base 4:4.13.90
 _ZN6Marble12RouteRequest17setRoutingProfileERKNS_14RoutingProfileE@Base 4:4.13.90
 _ZN6Marble12RouteRequest21routingProfileChangedEv@Base 4:4.13.90
 _ZN6Marble12RouteRequest5clearEv@Base 4:4.13.90
 _ZN6Marble12RouteRequest6addViaERKNS_18GeoDataCoordinatesE@Base 4:4.13.90
 _ZN6Marble12RouteRequest6appendERKNS_16GeoDataPlacemarkE@Base 4:4.13.90
 _ZN6Marble12RouteRequest6appendERKNS_18GeoDataCoordinatesERK7QString@Base 4:4.13.90
 _ZN6Marble12RouteRequest6insertEiRKNS_18GeoDataCoordinatesERK7QString@Base 4:4.13.90
 _ZN6Marble12RouteRequest6removeEi@Base 4:4.13.90
 _ZN6Marble12RouteRequest7reverseEv@Base 4:4.13.90
 _ZN6Marble12RouteRequest7setNameEiRK7QString@Base 4:4.13.90
 _ZN6Marble12RouteRequestC1EP7QObject@Base 4:4.13.90
 _ZN6Marble12RouteRequestC2EP7QObject@Base 4:4.13.90
 _ZN6Marble12RouteRequestD0Ev@Base 4:4.13.90
 _ZN6Marble12RouteRequestD1Ev@Base 4:4.13.90
 _ZN6Marble12RouteRequestD2Ev@Base 4:4.13.90
 _ZN6Marble12RouteRequestixEi@Base 4:4.13.90
 _ZN6Marble12RouteSegment11setManeuverERKNS_8ManeuverE@Base 4:4.13.90
 _ZN6Marble12RouteSegment13setTravelTimeEi@Base 4:4.13.90
 _ZN6Marble12RouteSegment19distancePointToLineERKNS_18GeoDataCoordinatesES3_S3_@Base 4:4.13.90
 _ZN6Marble12RouteSegment19setNextRouteSegmentEPKS0_@Base 4:4.13.90
 _ZN6Marble12RouteSegment7setPathERKNS_17GeoDataLineStringE@Base 4:4.13.90
 _ZN6Marble12RouteSegment9projectedERKNS_18GeoDataCoordinatesES3_S3_@Base 4:4.13.90
 _ZN6Marble12RouteSegmentC1Ev@Base 4:4.13.90
 _ZN6Marble12RouteSegmentC2Ev@Base 4:4.13.90
 _ZN6Marble12RouteSegmentD1Ev@Base 4:4.13.90
 _ZN6Marble12RouteSegmentD2Ev@Base 4:4.13.90
 _ZN6Marble12RoutingModel11qt_metacallEN11QMetaObject4CallEiPPv@Base 4:4.13.90
 _ZN6Marble12RoutingModel11qt_metacastEPKc@Base 4:4.13.90
 (subst)_ZN6Marble12RoutingModel14updatePositionENS_18GeoDataCoordinatesE{qreal}@Base 4:4.13.90
 _ZN6Marble12RoutingModel15positionChangedEv@Base 4:4.13.90
 _ZN6Marble12RoutingModel15setCurrentRouteEPNS_15GeoDataDocumentE@Base 4:4.13.90
 _ZN6Marble12RoutingModel16staticMetaObjectE@Base 4:4.13.90
 _ZN6Marble12RoutingModel17deviatedFromRouteEb@Base 4:4.13.90
 _ZN6Marble12RoutingModel19currentRouteChangedEv@Base 4:4.13.90
 _ZN6Marble12RoutingModel5clearEv@Base 4:4.13.90
 _ZN6Marble12RoutingModelC1EPNS_12RouteRequestEPNS_11MarbleModelEP7QObject@Base 4:4.13.90
 _ZN6Marble12RoutingModelC2EPNS_12RouteRequestEPNS_11MarbleModelEP7QObject@Base 4:4.13.90
 _ZN6Marble12RoutingModelD0Ev@Base 4:4.13.90
 _ZN6Marble12RoutingModelD1Ev@Base 4:4.13.90
 _ZN6Marble12RoutingModelD2Ev@Base 4:4.13.90
 (subst)_ZN6Marble12RoutingPointC1E{qreal}{qreal}@Base 4:4.13.90
 (subst)_ZN6Marble12RoutingPointC2E{qreal}{qreal}@Base 4:4.13.90
 _ZN6Marble12SearchRunner11qt_metacallEN11QMetaObject4CallEiPPv@Base 4:4.13.90
 _ZN6Marble12SearchRunner11qt_metacastEPKc@Base 4:4.13.90
 _ZN6Marble12SearchRunner14searchFinishedE7QVectorIPNS_16GeoDataPlacemarkEE@Base 4:4.13.90
 _ZN6Marble12SearchRunner16staticMetaObjectE@Base 4:4.13.90
 _ZN6Marble12SearchRunner8setModelEPKNS_11MarbleModelE@Base 4:4.13.90
 _ZN6Marble12SearchRunnerC1EP7QObject@Base 4:4.13.90
 _ZN6Marble12SearchRunnerC2EP7QObject@Base 4:4.13.90
 _ZN6Marble12SearchWidget11qt_metacallEN11QMetaObject4CallEiPPv@Base 4:4.13.90
 _ZN6Marble12SearchWidget11qt_metacastEPKc@Base 4:4.13.90
 _ZN6Marble12SearchWidget15setMarbleWidgetEPNS_12MarbleWidgetE@Base 4:4.13.90
 _ZN6Marble12SearchWidget16staticMetaObjectE@Base 4:4.13.90
 _ZN6Marble12SearchWidgetC1EP7QWidget6QFlagsIN2Qt10WindowTypeEE@Base 4:4.13.90
 _ZN6Marble12SearchWidgetC2EP7QWidget6QFlagsIN2Qt10WindowTypeEE@Base 4:4.13.90
 _ZN6Marble12SearchWidgetD0Ev@Base 4:4.13.90
 _ZN6Marble12SearchWidgetD1Ev@Base 4:4.13.90
 _ZN6Marble12SearchWidgetD2Ev@Base 4:4.13.90
 _ZN6Marble12TextureLayer11qt_metacallEN11QMetaObject4CallEiPPv@Base 4:4.13.90
 _ZN6Marble12TextureLayer11qt_metacastEPKc@Base 4:4.13.90
 _ZN6Marble12TextureLayer11setMapThemeERK7QVectorIPKNS_19GeoSceneTextureTileEEPKNS_13GeoSceneGroupERK7QStringSD_@Base 4:4.13.90
 _ZN6Marble12TextureLayer13repaintNeededEv@Base 4:4.13.90
 _ZN6Marble12TextureLayer13setProjectionENS_10ProjectionE@Base 4:4.13.90
 _ZN6Marble12TextureLayer13setShowReliefEb@Base 4:4.13.90
 _ZN6Marble12TextureLayer13setShowTileIdEb@Base 4:4.13.90
 _ZN6Marble12TextureLayer14addSeaDocumentEPKNS_15GeoDataDocumentE@Base 4:4.13.90
 _ZN6Marble12TextureLayer14setNeedsUpdateEv@Base 4:4.13.90
 _ZN6Marble12TextureLayer15addLandDocumentEPKNS_15GeoDataDocumentE@Base 4:4.13.90
 _ZN6Marble12TextureLayer16staticMetaObjectE@Base 4:4.13.90
 _ZN6Marble12TextureLayer16tileLevelChangedEi@Base 4:4.13.90
 _ZN6Marble12TextureLayer17setShowCityLightsEb@Base 4:4.13.90
 _ZN6Marble12TextureLayer17setShowSunShadingEb@Base 4:4.13.90
 _ZN6Marble12TextureLayer19downloadStackedTileERKNS_6TileIdE@Base 4:4.13.90
 _ZN6Marble12TextureLayer21setVolatileCacheLimitEy@Base 4:4.13.90
 _ZN6Marble12TextureLayer5resetEv@Base 4:4.13.90
 _ZN6Marble12TextureLayer6reloadEv@Base 4:4.13.90
 _ZN6Marble12TextureLayer6renderEPNS_10GeoPainterEPNS_14ViewportParamsERK7QStringPNS_13GeoSceneLayerE@Base 4:4.13.90
 _ZN6Marble12TextureLayer7Private10updateTileERKNS_6TileIdERK6QImage@Base 4:4.13.90
 _ZN6Marble12TextureLayer7Private17addGroundOverlaysE11QModelIndexii@Base 4:4.13.90
 _ZN6Marble12TextureLayer7Private17drawOrderLessThanEPKNS_20GeoDataGroundOverlayES4_@Base 4:4.13.90
 _ZN6Marble12TextureLayer7Private19updateTextureLayersEv@Base 4:4.13.90
 _ZN6Marble12TextureLayer7Private20removeGroundOverlaysE11QModelIndexii@Base 4:4.13.90
 _ZN6Marble12TextureLayer7Private20updateGroundOverlaysEv@Base 4:4.13.90
 _ZN6Marble12TextureLayer7Private21requestDelayedRepaintEv@Base 4:4.13.90
 _ZN6Marble12TextureLayer7Private24resetGroundOverlaysCacheEv@Base 4:4.13.90
 _ZN6Marble12TextureLayer7PrivateC1EPNS_19HttpDownloadManagerEPKNS_10SunLocatorEP18QAbstractItemModelPS0_@Base 4:4.13.90
 _ZN6Marble12TextureLayer7PrivateC2EPNS_19HttpDownloadManagerEPKNS_10SunLocatorEP18QAbstractItemModelPS0_@Base 4:4.13.90
 _ZN6Marble12TextureLayerC1EPNS_19HttpDownloadManagerEPKNS_10SunLocatorEP18QAbstractItemModel@Base 4:4.13.90
 _ZN6Marble12TextureLayerC2EPNS_19HttpDownloadManagerEPKNS_10SunLocatorEP18QAbstractItemModel@Base 4:4.13.90
 _ZN6Marble12TextureLayerD0Ev@Base 4:4.13.90
 _ZN6Marble12TextureLayerD1Ev@Base 4:4.13.90
 _ZN6Marble12TextureLayerD2Ev@Base 4:4.13.90
 _ZN6Marble12TourPlayback11hideBalloonEv@Base 4:4.13.90
 _ZN6Marble12TourPlayback11qt_metacallEN11QMetaObject4CallEiPPv@Base 4:4.13.90
 _ZN6Marble12TourPlayback11qt_metacastEPKc@Base 4:4.13.90
 _ZN6Marble12TourPlayback11showBalloonEPNS_16GeoDataPlacemarkE@Base 4:4.13.90
 _ZN6Marble12TourPlayback15progressChangedEd@Base 4:4.13.90
 _ZN6Marble12TourPlayback15setMarbleWidgetEPNS_12MarbleWidgetE@Base 4:4.13.90
 _ZN6Marble12TourPlayback16staticMetaObjectE@Base 4:4.13.90
 _ZN6Marble12TourPlayback4playEv@Base 4:4.13.90
 _ZN6Marble12TourPlayback4seekEd@Base 4:4.13.90
 _ZN6Marble12TourPlayback4stopEv@Base 4:4.13.90
 _ZN6Marble12TourPlayback5pauseEv@Base 4:4.13.90
 _ZN6Marble12TourPlayback6pausedEv@Base 4:4.13.90
 _ZN6Marble12TourPlayback7setTourEPKNS_11GeoDataTourE@Base 4:4.13.90
 _ZN6Marble12TourPlayback7stoppedEv@Base 4:4.13.90
 _ZN6Marble12TourPlayback8centerOnERKNS_18GeoDataCoordinatesE@Base 4:4.13.90
 _ZN6Marble12TourPlayback8finishedEv@Base 4:4.13.90
 _ZN6Marble12TourPlayback8stopTourEv@Base 4:4.13.90
 _ZN6Marble12TourPlaybackC1EP7QObject@Base 4:4.13.90
 _ZN6Marble12TourPlaybackC2EP7QObject@Base 4:4.13.90
 _ZN6Marble12TourPlaybackD0Ev@Base 4:4.13.90
 _ZN6Marble12TourPlaybackD1Ev@Base 4:4.13.90
 _ZN6Marble12TourPlaybackD2Ev@Base 4:4.13.90
 _ZN6Marble13DataMigration11qt_metacallEN11QMetaObject4CallEiPPv@Base 4:4.14.2
 _ZN6Marble13DataMigration11qt_metacastEPKc@Base 4:4.14.2
 _ZN6Marble13DataMigration16staticMetaObjectE@Base 4:4.14.2
 _ZN6Marble13DataMigration4execEv@Base 4:4.14.2
 _ZN6Marble13DataMigration9moveFilesERK7QStringS3_@Base 4:4.14.2
 _ZN6Marble13DataMigrationC1EP7QObject@Base 4:4.14.2
 _ZN6Marble13DataMigrationC2EP7QObject@Base 4:4.14.2
 _ZN6Marble13DataMigrationD0Ev@Base 4:4.14.2
 _ZN6Marble13DataMigrationD1Ev@Base 4:4.14.2
 _ZN6Marble13DataMigrationD2Ev@Base 4:4.14.2
 (subst)_ZN6Marble13GeoDataCamera10setHeadingE{qreal}@Base 4:4.13.90
 (subst)_ZN6Marble13GeoDataCamera11setAltitudeE{qreal}@Base 4:4.13.90
 (subst)_ZN6Marble13GeoDataCamera11setLatitudeE{qreal}NS_18GeoDataCoordinates4UnitE@Base 4:4.13.90
 (subst)_ZN6Marble13GeoDataCamera12setLongitudeE{qreal}NS_18GeoDataCoordinates4UnitE@Base 4:4.13.90
 _ZN6Marble13GeoDataCamera14setCoordinatesERKNS_18GeoDataCoordinatesE@Base 4:4.13.90
 _ZN6Marble13GeoDataCamera6detachEv@Base 4:4.13.90
 (subst)_ZN6Marble13GeoDataCamera7setRollE{qreal}@Base 4:4.13.90
 (subst)_ZN6Marble13GeoDataCamera7setTiltE{qreal}@Base 4:4.13.90
 _ZN6Marble13GeoDataCameraC1ERKS0_@Base 4:4.13.90
 _ZN6Marble13GeoDataCameraC1Ev@Base 4:4.13.90
 _ZN6Marble13GeoDataCameraC2ERKS0_@Base 4:4.13.90
 _ZN6Marble13GeoDataCameraC2Ev@Base 4:4.13.90
 _ZN6Marble13GeoDataCameraD0Ev@Base 4:4.13.90
 _ZN6Marble13GeoDataCameraD1Ev@Base 4:4.13.90
 _ZN6Marble13GeoDataCameraD2Ev@Base 4:4.13.90
 _ZN6Marble13GeoDataCameraaSERKS0_@Base 4:4.13.90
 _ZN6Marble13GeoDataChangeC1ERKS0_@Base 4:4.13.90
 _ZN6Marble13GeoDataChangeC1Ev@Base 4:4.13.90
 _ZN6Marble13GeoDataChangeC2ERKS0_@Base 4:4.13.90
 _ZN6Marble13GeoDataChangeC2Ev@Base 4:4.13.90
 _ZN6Marble13GeoDataChangeD0Ev@Base 4:4.13.90
 _ZN6Marble13GeoDataChangeD1Ev@Base 4:4.13.90
 _ZN6Marble13GeoDataChangeD2Ev@Base 4:4.13.90
 _ZN6Marble13GeoDataChangeaSERKS0_@Base 4:4.13.90
 _ZN6Marble13GeoDataCreateC1ERKS0_@Base 4:4.13.90
 _ZN6Marble13GeoDataCreateC1Ev@Base 4:4.13.90
 _ZN6Marble13GeoDataCreateC2ERKS0_@Base 4:4.13.90
 _ZN6Marble13GeoDataCreateC2Ev@Base 4:4.13.90
 _ZN6Marble13GeoDataCreateD0Ev@Base 4:4.13.90
 _ZN6Marble13GeoDataCreateD1Ev@Base 4:4.13.90
 _ZN6Marble13GeoDataCreateD2Ev@Base 4:4.13.90
 _ZN6Marble13GeoDataCreateaSERKS0_@Base 4:4.13.90
 _ZN6Marble13GeoDataDeleteC1ERKS0_@Base 4:4.13.90
 _ZN6Marble13GeoDataDeleteC1Ev@Base 4:4.13.90
 _ZN6Marble13GeoDataDeleteC2ERKS0_@Base 4:4.13.90
 _ZN6Marble13GeoDataDeleteC2Ev@Base 4:4.13.90
 _ZN6Marble13GeoDataDeleteD0Ev@Base 4:4.13.90
 _ZN6Marble13GeoDataDeleteD1Ev@Base 4:4.13.90
 _ZN6Marble13GeoDataDeleteD2Ev@Base 4:4.13.90
 _ZN6Marble13GeoDataDeleteaSERKS0_@Base 4:4.13.90
 _ZN6Marble13GeoDataFolderC1ERKS0_@Base 4:4.13.90
 _ZN6Marble13GeoDataFolderC1Ev@Base 4:4.13.90
 _ZN6Marble13GeoDataFolderC2ERKS0_@Base 4:4.13.90
 _ZN6Marble13GeoDataFolderC2Ev@Base 4:4.13.90
 _ZN6Marble13GeoDataFolderD0Ev@Base 4:4.13.90
 _ZN6Marble13GeoDataFolderD1Ev@Base 4:4.13.90
 _ZN6Marble13GeoDataFolderD2Ev@Base 4:4.13.90
 (subst)_ZN6Marble13GeoDataLookAt11setAltitudeE{qreal}@Base 4:4.13.90
 (subst)_ZN6Marble13GeoDataLookAt11setLatitudeE{qreal}NS_18GeoDataCoordinates4UnitE@Base 4:4.13.90
 (subst)_ZN6Marble13GeoDataLookAt12setLongitudeE{qreal}NS_18GeoDataCoordinates4UnitE@Base 4:4.13.90
 _ZN6Marble13GeoDataLookAt14setCoordinatesERKNS_18GeoDataCoordinatesE@Base 4:4.13.90
 _ZN6Marble13GeoDataLookAt6detachEv@Base 4:4.13.90
 (subst)_ZN6Marble13GeoDataLookAt8setRangeE{qreal}@Base 4:4.13.90
 _ZN6Marble13GeoDataLookAtC1ERKS0_@Base 4:4.13.90
 _ZN6Marble13GeoDataLookAtC1Ev@Base 4:4.13.90
 _ZN6Marble13GeoDataLookAtC2ERKS0_@Base 4:4.13.90
 _ZN6Marble13GeoDataLookAtC2Ev@Base 4:4.13.90
 _ZN6Marble13GeoDataLookAtD0Ev@Base 4:4.13.90
 _ZN6Marble13GeoDataLookAtD1Ev@Base 4:4.13.90
 _ZN6Marble13GeoDataLookAtD2Ev@Base 4:4.13.90
 _ZN6Marble13GeoDataLookAtaSERKS0_@Base 4:4.13.90
 _ZN6Marble13GeoDataObject11setTargetIdERK7QString@Base 4:4.13.90
 _ZN6Marble13GeoDataObject5setIdERK7QString@Base 4:4.13.90
 _ZN6Marble13GeoDataObject6unpackER11QDataStream@Base 4:4.13.90
 _ZN6Marble13GeoDataObject9setParentEPS0_@Base 4:4.13.90
 _ZN6Marble13GeoDataObjectC1ERKS0_@Base 4:4.13.90
 _ZN6Marble13GeoDataObjectC1Ev@Base 4:4.13.90
 _ZN6Marble13GeoDataObjectC2ERKS0_@Base 4:4.13.90
 _ZN6Marble13GeoDataObjectC2Ev@Base 4:4.13.90
 _ZN6Marble13GeoDataObjectD0Ev@Base 4:4.13.90
 _ZN6Marble13GeoDataObjectD1Ev@Base 4:4.13.90
 _ZN6Marble13GeoDataObjectD2Ev@Base 4:4.13.90
 _ZN6Marble13GeoDataObjectaSERKS0_@Base 4:4.13.90
 _ZN6Marble13GeoDataParser18isValidRootElementEv@Base 4:4.13.90
 _ZN6Marble13GeoDataParserC1ENS_17GeoDataSourceTypeE@Base 4:4.13.90
 _ZN6Marble13GeoDataParserC2ENS_17GeoDataSourceTypeE@Base 4:4.13.90
 _ZN6Marble13GeoDataParserD0Ev@Base 4:4.13.90
 _ZN6Marble13GeoDataParserD1Ev@Base 4:4.13.90
 _ZN6Marble13GeoDataParserD2Ev@Base 4:4.13.90
 _ZN6Marble13GeoDataRegion15setLatLonAltBoxERKNS_19GeoDataLatLonAltBoxE@Base 4:4.13.90
 _ZN6Marble13GeoDataRegion4swapERS0_@Base 4:4.13.90
 _ZN6Marble13GeoDataRegion6setLodERKNS_10GeoDataLodE@Base 4:4.13.90
 _ZN6Marble13GeoDataRegion6unpackER11QDataStream@Base 4:4.13.90
 _ZN6Marble13GeoDataRegionC1EPNS_14GeoDataFeatureE@Base 4:4.13.90
 _ZN6Marble13GeoDataRegionC1ERKS0_@Base 4:4.13.90
 _ZN6Marble13GeoDataRegionC1Ev@Base 4:4.13.90
 _ZN6Marble13GeoDataRegionC2EPNS_14GeoDataFeatureE@Base 4:4.13.90
 _ZN6Marble13GeoDataRegionC2ERKS0_@Base 4:4.13.90
 _ZN6Marble13GeoDataRegionC2Ev@Base 4:4.13.90
 _ZN6Marble13GeoDataRegionD0Ev@Base 4:4.13.90
 _ZN6Marble13GeoDataRegionD1Ev@Base 4:4.13.90
 _ZN6Marble13GeoDataRegionD2Ev@Base 4:4.13.90
 _ZN6Marble13GeoDataRegionaSERKS0_@Base 4:4.13.90
 _ZN6Marble13GeoDataSchema13setSchemaNameERK7QString@Base 4:4.13.90
 _ZN6Marble13GeoDataSchema14addSimpleFieldERKNS_18GeoDataSimpleFieldE@Base 4:4.13.90
 _ZN6Marble13GeoDataSchema6unpackER11QDataStream@Base 4:4.13.90
 _ZN6Marble13GeoDataSchemaC1ERK5QHashI7QStringNS_18GeoDataSimpleFieldEE@Base 4:4.13.90
 _ZN6Marble13GeoDataSchemaC1ERKS0_@Base 4:4.13.90
 _ZN6Marble13GeoDataSchemaC1Ev@Base 4:4.13.90
 _ZN6Marble13GeoDataSchemaC2ERK5QHashI7QStringNS_18GeoDataSimpleFieldEE@Base 4:4.13.90
 _ZN6Marble13GeoDataSchemaC2ERKS0_@Base 4:4.13.90
 _ZN6Marble13GeoDataSchemaC2Ev@Base 4:4.13.90
 _ZN6Marble13GeoDataSchemaD0Ev@Base 4:4.13.90
 _ZN6Marble13GeoDataSchemaD1Ev@Base 4:4.13.90
 _ZN6Marble13GeoDataSchemaD2Ev@Base 4:4.13.90
 _ZN6Marble13GeoDataSchemaaSERKS0_@Base 4:4.13.90
 _ZN6Marble13GeoDataUpdate13setTargetHrefERK7QString@Base 4:4.13.90
 _ZN6Marble13GeoDataUpdate9setChangeEPNS_13GeoDataChangeE@Base 4:4.13.90
 _ZN6Marble13GeoDataUpdate9setCreateEPNS_13GeoDataCreateE@Base 4:4.13.90
 _ZN6Marble13GeoDataUpdate9setDeleteEPNS_13GeoDataDeleteE@Base 4:4.13.90
 _ZN6Marble13GeoDataUpdateC1ERKS0_@Base 4:4.13.90
 _ZN6Marble13GeoDataUpdateC1Ev@Base 4:4.13.90
 _ZN6Marble13GeoDataUpdateC2ERKS0_@Base 4:4.13.90
 _ZN6Marble13GeoDataUpdateC2Ev@Base 4:4.13.90
 _ZN6Marble13GeoDataUpdateD0Ev@Base 4:4.13.90
 _ZN6Marble13GeoDataUpdateD1Ev@Base 4:4.13.90
 _ZN6Marble13GeoDataUpdateD2Ev@Base 4:4.13.90
 _ZN6Marble13GeoDataUpdateaSERKS0_@Base 4:4.13.90
 _ZN6Marble13GeoSceneLayer10addDatasetEPNS_23GeoSceneAbstractDatasetE@Base 4:4.13.90
 _ZN6Marble13GeoSceneLayer10setBackendERK7QString@Base 4:4.13.90
 _ZN6Marble13GeoSceneLayer12removeFilterEPNS_14GeoSceneFilterE@Base 4:4.13.90
 _ZN6Marble13GeoSceneLayer13groundDatasetEv@Base 4:4.13.90
 _ZN6Marble13GeoSceneLayer6filterEv@Base 4:4.13.90
 _ZN6Marble13GeoSceneLayer7datasetERK7QString@Base 4:4.13.90
 _ZN6Marble13GeoSceneLayer7setRoleERK7QString@Base 4:4.13.90
 _ZN6Marble13GeoSceneLayer8setTiledEb@Base 4:4.13.90
 _ZN6Marble13GeoSceneLayer9addFilterEPNS_14GeoSceneFilterE@Base 4:4.13.90
 _ZN6Marble13GeoSceneLayerC1ERK7QString@Base 4:4.13.90
 _ZN6Marble13GeoSceneLayerC2ERK7QString@Base 4:4.13.90
 _ZN6Marble13GeoSceneLayerD0Ev@Base 4:4.13.90
 _ZN6Marble13GeoSceneLayerD1Ev@Base 4:4.13.90
 _ZN6Marble13GeoSceneLayerD2Ev@Base 4:4.13.90
 _ZN6Marble13GeoSceneTiled11setTileSizeERK5QSize@Base 4:4.13.90
 _ZN6Marble13GeoSceneTiled12setSourceDirERK7QString@Base 4:4.13.90
 _ZN6Marble13GeoSceneTiled13setInstallMapERK7QString@Base 4:4.13.90
 _ZN6Marble13GeoSceneTiled13setProjectionENS0_10ProjectionE@Base 4:4.13.90
 _ZN6Marble13GeoSceneTiled14addDownloadUrlERK4QUrl@Base 4:4.13.90
 _ZN6Marble13GeoSceneTiled15setServerLayoutEPKNS_12ServerLayoutE@Base 4:4.13.90
 _ZN6Marble13GeoSceneTiled16setLevelZeroRowsEi@Base 4:4.13.90
 _ZN6Marble13GeoSceneTiled16setStorageLayoutENS0_13StorageLayoutE@Base 4:4.13.90
 _ZN6Marble13GeoSceneTiled17addDownloadPolicyENS_13DownloadUsageEi@Base 4:4.13.90
 _ZN6Marble13GeoSceneTiled19setLevelZeroColumnsEi@Base 4:4.13.90
 _ZN6Marble13GeoSceneTiled19setMaximumTileLevelEi@Base 4:4.13.90
 _ZN6Marble13GeoSceneTiledC1ERK7QString@Base 4:4.13.90
 _ZN6Marble13GeoSceneTiledC2ERK7QString@Base 4:4.13.90
 _ZN6Marble13GeoSceneTiledD0Ev@Base 4:4.13.90
 _ZN6Marble13GeoSceneTiledD1Ev@Base 4:4.13.90
 _ZN6Marble13GeoSceneTiledD2Ev@Base 4:4.13.90
 _ZN6Marble13GeoTagHandler10recognizesERK5QPairI7QStringS2_E@Base 4:4.13.90
 _ZN6Marble13GeoTagHandler14tagHandlerHashEv@Base 4:4.13.90
 _ZN6Marble13GeoTagHandler15registerHandlerERK5QPairI7QStringS2_EPKS0_@Base 4:4.13.90
 _ZN6Marble13GeoTagHandler16s_tagHandlerHashE@Base 4:4.13.90
 _ZN6Marble13GeoTagHandler17unregisterHandlerERK5QPairI7QStringS2_E@Base 4:4.13.90
 _ZN6Marble13GeoTagHandlerC1Ev@Base 4:4.13.90
 _ZN6Marble13GeoTagHandlerC2Ev@Base 4:4.13.90
 _ZN6Marble13GeoTagHandlerD0Ev@Base 4:4.13.90
 _ZN6Marble13GeoTagHandlerD1Ev@Base 4:4.13.90
 _ZN6Marble13GeoTagHandlerD2Ev@Base 4:4.13.90
 _ZN6Marble13MapViewWidget11qt_metacallEN11QMetaObject4CallEiPPv@Base 4:4.13.90
 _ZN6Marble13MapViewWidget11qt_metacastEPKc@Base 4:4.13.90
 _ZN6Marble13MapViewWidget11resizeEventEP12QResizeEvent@Base 4:4.13.90
 _ZN6Marble13MapViewWidget13setMapThemeIdERK7QString@Base 4:4.13.90
 _ZN6Marble13MapViewWidget13setProjectionENS_10ProjectionE@Base 4:4.13.90
 _ZN6Marble13MapViewWidget13showMapWizardEv@Base 4:4.13.90
 _ZN6Marble13MapViewWidget15mapThemeDeletedEv@Base 4:4.13.90
 _ZN6Marble13MapViewWidget15setMarbleWidgetEPNS_12MarbleWidgetEPNS_15MapThemeManagerE@Base 4:4.13.90
 _ZN6Marble13MapViewWidget16showUploadDialogEv@Base 4:4.13.90
 _ZN6Marble13MapViewWidget16staticMetaObjectE@Base 4:4.13.90
 _ZN6Marble13MapViewWidget17flatViewRequestedEv@Base 4:4.13.90
 _ZN6Marble13MapViewWidget17mapThemeIdChangedERK7QString@Base 4:4.13.90
 _ZN6Marble13MapViewWidget17projectionChangedENS_10ProjectionE@Base 4:4.13.90
 _ZN6Marble13MapViewWidget18globeViewRequestedEv@Base 4:4.13.90
 _ZN6Marble13MapViewWidget20celestialBodyChangedERK7QString@Base 4:4.13.90
 _ZN6Marble13MapViewWidget21mercatorViewRequestedEv@Base 4:4.13.90
 _ZN6Marble13MapViewWidget7Private14toggleFavoriteEv@Base 4:4.13.90
 _ZN6Marble13MapViewWidget7Private14toggleIconSizeEv@Base 4:4.13.90
 _ZN6Marble13MapViewWidget7Private15showContextMenuERK6QPoint@Base 4:4.13.90
 _ZN6Marble13MapViewWidget7Private16mapThemeSelectedE11QModelIndex@Base 4:4.13.90
 _ZN6Marble13MapViewWidget7Private16mapThemeSelectedEi@Base 4:4.13.90
 _ZN6Marble13MapViewWidget7Private17isCurrentFavoriteEv@Base 4:4.13.90
 _ZN6Marble13MapViewWidget7Private18projectionSelectedEi@Base 4:4.13.90
 _ZN6Marble13MapViewWidget7Private21celestialBodySelectedEi@Base 4:4.13.90
 _ZN6Marble13MapViewWidget7Private9deleteMapEv@Base 4:4.13.90
 _ZN6Marble13MapViewWidgetC1EP7QWidget6QFlagsIN2Qt10WindowTypeEE@Base 4:4.13.90
 _ZN6Marble13MapViewWidgetC2EP7QWidget6QFlagsIN2Qt10WindowTypeEE@Base 4:4.13.90
 _ZN6Marble13MapViewWidgetD0Ev@Base 4:4.13.90
 _ZN6Marble13MapViewWidgetD1Ev@Base 4:4.13.90
 _ZN6Marble13MapViewWidgetD2Ev@Base 4:4.13.90
 _ZN6Marble13NewstuffModel11qt_metacallEN11QMetaObject4CallEiPPv@Base 4:4.13.90
 _ZN6Marble13NewstuffModel11qt_metacastEPKc@Base 4:4.13.90
 _ZN6Marble13NewstuffModel11setProviderERK7QString@Base 4:4.13.90
 _ZN6Marble13NewstuffModel12countChangedEv@Base 4:4.13.90
 _ZN6Marble13NewstuffModel12mapInstalledEi@Base 4:4.13.90
 _ZN6Marble13NewstuffModel12retrieveDataEv@Base 4:4.13.90
 _ZN6Marble13NewstuffModel14contentsListedEi@Base 4:4.13.90
 _ZN6Marble13NewstuffModel14mapUninstalledEv@Base 4:4.13.90
 _ZN6Marble13NewstuffModel14updateProgressExx@Base 4:4.13.90
 _ZN6Marble13NewstuffModel15providerChangedEv@Base 4:4.13.90
 _ZN6Marble13NewstuffModel15setRegistryFileERK7QStringNS0_5IdTagE@Base 4:4.13.90
 _ZN6Marble13NewstuffModel16staticMetaObjectE@Base 4:4.13.90
 _ZN6Marble13NewstuffModel18installationFailedEiRK7QString@Base 4:4.13.90
 _ZN6Marble13NewstuffModel18setTargetDirectoryERK7QString@Base 4:4.13.90
 _ZN6Marble13NewstuffModel19registryFileChangedEv@Base 4:4.13.90
 _ZN6Marble13NewstuffModel20installationFinishedEi@Base 4:4.13.90
 (subst)_ZN6Marble13NewstuffModel22installationProgressedEi{qreal}@Base 4:4.13.90
 _ZN6Marble13NewstuffModel22targetDirectoryChangedEv@Base 4:4.13.90
 _ZN6Marble13NewstuffModel22uninstallationFinishedEi@Base 4:4.13.90
 _ZN6Marble13NewstuffModel6cancelEi@Base 4:4.13.90
 _ZN6Marble13NewstuffModel7installEi@Base 4:4.13.90
 _ZN6Marble13NewstuffModel9uninstallEi@Base 4:4.13.90
 _ZN6Marble13NewstuffModelC1EP7QObject@Base 4:4.13.90
 _ZN6Marble13NewstuffModelC2EP7QObject@Base 4:4.13.90
 _ZN6Marble13NewstuffModelD0Ev@Base 4:4.13.90
 _ZN6Marble13NewstuffModelD1Ev@Base 4:4.13.90
 _ZN6Marble13NewstuffModelD2Ev@Base 4:4.13.90
 _ZN6Marble13ParsingRunner11qt_metacallEN11QMetaObject4CallEiPPv@Base 4:4.13.90
 _ZN6Marble13ParsingRunner11qt_metacastEPKc@Base 4:4.13.90
 _ZN6Marble13ParsingRunner15parsingFinishedEPNS_15GeoDataDocumentERK7QString@Base 4:4.13.90
 _ZN6Marble13ParsingRunner16staticMetaObjectE@Base 4:4.13.90
 _ZN6Marble13ParsingRunnerC1EP7QObject@Base 4:4.13.90
 _ZN6Marble13ParsingRunnerC2EP7QObject@Base 4:4.13.90
 _ZN6Marble13PluginManager11qt_metacallEN11QMetaObject4CallEiPPv@Base 4:4.13.90
 _ZN6Marble13PluginManager11qt_metacastEPKc@Base 4:4.13.90
 _ZN6Marble13PluginManager15addRenderPluginEPKNS_12RenderPluginE@Base 4:4.13.90
 _ZN6Marble13PluginManager16staticMetaObjectE@Base 4:4.13.90
 _ZN6Marble13PluginManager20addParseRunnerPluginEPKNS_17ParseRunnerPluginE@Base 4:4.13.90
 _ZN6Marble13PluginManager20renderPluginsChangedEv@Base 4:4.13.90
 _ZN6Marble13PluginManager21addSearchRunnerPluginEPKNS_18SearchRunnerPluginE@Base 4:4.13.90
 _ZN6Marble13PluginManager22addRoutingRunnerPluginEPNS_19RoutingRunnerPluginE@Base 4:4.13.90
 _ZN6Marble13PluginManager25addPositionProviderPluginEPKNS_22PositionProviderPluginE@Base 4:4.13.90
 _ZN6Marble13PluginManager25parseRunnerPluginsChangedEv@Base 4:4.13.90
 _ZN6Marble13PluginManager26searchRunnerPluginsChangedEv@Base 4:4.13.90
 _ZN6Marble13PluginManager27routingRunnerPluginsChangedEv@Base 4:4.13.90
 _ZN6Marble13PluginManager30positionProviderPluginsChangedEv@Base 4:4.13.90
 _ZN6Marble13PluginManager31addReverseGeocodingRunnerPluginEPKNS_28ReverseGeocodingRunnerPluginE@Base 4:4.13.90
 _ZN6Marble13PluginManager36reverseGeocodingRunnerPluginsChangedEv@Base 4:4.13.90
 _ZN6Marble13PluginManagerC1EP7QObject@Base 4:4.13.90
 _ZN6Marble13PluginManagerC2EP7QObject@Base 4:4.13.90
 _ZN6Marble13PluginManagerD0Ev@Base 4:4.13.90
 _ZN6Marble13PluginManagerD1Ev@Base 4:4.13.90
 _ZN6Marble13PluginManagerD2Ev@Base 4:4.13.90
 _ZN6Marble13RoutingRunner11qt_metacallEN11QMetaObject4CallEiPPv@Base 4:4.13.90
 _ZN6Marble13RoutingRunner11qt_metacastEPKc@Base 4:4.13.90
 _ZN6Marble13RoutingRunner15routeCalculatedEPNS_15GeoDataDocumentE@Base 4:4.13.90
 _ZN6Marble13RoutingRunner16staticMetaObjectE@Base 4:4.13.90
 _ZN6Marble13RoutingRunner8setModelEPKNS_11MarbleModelE@Base 4:4.13.90
 _ZN6Marble13RoutingRunnerC1EP7QObject@Base 4:4.13.90
 _ZN6Marble13RoutingRunnerC2EP7QObject@Base 4:4.13.90
 _ZN6Marble13RoutingWidget11eventFilterEP7QObjectP6QEvent@Base 4:4.13.90
 _ZN6Marble13RoutingWidget11qt_metacallEN11QMetaObject4CallEiPPv@Base 4:4.13.90
 _ZN6Marble13RoutingWidget11qt_metacastEPKc@Base 4:4.13.90
 _ZN6Marble13RoutingWidget11resizeEventEP12QResizeEvent@Base 4:4.13.90
 _ZN6Marble13RoutingWidget12activateItemERK11QModelIndex@Base 4:4.13.90
 _ZN6Marble13RoutingWidget13retrieveRouteEv@Base 4:4.13.90
 _ZN6Marble13RoutingWidget13uploadToCloudEv@Base 4:4.13.90
 _ZN6Marble13RoutingWidget14addInputWidgetEv@Base 4:4.13.90
 _ZN6Marble13RoutingWidget14openCloudRouteERK7QString@Base 4:4.13.90
 _ZN6Marble13RoutingWidget14showDirectionsEv@Base 4:4.13.90
 _ZN6Marble13RoutingWidget14updateProgressEv@Base 4:4.13.90
 _ZN6Marble13RoutingWidget16configureProfileEv@Base 4:4.13.90
 _ZN6Marble13RoutingWidget16staticMetaObjectE@Base 4:4.13.90
 _ZN6Marble13RoutingWidget16updateRouteStateENS_14RoutingManager5StateE@Base 4:4.13.90
 _ZN6Marble13RoutingWidget17activatePlacemarkERK11QModelIndex@Base 4:4.13.90
 _ZN6Marble13RoutingWidget17insertInputWidgetEi@Base 4:4.13.90
 _ZN6Marble13RoutingWidget17removeInputWidgetEPNS_18RoutingInputWidgetE@Base 4:4.13.90
 _ZN6Marble13RoutingWidget17removeInputWidgetEi@Base 4:4.13.90
 _ZN6Marble13RoutingWidget17setRoutingProfileEi@Base 4:4.13.90
 _ZN6Marble13RoutingWidget18adjustSearchButtonEv@Base 4:4.13.90
 _ZN6Marble13RoutingWidget18handleSearchResultEPNS_18RoutingInputWidgetE@Base 4:4.13.90
 _ZN6Marble13RoutingWidget18requestMapPositionEPNS_18RoutingInputWidgetEb@Base 4:4.13.90
 _ZN6Marble13RoutingWidget18selectFirstProfileEv@Base 4:4.13.90
 _ZN6Marble13RoutingWidget19centerOnInputWidgetEPNS_18RoutingInputWidgetE@Base 4:4.13.90
 _ZN6Marble13RoutingWidget19setRouteSyncManagerEPNS_16RouteSyncManagerE@Base 4:4.13.90
 _ZN6Marble13RoutingWidget20updateUploadProgressExx@Base 4:4.13.90
 _ZN6Marble13RoutingWidget21openCloudRoutesDialogEv@Base 4:4.13.90
 _ZN6Marble13RoutingWidget21retrieveSelectedPointERKNS_18GeoDataCoordinatesE@Base 4:4.13.90
 _ZN6Marble13RoutingWidget22indicateRoutingFailureEPNS_15GeoDataDocumentE@Base 4:4.13.90
 _ZN6Marble13RoutingWidget22pointSelectionCanceledEv@Base 4:4.13.90
 _ZN6Marble13RoutingWidget22updateCloudSyncButtonsEv@Base 4:4.13.90
 _ZN6Marble13RoutingWidget23updateAlternativeRoutesEv@Base 4:4.13.90
 _ZN6Marble13RoutingWidget26updateActiveRoutingProfileEv@Base 4:4.13.90
 _ZN6Marble13RoutingWidget30setShowDirectionsButtonVisibleEb@Base 4:4.13.90
 _ZN6Marble13RoutingWidget9openRouteEv@Base 4:4.13.90
 _ZN6Marble13RoutingWidget9saveRouteEv@Base 4:4.13.90
 _ZN6Marble13RoutingWidgetC1EPNS_12MarbleWidgetEP7QWidget@Base 4:4.13.90
 _ZN6Marble13RoutingWidgetC2EPNS_12MarbleWidgetEP7QWidget@Base 4:4.13.90
 _ZN6Marble13RoutingWidgetD0Ev@Base 4:4.13.90
 _ZN6Marble13RoutingWidgetD1Ev@Base 4:4.13.90
 _ZN6Marble13RoutingWidgetD2Ev@Base 4:4.13.90
 _ZN6Marble13SpeakersModel11qt_metacallEN11QMetaObject4CallEiPPv@Base 4:4.13.90
 _ZN6Marble13SpeakersModel11qt_metacastEPKc@Base 4:4.13.90
 _ZN6Marble13SpeakersModel12countChangedEv@Base 4:4.13.90
 _ZN6Marble13SpeakersModel16staticMetaObjectE@Base 4:4.13.90
 _ZN6Marble13SpeakersModel20installationFinishedEi@Base 4:4.13.90
 (subst)_ZN6Marble13SpeakersModel22installationProgressedEi{qreal}@Base 4:4.13.90
 _ZN6Marble13SpeakersModel4pathEi@Base 4:4.13.90
 _ZN6Marble13SpeakersModel7indexOfERK7QString@Base 4:4.13.90
 _ZN6Marble13SpeakersModel7installEi@Base 4:4.13.90
 _ZN6Marble13SpeakersModelC1EP7QObject@Base 4:4.13.90
 _ZN6Marble13SpeakersModelC2EP7QObject@Base 4:4.13.90
 _ZN6Marble13SpeakersModelD0Ev@Base 4:4.13.90
 _ZN6Marble13SpeakersModelD1Ev@Base 4:4.13.90
 _ZN6Marble13SpeakersModelD2Ev@Base 4:4.13.90
 _ZN6Marble14AutoNavigation11qt_metacallEN11QMetaObject4CallEiPPv@Base 4:4.13.90
 _ZN6Marble14AutoNavigation11qt_metacastEPKc@Base 4:4.13.90
 _ZN6Marble14AutoNavigation11setAutoZoomEb@Base 4:4.13.90
 _ZN6Marble14AutoNavigation11setRecenterENS0_10CenterModeE@Base 4:4.13.90
 _ZN6Marble14AutoNavigation15autoZoomToggledEb@Base 4:4.13.90
 _ZN6Marble14AutoNavigation16staticMetaObjectE@Base 4:4.13.90
 _ZN6Marble14AutoNavigation19recenterModeChangedENS0_10CenterModeE@Base 4:4.13.90
 _ZN6Marble14AutoNavigation22inhibitAutoAdjustmentsEv@Base 4:4.13.90
 (subst)_ZN6Marble14AutoNavigation6adjustERKNS_18GeoDataCoordinatesE{qreal}@Base 4:4.13.90
 _ZN6Marble14AutoNavigation6zoomInENS_9FlyToModeE@Base 4:4.13.90
 (subst)_ZN6Marble14AutoNavigation7Private10adjustZoomERKNS_18GeoDataCoordinatesE{qreal}@Base 4:4.13.90
 (subst)_ZN6Marble14AutoNavigation7Private20moveOnBorderToCenterERKNS_18GeoDataCoordinatesE{qreal}@Base 4:4.13.90
 _ZN6Marble14AutoNavigation7Private8centerOnERKNS_18GeoDataCoordinatesE@Base 4:4.13.90
 _ZN6Marble14AutoNavigation7PrivateC1EPNS_11MarbleModelEPKNS_14ViewportParamsEPS0_@Base 4:4.13.90
 _ZN6Marble14AutoNavigation7PrivateC2EPNS_11MarbleModelEPKNS_14ViewportParamsEPS0_@Base 4:4.13.90
 _ZN6Marble14AutoNavigation7zoomOutENS_9FlyToModeE@Base 4:4.13.90
 _ZN6Marble14AutoNavigation8centerOnERKNS_18GeoDataCoordinatesEb@Base 4:4.13.90
 _ZN6Marble14AutoNavigationC1EPNS_11MarbleModelEPKNS_14ViewportParamsEP7QObject@Base 4:4.13.90
 _ZN6Marble14AutoNavigationC2EPNS_11MarbleModelEPKNS_14ViewportParamsEP7QObject@Base 4:4.13.90
 _ZN6Marble14AutoNavigationD0Ev@Base 4:4.13.90
 _ZN6Marble14AutoNavigationD1Ev@Base 4:4.13.90
 _ZN6Marble14AutoNavigationD2Ev@Base 4:4.13.90
 _ZN6Marble14ConflictDialog11qt_metacallEN11QMetaObject4CallEiPPv@Base 4:4.13.90
 _ZN6Marble14ConflictDialog11qt_metacastEPKc@Base 4:4.13.90
 _ZN6Marble14ConflictDialog12setMergeItemEPNS_9MergeItemE@Base 4:4.13.90
 _ZN6Marble14ConflictDialog13prepareLayoutEv@Base 4:4.13.90
 _ZN6Marble14ConflictDialog15resolveConflictEP15QAbstractButton@Base 4:4.13.90
 _ZN6Marble14ConflictDialog15resolveConflictEPNS_9MergeItemE@Base 4:4.13.90
 _ZN6Marble14ConflictDialog15stopAutoResolveEv@Base 4:4.13.90
 _ZN6Marble14ConflictDialog16staticMetaObjectE@Base 4:4.13.90
 _ZN6Marble14ConflictDialog4openEv@Base 4:4.13.90
 _ZN6Marble14ConflictDialogC1EP7QWidget@Base 4:4.13.90
 _ZN6Marble14ConflictDialogC2EP7QWidget@Base 4:4.13.90
 _ZN6Marble14ConflictDialogD0Ev@Base 4:4.13.90
 _ZN6Marble14ConflictDialogD1Ev@Base 4:4.13.90
 _ZN6Marble14ConflictDialogD2Ev@Base 4:4.13.90
 _ZN6Marble14DownloadRegion11qt_metacallEN11QMetaObject4CallEiPPv@Base 4:4.13.90
 _ZN6Marble14DownloadRegion11qt_metacastEPKc@Base 4:4.13.90
 _ZN6Marble14DownloadRegion14setMarbleModelEPNS_11MarbleModelE@Base 4:4.13.90
 _ZN6Marble14DownloadRegion16staticMetaObjectE@Base 4:4.13.90
 _ZN6Marble14DownloadRegion17setTileLevelRangeEii@Base 4:4.13.90
 _ZN6Marble14DownloadRegion19setVisibleTileLevelEi@Base 4:4.13.90
 _ZN6Marble14DownloadRegionC1EP7QObject@Base 4:4.13.90
 _ZN6Marble14DownloadRegionC2EP7QObject@Base 4:4.13.90
 _ZN6Marble14DownloadRegionD0Ev@Base 4:4.13.90
 _ZN6Marble14DownloadRegionD1Ev@Base 4:4.13.90
 _ZN6Marble14DownloadRegionD2Ev@Base 4:4.13.90
 _ZN6Marble14ElevationModel11qt_metacallEN11QMetaObject4CallEiPPv@Base 4:4.13.90
 _ZN6Marble14ElevationModel11qt_metacastEPKc@Base 4:4.13.90
 _ZN6Marble14ElevationModel15updateAvailableEv@Base 4:4.13.90
 _ZN6Marble14ElevationModel16staticMetaObjectE@Base 4:4.13.90
 _ZN6Marble14ElevationModelC1EPNS_11MarbleModelE@Base 4:4.13.90
 _ZN6Marble14ElevationModelC2EPNS_11MarbleModelE@Base 4:4.13.90
 _ZN6Marble14ElevationModelD0Ev@Base 4:4.13.90
 _ZN6Marble14ElevationModelD1Ev@Base 4:4.13.90
 _ZN6Marble14ElevationModelD2Ev@Base 4:4.13.90
 _ZN6Marble14FileViewWidget11qt_metacallEN11QMetaObject4CallEiPPv@Base 4:4.13.90
 _ZN6Marble14FileViewWidget11qt_metacastEPKc@Base 4:4.13.90
 _ZN6Marble14FileViewWidget15setMarbleWidgetEPNS_12MarbleWidgetE@Base 4:4.13.90
 _ZN6Marble14FileViewWidget16staticMetaObjectE@Base 4:4.13.90
 _ZN6Marble14FileViewWidget24mapCenterOnTreeViewModelERK11QModelIndex@Base 4:4.13.90
 _ZN6Marble14FileViewWidget8centerOnERKNS_16GeoDataLatLonBoxEb@Base 4:4.13.90
 _ZN6Marble14FileViewWidget8centerOnERKNS_16GeoDataPlacemarkEb@Base 4:4.13.90
 _ZN6Marble14FileViewWidgetC1EP7QWidget6QFlagsIN2Qt10WindowTypeEE@Base 4:4.13.90
 _ZN6Marble14FileViewWidgetC2EP7QWidget6QFlagsIN2Qt10WindowTypeEE@Base 4:4.13.90
 _ZN6Marble14FileViewWidgetD0Ev@Base 4:4.13.90
 _ZN6Marble14FileViewWidgetD1Ev@Base 4:4.13.90
 _ZN6Marble14FileViewWidgetD2Ev@Base 4:4.13.90
 _ZN6Marble14GeoDataFeature10setAddressERK7QString@Base 4:4.13.90
 _ZN6Marble14GeoDataFeature10setSnippetERKNS_14GeoDataSnippetE@Base 4:4.13.90
 _ZN6Marble14GeoDataFeature10setVisibleEb@Base 4:4.13.90
 _ZN6Marble14GeoDataFeature11defaultFontEv@Base 4:4.13.90
 _ZN6Marble14GeoDataFeature11setStyleMapEPKNS_15GeoDataStyleMapE@Base 4:4.13.90
 _ZN6Marble14GeoDataFeature11setStyleUrlERK7QString@Base 4:4.13.90
 _ZN6Marble14GeoDataFeature11setTimeSpanERKNS_15GeoDataTimeSpanE@Base 4:4.13.90
 _ZN6Marble14GeoDataFeature12abstractViewEv@Base 4:4.13.90
 _ZN6Marble14GeoDataFeature12setTimeStampERKNS_16GeoDataTimeStampE@Base 4:4.13.90
 _ZN6Marble14GeoDataFeature12setZoomLevelEi@Base 4:4.13.90
 _ZN6Marble14GeoDataFeature13setPopularityEx@Base 4:4.13.90
 _ZN6Marble14GeoDataFeature14setDefaultFontERK5QFont@Base 4:4.13.90
 _ZN6Marble14GeoDataFeature14setDescriptionERK7QString@Base 4:4.13.90
 _ZN6Marble14GeoDataFeature14setPhoneNumberERK7QString@Base 4:4.13.90
 _ZN6Marble14GeoDataFeature15setAbstractViewEPNS_19GeoDataAbstractViewE@Base 4:4.13.90
 _ZN6Marble14GeoDataFeature15setExtendedDataERKNS_19GeoDataExtendedDataE@Base 4:4.13.90
 _ZN6Marble14GeoDataFeature17OsmVisualCategoryERK7QString@Base 4:4.13.90
 _ZN6Marble14GeoDataFeature17defaultLabelColorEv@Base 4:4.13.90
 _ZN6Marble14GeoDataFeature17setVisualCategoryENS0_21GeoDataVisualCategoryE@Base 4:4.13.90
 _ZN6Marble14GeoDataFeature18resetDefaultStylesEv@Base 4:4.13.90
 _ZN6Marble14GeoDataFeature19setDescriptionCDATAEb@Base 4:4.13.90
 _ZN6Marble14GeoDataFeature20setDefaultLabelColorERK6QColor@Base 4:4.13.90
 _ZN6Marble14GeoDataFeature6detachEv@Base 4:4.13.90
 _ZN6Marble14GeoDataFeature6unpackER11QDataStream@Base 4:4.13.90
 _ZN6Marble14GeoDataFeature7setNameERK7QString@Base 4:4.13.90
 _ZN6Marble14GeoDataFeature7setRoleERK7QString@Base 4:4.13.90
 _ZN6Marble14GeoDataFeature8setStyleEPNS_12GeoDataStyleE@Base 4:4.13.90
 _ZN6Marble14GeoDataFeature8timeSpanEv@Base 4:4.13.90
 _ZN6Marble14GeoDataFeature9setRegionERKNS_13GeoDataRegionE@Base 4:4.13.90
 _ZN6Marble14GeoDataFeature9timeStampEv@Base 4:4.13.90
 _ZN6Marble14GeoDataFeatureC1EPNS_21GeoDataFeaturePrivateE@Base 4:4.13.90
 _ZN6Marble14GeoDataFeatureC1ERK7QString@Base 4:4.13.90
 _ZN6Marble14GeoDataFeatureC1ERKS0_@Base 4:4.13.90
 _ZN6Marble14GeoDataFeatureC1Ev@Base 4:4.13.90
 _ZN6Marble14GeoDataFeatureC2EPNS_21GeoDataFeaturePrivateE@Base 4:4.13.90
 _ZN6Marble14GeoDataFeatureC2ERK7QString@Base 4:4.13.90
 _ZN6Marble14GeoDataFeatureC2ERKS0_@Base 4:4.13.90
 _ZN6Marble14GeoDataFeatureC2Ev@Base 4:4.13.90
 _ZN6Marble14GeoDataFeatureD0Ev@Base 4:4.13.90
 _ZN6Marble14GeoDataFeatureD1Ev@Base 4:4.13.90
 _ZN6Marble14GeoDataFeatureD2Ev@Base 4:4.13.90
 _ZN6Marble14GeoDataFeatureaSERKS0_@Base 4:4.13.90
 _ZN6Marble14GeoDataHotSpot10setHotSpotERK7QPointFNS0_5UnitsES4_@Base 4:4.13.90
 _ZN6Marble14GeoDataHotSpot6unpackER11QDataStream@Base 4:4.13.90
 _ZN6Marble14GeoDataHotSpotC1ERK7QPointFNS0_5UnitsES4_@Base 4:4.13.90
 _ZN6Marble14GeoDataHotSpotC1ERKS0_@Base 4:4.13.90
 _ZN6Marble14GeoDataHotSpotC2ERK7QPointFNS0_5UnitsES4_@Base 4:4.13.90
 _ZN6Marble14GeoDataHotSpotC2ERKS0_@Base 4:4.13.90
 _ZN6Marble14GeoDataHotSpotD0Ev@Base 4:4.13.90
 _ZN6Marble14GeoDataHotSpotD1Ev@Base 4:4.13.90
 _ZN6Marble14GeoDataHotSpotD2Ev@Base 4:4.13.90
 _ZN6Marble14GeoDataHotSpotaSERKS0_@Base 4:4.13.90
 _ZN6Marble14GeoDataHotSpoteqERKS0_@Base 4:4.13.90
 _ZN6Marble14GeoDataHotSpotneERKS0_@Base 4:4.13.90
 _ZN6Marble14GeoDataOverlay11setIconFileERK7QString@Base 4:4.13.90
 _ZN6Marble14GeoDataOverlay12setDrawOrderEi@Base 4:4.13.90
 _ZN6Marble14GeoDataOverlay7setIconERK6QImage@Base 4:4.13.90
 _ZN6Marble14GeoDataOverlay8setColorERK6QColor@Base 4:4.13.90
 _ZN6Marble14GeoDataOverlayC1ERKS0_@Base 4:4.13.90
 _ZN6Marble14GeoDataOverlayC1Ev@Base 4:4.13.90
 _ZN6Marble14GeoDataOverlayC2ERKS0_@Base 4:4.13.90
 _ZN6Marble14GeoDataOverlayC2Ev@Base 4:4.13.90
 _ZN6Marble14GeoDataOverlayD0Ev@Base 4:4.13.90
 _ZN6Marble14GeoDataOverlayD1Ev@Base 4:4.13.90
 _ZN6Marble14GeoDataOverlayD2Ev@Base 4:4.13.90
 _ZN6Marble14GeoDataOverlayaSERKS0_@Base 4:4.13.90
 _ZN6Marble14GeoDataPolygon13outerBoundaryEv@Base 4:4.13.90
 _ZN6Marble14GeoDataPolygon13setTessellateEb@Base 4:4.13.90
 _ZN6Marble14GeoDataPolygon15innerBoundariesEv@Base 4:4.13.90
 _ZN6Marble14GeoDataPolygon16setOuterBoundaryERKNS_17GeoDataLinearRingE@Base 4:4.13.90
 _ZN6Marble14GeoDataPolygon19appendInnerBoundaryERKNS_17GeoDataLinearRingE@Base 4:4.13.90
 _ZN6Marble14GeoDataPolygon1pEv@Base 4:4.13.90
 _ZN6Marble14GeoDataPolygon20setTessellationFlagsE6QFlagsINS_16TessellationFlagEE@Base 4:4.13.90
 _ZN6Marble14GeoDataPolygon6unpackER11QDataStream@Base 4:4.13.90
 _ZN6Marble14GeoDataPolygonC1E6QFlagsINS_16TessellationFlagEE@Base 4:4.13.90
 _ZN6Marble14GeoDataPolygonC1ERKNS_15GeoDataGeometryE@Base 4:4.13.90
 _ZN6Marble14GeoDataPolygonC2E6QFlagsINS_16TessellationFlagEE@Base 4:4.13.90
 _ZN6Marble14GeoDataPolygonC2ERKNS_15GeoDataGeometryE@Base 4:4.13.90
 _ZN6Marble14GeoDataPolygonD0Ev@Base 4:4.13.90
 _ZN6Marble14GeoDataPolygonD1Ev@Base 4:4.13.90
 _ZN6Marble14GeoDataPolygonD2Ev@Base 4:4.13.90
 _ZN6Marble14GeoDataSnippet11setMaxLinesEi@Base 4:4.13.90
 _ZN6Marble14GeoDataSnippet7setTextERK7QString@Base 4:4.13.90
 _ZN6Marble14GeoDataSnippetC1ERK7QStringi@Base 4:4.13.90
 _ZN6Marble14GeoDataSnippetC2ERK7QStringi@Base 4:4.13.90
 _ZN6Marble14GeoSceneLegend10addSectionEPKNS_15GeoSceneSectionE@Base 4:4.13.90
 _ZN6Marble14GeoSceneLegendC1Ev@Base 4:4.13.90
 _ZN6Marble14GeoSceneLegendC2Ev@Base 4:4.13.90
 _ZN6Marble14GeoSceneLegendD0Ev@Base 4:4.13.90
 _ZN6Marble14GeoSceneLegendD1Ev@Base 4:4.13.90
 _ZN6Marble14GeoSceneLegendD2Ev@Base 4:4.13.90
 _ZN6Marble14GeoSceneParser18isValidRootElementEv@Base 4:4.13.90
 _ZN6Marble14GeoSceneParserC1ENS_18GeoSceneSourceTypeE@Base 4:4.13.90
 _ZN6Marble14GeoSceneParserC2ENS_18GeoSceneSourceTypeE@Base 4:4.13.90
 _ZN6Marble14GeoSceneParserD0Ev@Base 4:4.13.90
 _ZN6Marble14GeoSceneParserD1Ev@Base 4:4.13.90
 _ZN6Marble14GeoSceneParserD2Ev@Base 4:4.13.90
 _ZN6Marble14GeoSceneVector10setFeatureERK7QString@Base 4:4.13.90
 _ZN6Marble14GeoSceneVector13setSourceFileERK7QString@Base 4:4.13.90
 _ZN6Marble14GeoSceneVector6setPenERK4QPen@Base 4:4.13.90
 _ZN6Marble14GeoSceneVector8setBrushERK6QBrush@Base 4:4.13.90
 _ZN6Marble14GeoSceneVectorC1ERK7QString@Base 4:4.13.90
 _ZN6Marble14GeoSceneVectorC2ERK7QString@Base 4:4.13.90
 _ZN6Marble14GeoSceneVectorD0Ev@Base 4:4.13.90
 _ZN6Marble14GeoSceneVectorD1Ev@Base 4:4.13.90
 _ZN6Marble14GeoSceneVectorD2Ev@Base 4:4.13.90
 _ZN6Marble14LayerInterfaceD0Ev@Base 4:4.13.90
 _ZN6Marble14LayerInterfaceD1Ev@Base 4:4.13.90
 _ZN6Marble14LayerInterfaceD2Ev@Base 4:4.13.90
 _ZN6Marble14MarbleLineEdit11qt_metacallEN11QMetaObject4CallEiPPv@Base 4:4.13.90
 _ZN6Marble14MarbleLineEdit11qt_metacastEPKc@Base 4:4.13.90
 _ZN6Marble14MarbleLineEdit11resizeEventEP12QResizeEvent@Base 4:4.13.90
 _ZN6Marble14MarbleLineEdit12setDecoratorERK7QPixmap@Base 4:4.13.90
 _ZN6Marble14MarbleLineEdit14updateProgressEv@Base 4:4.13.90
 _ZN6Marble14MarbleLineEdit16staticMetaObjectE@Base 4:4.13.90
 _ZN6Marble14MarbleLineEdit17mouseReleaseEventEP11QMouseEvent@Base 4:4.13.90
 _ZN6Marble14MarbleLineEdit17updateClearButtonEv@Base 4:4.13.90
 _ZN6Marble14MarbleLineEdit18clearButtonClickedEv@Base 4:4.13.90
 _ZN6Marble14MarbleLineEdit21updateClearButtonIconERK7QString@Base 4:4.13.90
 _ZN6Marble14MarbleLineEdit22decoratorButtonClickedEv@Base 4:4.13.90
 _ZN6Marble14MarbleLineEdit7setBusyEb@Base 4:4.13.90
 _ZN6Marble14MarbleLineEditC1EP7QWidget@Base 4:4.13.90
 _ZN6Marble14MarbleLineEditC2EP7QWidget@Base 4:4.13.90
 _ZN6Marble14MarbleLineEditD0Ev@Base 4:4.13.90
 _ZN6Marble14MarbleLineEditD1Ev@Base 4:4.13.90
 _ZN6Marble14MarbleLineEditD2Ev@Base 4:4.13.90
 _ZN6Marble14RoutingManager10clearRouteEv@Base 4:4.13.90
 _ZN6Marble14RoutingManager11qt_metacallEN11QMetaObject4CallEiPPv@Base 4:4.13.90
 _ZN6Marble14RoutingManager11qt_metacastEPKc@Base 4:4.13.90
 _ZN6Marble14RoutingManager12readSettingsEv@Base 4:4.13.90
 _ZN6Marble14RoutingManager12reverseRouteEv@Base 4:4.13.90
 _ZN6Marble14RoutingManager12routeRequestEv@Base 4:4.13.90
 _ZN6Marble14RoutingManager12routingModelEv@Base 4:4.13.90
 _ZN6Marble14RoutingManager12stateChangedENS0_5StateE@Base 4:4.13.90
 _ZN6Marble14RoutingManager13profilesModelEv@Base 4:4.13.90
 _ZN6Marble14RoutingManager13retrieveRouteEv@Base 4:4.13.90
 _ZN6Marble14RoutingManager14routeRetrievedEPNS_15GeoDataDocumentE@Base 4:4.13.90
 _ZN6Marble14RoutingManager15setLastOpenPathERK7QString@Base 4:4.13.90
 _ZN6Marble14RoutingManager15setLastSavePathERK7QString@Base 4:4.13.90
 _ZN6Marble14RoutingManager16staticMetaObjectE@Base 4:4.13.90
 _ZN6Marble14RoutingManager17setAutoNavigationEPNS_14AutoNavigationE@Base 4:4.13.90
 _ZN6Marble14RoutingManager21setRouteColorStandardE6QColor@Base 4:4.13.90
 _ZN6Marble14RoutingManager22alternativeRoutesModelEv@Base 4:4.13.90
 _ZN6Marble14RoutingManager22setGuidanceModeEnabledEb@Base 4:4.13.90
 _ZN6Marble14RoutingManager24setRouteColorAlternativeE6QColor@Base 4:4.13.90
 _ZN6Marble14RoutingManager24setRouteColorHighlightedE6QColor@Base 4:4.13.90
 _ZN6Marble14RoutingManager33setShowGuidanceModeStartupWarningEb@Base 4:4.13.90
 _ZN6Marble14RoutingManager9loadRouteERK7QString@Base 4:4.13.90
 _ZN6Marble14RoutingManagerC1EPNS_11MarbleModelEP7QObject@Base 4:4.13.90
 _ZN6Marble14RoutingManagerC2EPNS_11MarbleModelEP7QObject@Base 4:4.13.90
 _ZN6Marble14RoutingManagerD0Ev@Base 4:4.13.90
 _ZN6Marble14RoutingManagerD1Ev@Base 4:4.13.90
 _ZN6Marble14RoutingManagerD2Ev@Base 4:4.13.90
 _ZN6Marble14RoutingProfile14pluginSettingsEv@Base 4:4.13.90
 _ZN6Marble14RoutingProfile16setTransportTypeENS0_13TransportTypeE@Base 4:4.13.90
 _ZN6Marble14RoutingProfile7setNameERK7QString@Base 4:4.13.90
 _ZN6Marble14RoutingProfileC1ERK7QString@Base 4:4.13.90
 _ZN6Marble14RoutingProfileC2ERK7QString@Base 4:4.13.90
 _ZN6Marble14TinyWebBrowser11qt_metacallEN11QMetaObject4CallEiPPv@Base 4:4.13.90
 _ZN6Marble14TinyWebBrowser11qt_metacastEPKc@Base 4:4.13.90
 _ZN6Marble14TinyWebBrowser12createWindowEN8QWebPage13WebWindowTypeE@Base 4:4.13.90
 _ZN6Marble14TinyWebBrowser13statusMessageE7QString@Base 4:4.13.90
 _ZN6Marble14TinyWebBrowser16openExternalLinkE4QUrl@Base 4:4.13.90
 _ZN6Marble14TinyWebBrowser16setWikipediaPathERK7QString@Base 4:4.13.90
 _ZN6Marble14TinyWebBrowser16staticMetaObjectE@Base 4:4.13.90
 _ZN6Marble14TinyWebBrowser5printEv@Base 4:4.13.90
 _ZN6Marble14TinyWebBrowser9userAgentERK7QStringS3_@Base 4:4.13.90
 _ZN6Marble14TinyWebBrowserC1EP7QWidget@Base 4:4.13.90
 _ZN6Marble14TinyWebBrowserC2EP7QWidget@Base 4:4.13.90
 _ZN6Marble14TinyWebBrowserD0Ev@Base 4:4.13.90
 _ZN6Marble14TinyWebBrowserD1Ev@Base 4:4.13.90
 _ZN6Marble14TinyWebBrowserD2Ev@Base 4:4.13.90
 _ZN6Marble14ViewportParams13setFocusPointERKNS_18GeoDataCoordinatesE@Base 4:4.13.90
 _ZN6Marble14ViewportParams13setProjectionENS_10ProjectionE@Base 4:4.13.90
 _ZN6Marble14ViewportParams15resetFocusPointEv@Base 4:4.13.90
 _ZN6Marble14ViewportParams7setSizeE5QSize@Base 4:4.13.90
 (subst)_ZN6Marble14ViewportParams8centerOnE{qreal}{qreal}@Base 4:4.13.90
 _ZN6Marble14ViewportParams8setWidthEi@Base 4:4.13.90
 _ZN6Marble14ViewportParams9setHeightEi@Base 4:4.13.90
 _ZN6Marble14ViewportParams9setRadiusEi@Base 4:4.13.90
 (subst)_ZN6Marble14ViewportParamsC1ENS_10ProjectionE{qreal}{qreal}iRK5QSize@Base 4:4.13.90
 _ZN6Marble14ViewportParamsC1Ev@Base 4:4.13.90
 (subst)_ZN6Marble14ViewportParamsC2ENS_10ProjectionE{qreal}{qreal}iRK5QSize@Base 4:4.13.90
 _ZN6Marble14ViewportParamsC2Ev@Base 4:4.13.90
 _ZN6Marble14ViewportParamsD1Ev@Base 4:4.13.90
 _ZN6Marble14ViewportParamsD2Ev@Base 4:4.13.90
 _ZN6Marble14WaypointParser13setFieldIndexENS0_5FieldEi@Base 4:4.13.90
 _ZN6Marble14WaypointParser16setLineSeparatorERK7QString@Base 4:4.13.90
 _ZN6Marble14WaypointParser17setFieldSeparatorERK5QChar@Base 4:4.13.90
 _ZN6Marble14WaypointParser22addJunctionTypeMappingERK7QStringNS_15RoutingWaypoint12JunctionTypeE@Base 4:4.13.90
 _ZN6Marble14WaypointParserC1Ev@Base 4:4.13.90
 _ZN6Marble14WaypointParserC2Ev@Base 4:4.13.90
 _ZN6Marble15BookmarkManager11addBookmarkEPNS_16GeoDataContainerERKNS_16GeoDataPlacemarkE@Base 4:4.13.90
 _ZN6Marble15BookmarkManager11qt_metacallEN11QMetaObject4CallEiPPv@Base 4:4.13.90
 _ZN6Marble15BookmarkManager11qt_metacastEPKc@Base 4:4.13.90
 _ZN6Marble15BookmarkManager14removeBookmarkEPNS_16GeoDataPlacemarkE@Base 4:4.13.90
 _ZN6Marble15BookmarkManager14updateBookmarkEPNS_16GeoDataPlacemarkE@Base 4:4.13.90
 _ZN6Marble15BookmarkManager16bookmarksChangedEv@Base 4:4.13.90
 _ZN6Marble15BookmarkManager16setShowBookmarksEb@Base 4:4.13.90
 _ZN6Marble15BookmarkManager16staticMetaObjectE@Base 4:4.13.90
 _ZN6Marble15BookmarkManager18removeAllBookmarksEv@Base 4:4.13.90
 _ZN6Marble15BookmarkManager18updateBookmarkFileEv@Base 4:4.13.90
 _ZN6Marble15BookmarkManager19ensureDefaultFolderEv@Base 4:4.13.90
 _ZN6Marble15BookmarkManager20addNewBookmarkFolderEPNS_16GeoDataContainerERK7QString@Base 4:4.13.90
 _ZN6Marble15BookmarkManager20removeBookmarkFolderEPNS_13GeoDataFolderE@Base 4:4.13.90
 _ZN6Marble15BookmarkManager20renameBookmarkFolderEPNS_13GeoDataFolderERK7QString@Base 4:4.13.90
 _ZN6Marble15BookmarkManager8documentEv@Base 4:4.13.90
 _ZN6Marble15BookmarkManager8loadFileERK7QString@Base 4:4.13.90
 _ZN6Marble15BookmarkManager8openFileERK7QString@Base 4:4.13.90
 _ZN6Marble15BookmarkManagerC1EPNS_16GeoDataTreeModelEP7QObject@Base 4:4.13.90
 _ZN6Marble15BookmarkManagerC2EPNS_16GeoDataTreeModelEP7QObject@Base 4:4.13.90
 _ZN6Marble15BookmarkManagerD0Ev@Base 4:4.13.90
 _ZN6Marble15BookmarkManagerD1Ev@Base 4:4.13.90
 _ZN6Marble15BookmarkManagerD2Ev@Base 4:4.13.90
 _ZN6Marble15CloudRouteModel10setPreviewEP13QNetworkReply@Base 4:4.13.90
 _ZN6Marble15CloudRouteModel11qt_metacallEN11QMetaObject4CallEiPPv@Base 4:4.13.90
 _ZN6Marble15CloudRouteModel11qt_metacastEPKc@Base 4:4.13.90
 _ZN6Marble15CloudRouteModel14updateProgressExx@Base 4:4.13.90
 _ZN6Marble15CloudRouteModel16staticMetaObjectE@Base 4:4.13.90
 _ZN6Marble15CloudRouteModel18setDownloadingItemERK21QPersistentModelIndex@Base 4:4.13.90
 _ZN6Marble15CloudRouteModel7PrivateC1Ev@Base 4:4.13.90
 _ZN6Marble15CloudRouteModel7PrivateC2Ev@Base 4:4.13.90
 _ZN6Marble15CloudRouteModel8setItemsERK7QVectorINS_9RouteItemEE@Base 4:4.13.90
 _ZN6Marble15CloudRouteModelC1EP7QObject@Base 4:4.13.90
 _ZN6Marble15CloudRouteModelC2EP7QObject@Base 4:4.13.90
 _ZN6Marble15CloudRouteModelD0Ev@Base 4:4.13.90
 _ZN6Marble15CloudRouteModelD1Ev@Base 4:4.13.90
 _ZN6Marble15CloudRouteModelD2Ev@Base 4:4.13.90
 (subst)_ZN6Marble15GeoDataAccuracyC1ENS0_5LevelE{qreal}{qreal}@Base 4:4.13.90
 (subst)_ZN6Marble15GeoDataAccuracyC2ENS0_5LevelE{qreal}{qreal}@Base 4:4.13.90
 _ZN6Marble15GeoDataDocument10setBaseUriERK7QString@Base 4:4.13.90
 _ZN6Marble15GeoDataDocument11addStyleMapERKNS_15GeoDataStyleMapE@Base 4:4.13.90
 _ZN6Marble15GeoDataDocument11removeStyleERK7QString@Base 4:4.13.90
 _ZN6Marble15GeoDataDocument11setFileNameERK7QString@Base 4:4.13.90
 _ZN6Marble15GeoDataDocument11setPropertyE7QString@Base 4:4.13.90
 _ZN6Marble15GeoDataDocument12removeSchemaERK7QString@Base 4:4.13.90
 _ZN6Marble15GeoDataDocument14removeStyleMapERK7QString@Base 4:4.13.90
 _ZN6Marble15GeoDataDocument15setDocumentRoleENS_12DocumentRoleE@Base 4:4.13.90
 _ZN6Marble15GeoDataDocument1pEv@Base 4:4.13.90
 _ZN6Marble15GeoDataDocument21setNetworkLinkControlERKNS_25GeoDataNetworkLinkControlE@Base 4:4.13.90
 _ZN6Marble15GeoDataDocument5styleERK7QString@Base 4:4.13.90
 _ZN6Marble15GeoDataDocument6schemaERK7QString@Base 4:4.13.90
 _ZN6Marble15GeoDataDocument6unpackER11QDataStream@Base 4:4.13.90
 _ZN6Marble15GeoDataDocument8addStyleERKNS_12GeoDataStyleE@Base 4:4.13.90
 _ZN6Marble15GeoDataDocument8styleMapERK7QString@Base 4:4.13.90
 _ZN6Marble15GeoDataDocument9addSchemaERKNS_13GeoDataSchemaE@Base 4:4.13.90
 _ZN6Marble15GeoDataDocumentC1ERKS0_@Base 4:4.13.90
 _ZN6Marble15GeoDataDocumentC1Ev@Base 4:4.13.90
 _ZN6Marble15GeoDataDocumentC2ERKS0_@Base 4:4.13.90
 _ZN6Marble15GeoDataDocumentC2Ev@Base 4:4.13.90
 _ZN6Marble15GeoDataDocumentD0Ev@Base 4:4.13.90
 _ZN6Marble15GeoDataDocumentD1Ev@Base 4:4.13.90
 _ZN6Marble15GeoDataDocumentD2Ev@Base 4:4.13.90
 _ZN6Marble15GeoDataGeometry10setExtrudeEb@Base 4:4.13.90
 _ZN6Marble15GeoDataGeometry15setAltitudeModeENS_12AltitudeModeE@Base 4:4.13.90
 _ZN6Marble15GeoDataGeometry6detachEv@Base 4:4.13.90
 _ZN6Marble15GeoDataGeometry6unpackER11QDataStream@Base 4:4.13.90
 _ZN6Marble15GeoDataGeometryC1EPNS_22GeoDataGeometryPrivateE@Base 4:4.13.90
 _ZN6Marble15GeoDataGeometryC1ERKS0_@Base 4:4.13.90
 _ZN6Marble15GeoDataGeometryC1Ev@Base 4:4.13.90
 _ZN6Marble15GeoDataGeometryC2EPNS_22GeoDataGeometryPrivateE@Base 4:4.13.90
 _ZN6Marble15GeoDataGeometryC2ERKS0_@Base 4:4.13.90
 _ZN6Marble15GeoDataGeometryC2Ev@Base 4:4.13.90
 _ZN6Marble15GeoDataGeometryD0Ev@Base 4:4.13.90
 _ZN6Marble15GeoDataGeometryD1Ev@Base 4:4.13.90
 _ZN6Marble15GeoDataGeometryD2Ev@Base 4:4.13.90
 _ZN6Marble15GeoDataGeometryaSERKS0_@Base 4:4.13.90
 _ZN6Marble15GeoDataItemIcon11setIconPathERK7QString@Base 4:4.13.90
 _ZN6Marble15GeoDataItemIcon7setIconERK6QImage@Base 4:4.13.90
 _ZN6Marble15GeoDataItemIcon8setStateERK6QFlagsINS0_13ItemIconStateEE@Base 4:4.13.90
 _ZN6Marble15GeoDataItemIconC1ERKS0_@Base 4:4.13.90
 _ZN6Marble15GeoDataItemIconC1Ev@Base 4:4.13.90
 _ZN6Marble15GeoDataItemIconC2ERKS0_@Base 4:4.13.90
 _ZN6Marble15GeoDataItemIconC2Ev@Base 4:4.13.90
 _ZN6Marble15GeoDataItemIconD0Ev@Base 4:4.13.90
 _ZN6Marble15GeoDataItemIconD1Ev@Base 4:4.13.90
 _ZN6Marble15GeoDataItemIconD2Ev@Base 4:4.13.90
 _ZN6Marble15GeoDataItemIconaSERKS0_@Base 4:4.13.90
 (subst)_ZN6Marble15GeoDataLocation11setAltitudeE{qreal}@Base 4:4.13.90
 (subst)_ZN6Marble15GeoDataLocation11setLatitudeE{qreal}NS_18GeoDataCoordinates4UnitE@Base 4:4.13.90
 (subst)_ZN6Marble15GeoDataLocation12setLongitudeE{qreal}NS_18GeoDataCoordinates4UnitE@Base 4:4.13.90
 _ZN6Marble15GeoDataLocationC1ERKS0_@Base 4:4.13.90
 _ZN6Marble15GeoDataLocationC1Ev@Base 4:4.13.90
 _ZN6Marble15GeoDataLocationC2ERKS0_@Base 4:4.13.90
 _ZN6Marble15GeoDataLocationC2Ev@Base 4:4.13.90
 _ZN6Marble15GeoDataLocationD0Ev@Base 4:4.13.90
 _ZN6Marble15GeoDataLocationD1Ev@Base 4:4.13.90
 _ZN6Marble15GeoDataLocationD2Ev@Base 4:4.13.90
 _ZN6Marble15GeoDataLocationaSERKS0_@Base 4:4.13.90
 _ZN6Marble15GeoDataPlaylist12addPrimitiveEPNS_20GeoDataTourPrimitiveE@Base 4:4.13.90
 _ZN6Marble15GeoDataPlaylist14swapPrimitivesEii@Base 4:4.13.90
 _ZN6Marble15GeoDataPlaylist15insertPrimitiveEiPNS_20GeoDataTourPrimitiveE@Base 4:4.13.90
 _ZN6Marble15GeoDataPlaylist17removePrimitiveAtEi@Base 4:4.13.90
 _ZN6Marble15GeoDataPlaylist9primitiveEi@Base 4:4.13.90
 _ZN6Marble15GeoDataPlaylistD0Ev@Base 4:4.13.90
 _ZN6Marble15GeoDataPlaylistD1Ev@Base 4:4.13.90
 _ZN6Marble15GeoDataPlaylistD2Ev@Base 4:4.13.90
 _ZN6Marble15GeoDataSoundCue15setDelayedStartEd@Base 4:4.13.90
 _ZN6Marble15GeoDataSoundCue7setHrefERK7QString@Base 4:4.13.90
 _ZN6Marble15GeoDataSoundCueC1Ev@Base 4:4.13.90
 _ZN6Marble15GeoDataSoundCueC2Ev@Base 4:4.13.90
 _ZN6Marble15GeoDataSoundCueD0Ev@Base 4:4.13.90
 _ZN6Marble15GeoDataSoundCueD1Ev@Base 4:4.13.90
 _ZN6Marble15GeoDataSoundCueD2Ev@Base 4:4.13.90
 _ZN6Marble15GeoDataStyleMap10setLastKeyE7QString@Base 4:4.13.90
 _ZN6Marble15GeoDataStyleMap6unpackER11QDataStream@Base 4:4.13.90
 _ZN6Marble15GeoDataStyleMapC1ERKS0_@Base 4:4.13.90
 _ZN6Marble15GeoDataStyleMapC1Ev@Base 4:4.13.90
 _ZN6Marble15GeoDataStyleMapC2ERKS0_@Base 4:4.13.90
 _ZN6Marble15GeoDataStyleMapC2Ev@Base 4:4.13.90
 _ZN6Marble15GeoDataStyleMapD0Ev@Base 4:4.13.90
 _ZN6Marble15GeoDataStyleMapD1Ev@Base 4:4.13.90
 _ZN6Marble15GeoDataStyleMapD2Ev@Base 4:4.13.90
 _ZN6Marble15GeoDataStyleMapaSERKS0_@Base 4:4.13.90
 _ZN6Marble15GeoDataTimeSpan3endEv@Base 4:4.13.90
 _ZN6Marble15GeoDataTimeSpan5beginEv@Base 4:4.13.90
 _ZN6Marble15GeoDataTimeSpan6setEndERKNS_16GeoDataTimeStampE@Base 4:4.13.90
 _ZN6Marble15GeoDataTimeSpan6unpackER11QDataStream@Base 4:4.13.90
 _ZN6Marble15GeoDataTimeSpan8setBeginERKNS_16GeoDataTimeStampE@Base 4:4.13.90
 _ZN6Marble15GeoDataTimeSpanC1ERKS0_@Base 4:4.13.90
 _ZN6Marble15GeoDataTimeSpanC1Ev@Base 4:4.13.90
 _ZN6Marble15GeoDataTimeSpanC2ERKS0_@Base 4:4.13.90
 _ZN6Marble15GeoDataTimeSpanC2Ev@Base 4:4.13.90
 _ZN6Marble15GeoDataTimeSpanD0Ev@Base 4:4.13.90
 _ZN6Marble15GeoDataTimeSpanD1Ev@Base 4:4.13.90
 _ZN6Marble15GeoDataTimeSpanD2Ev@Base 4:4.13.90
 _ZN6Marble15GeoDataTimeSpanaSERKS0_@Base 4:4.13.90
 _ZN6Marble15GeoGraphicsItem10setVisibleEb@Base 4:4.13.90
 _ZN6Marble15GeoGraphicsItem15setLatLonAltBoxERKNS_19GeoDataLatLonAltBoxE@Base 4:4.13.90
 _ZN6Marble15GeoGraphicsItem15setMinZoomLevelEi@Base 4:4.13.90
 _ZN6Marble15GeoGraphicsItem1pEv@Base 4:4.13.90
 _ZN6Marble15GeoGraphicsItem7setFlagENS0_19GeoGraphicsItemFlagEb@Base 4:4.13.90
 _ZN6Marble15GeoGraphicsItem8setFlagsE6QFlagsINS0_19GeoGraphicsItemFlagEE@Base 4:4.13.90
 _ZN6Marble15GeoGraphicsItem8setStyleEPKNS_12GeoDataStyleE@Base 4:4.13.90
 (subst)_ZN6Marble15GeoGraphicsItem9setZValueE{qreal}@Base 4:4.13.90
 _ZN6Marble15GeoGraphicsItemC1EPKNS_14GeoDataFeatureE@Base 4:4.13.90
 _ZN6Marble15GeoGraphicsItemC2EPKNS_14GeoDataFeatureE@Base 4:4.13.90
 _ZN6Marble15GeoGraphicsItemD0Ev@Base 4:4.13.90
 _ZN6Marble15GeoGraphicsItemD1Ev@Base 4:4.13.90
 _ZN6Marble15GeoGraphicsItemD2Ev@Base 4:4.13.90
 _ZN6Marble15GeoSceneGeodata11setColorizeE7QString@Base 4:4.13.90
 _ZN6Marble15GeoSceneGeodata11setPropertyE7QString@Base 4:4.13.90
 _ZN6Marble15GeoSceneGeodata13setSourceFileE7QString@Base 4:4.13.90
 _ZN6Marble15GeoSceneGeodata6setPenERK4QPen@Base 4:4.13.90
 (subst)_ZN6Marble15GeoSceneGeodata8setAlphaERK{qreal}@Base 4:4.13.90
 _ZN6Marble15GeoSceneGeodata8setBrushERK6QBrush@Base 4:4.13.90
 _ZN6Marble15GeoSceneGeodata9setColorsERK5QListI6QColorE@Base 4:4.13.90
 _ZN6Marble15GeoSceneGeodataC1E7QString@Base 4:4.13.90
 _ZN6Marble15GeoSceneGeodataC2E7QString@Base 4:4.13.90
 _ZN6Marble15GeoSceneGeodataD0Ev@Base 4:4.13.90
 _ZN6Marble15GeoSceneGeodataD1Ev@Base 4:4.13.90
 _ZN6Marble15GeoSceneGeodataD2Ev@Base 4:4.13.90
 _ZN6Marble15GeoSceneLicense10setLicenseERK7QString@Base 4:4.13.90
 _ZN6Marble15GeoSceneLicense14setAttributionENS0_11AttributionE@Base 4:4.13.90
 _ZN6Marble15GeoSceneLicense15setShortLicenseERK7QString@Base 4:4.13.90
 _ZN6Marble15GeoSceneLicenseC1Ev@Base 4:4.13.90
 _ZN6Marble15GeoSceneLicenseC2Ev@Base 4:4.13.90
 _ZN6Marble15GeoSceneLicenseD0Ev@Base 4:4.13.90
 _ZN6Marble15GeoSceneLicenseD1Ev@Base 4:4.13.90
 _ZN6Marble15GeoSceneLicenseD2Ev@Base 4:4.13.90
 _ZN6Marble15GeoSceneSection10setHeadingERK7QString@Base 4:4.13.90
 _ZN6Marble15GeoSceneSection10setSpacingEi@Base 4:4.13.90
 _ZN6Marble15GeoSceneSection12setCheckableEb@Base 4:4.13.90
 _ZN6Marble15GeoSceneSection12setConnectToERK7QString@Base 4:4.13.90
 _ZN6Marble15GeoSceneSection4itemERK7QString@Base 4:4.13.90
 _ZN6Marble15GeoSceneSection7addItemEPNS_12GeoSceneItemE@Base 4:4.13.90
 _ZN6Marble15GeoSceneSection8setRadioERK7QString@Base 4:4.13.90
 _ZN6Marble15GeoSceneSectionC1ERK7QString@Base 4:4.13.90
 _ZN6Marble15GeoSceneSectionC2ERK7QString@Base 4:4.13.90
 _ZN6Marble15GeoSceneSectionD0Ev@Base 4:4.13.90
 _ZN6Marble15GeoSceneSectionD1Ev@Base 4:4.13.90
 _ZN6Marble15GeoSceneSectionD2Ev@Base 4:4.13.90
 _ZN6Marble15LatLonBoxWidget11qt_metacallEN11QMetaObject4CallEiPPv@Base 4:4.13.90
 _ZN6Marble15LatLonBoxWidget11qt_metacastEPKc@Base 4:4.13.90
 _ZN6Marble15LatLonBoxWidget12setLatLonBoxERKNS_16GeoDataLatLonBoxE@Base 4:4.13.90
 _ZN6Marble15LatLonBoxWidget12valueChangedEv@Base 4:4.13.90
 _ZN6Marble15LatLonBoxWidget16staticMetaObjectE@Base 4:4.13.90
 _ZN6Marble15LatLonBoxWidget19updateLatSingleStepEv@Base 4:4.13.90
 _ZN6Marble15LatLonBoxWidget19updateLonSingleStepEv@Base 4:4.13.90
 _ZN6Marble15LatLonBoxWidget7PrivateC1EP7QWidget@Base 4:4.13.90
 _ZN6Marble15LatLonBoxWidget7PrivateC2EP7QWidget@Base 4:4.13.90
 _ZN6Marble15LatLonBoxWidgetC1EP7QWidget6QFlagsIN2Qt10WindowTypeEE@Base 4:4.13.90
 _ZN6Marble15LatLonBoxWidgetC2EP7QWidget6QFlagsIN2Qt10WindowTypeEE@Base 4:4.13.90
 _ZN6Marble15LatLonBoxWidgetD0Ev@Base 4:4.13.90
 _ZN6Marble15LatLonBoxWidgetD1Ev@Base 4:4.13.90
 _ZN6Marble15LatLonBoxWidgetD2Ev@Base 4:4.13.90
 _ZN6Marble15MapThemeManager11qt_metacallEN11QMetaObject4CallEiPPv@Base 4:4.13.90
 _ZN6Marble15MapThemeManager11qt_metacastEPKc@Base 4:4.13.90
 _ZN6Marble15MapThemeManager12loadMapThemeERK7QString@Base 4:4.13.90
 _ZN6Marble15MapThemeManager13mapThemeModelEv@Base 4:4.13.90
 _ZN6Marble15MapThemeManager13themesChangedEv@Base 4:4.13.90
 _ZN6Marble15MapThemeManager14deleteMapThemeERK7QString@Base 4:4.13.90
 _ZN6Marble15MapThemeManager16staticMetaObjectE@Base 4:4.13.90
 _ZN6Marble15MapThemeManager20celestialBodiesModelEv@Base 4:4.13.90
 _ZN6Marble15MapThemeManager7Private10watchPathsEv@Base 4:4.13.90
 _ZN6Marble15MapThemeManager7Private11fileChangedERK7QString@Base 4:4.13.90
 _ZN6Marble15MapThemeManager7Private12pathsToWatchEv@Base 4:4.13.90
 _ZN6Marble15MapThemeManager7Private13findMapThemesERK7QString@Base 4:4.13.90
 _ZN6Marble15MapThemeManager7Private13findMapThemesEv@Base 4:4.13.90
 _ZN6Marble15MapThemeManager7Private15deleteDirectoryERK7QString@Base 4:4.13.90
 _ZN6Marble15MapThemeManager7Private16addMapThemePathsERK7QStringR11QStringList@Base 4:4.13.90
 _ZN6Marble15MapThemeManager7Private16directoryChangedERK7QString@Base 4:4.13.90
 _ZN6Marble15MapThemeManager7Private16loadMapThemeFileERK7QString@Base 4:4.13.90
 _ZN6Marble15MapThemeManager7Private17createMapThemeRowERK7QString@Base 4:4.13.90
 _ZN6Marble15MapThemeManager7Private19updateMapThemeModelEv@Base 4:4.13.90
 _ZN6Marble15MapThemeManager7PrivateC1EPS0_@Base 4:4.13.90
 _ZN6Marble15MapThemeManager7PrivateC2EPS0_@Base 4:4.13.90
 _ZN6Marble15MapThemeManager7PrivateD1Ev@Base 4:4.13.90
 _ZN6Marble15MapThemeManager7PrivateD2Ev@Base 4:4.13.90
 _ZN6Marble15MapThemeManagerC1EP7QObject@Base 4:4.13.90
 _ZN6Marble15MapThemeManagerC2EP7QObject@Base 4:4.13.90
 _ZN6Marble15MapThemeManagerD0Ev@Base 4:4.13.90
 _ZN6Marble15MapThemeManagerD1Ev@Base 4:4.13.90
 _ZN6Marble15MapThemeManagerD2Ev@Base 4:4.13.90
 _ZN6Marble15MarbleNavigator10changeZoomEi@Base 4:4.13.90
 _ZN6Marble15MarbleNavigator11qt_metacallEN11QMetaObject4CallEiPPv@Base 4:4.13.90
 _ZN6Marble15MarbleNavigator11qt_metacastEPKc@Base 4:4.13.90
 _ZN6Marble15MarbleNavigator11resizeEventEP12QResizeEvent@Base 4:4.13.90
 _ZN6Marble15MarbleNavigator11zoomChangedEi@Base 4:4.13.90
 _ZN6Marble15MarbleNavigator16staticMetaObjectE@Base 4:4.13.90
 _ZN6Marble15MarbleNavigator6goHomeEv@Base 4:4.13.90
 _ZN6Marble15MarbleNavigator6moveUpEv@Base 4:4.13.90
 _ZN6Marble15MarbleNavigator6zoomInEv@Base 4:4.13.90
 _ZN6Marble15MarbleNavigator7zoomOutEv@Base 4:4.13.90
 _ZN6Marble15MarbleNavigator8moveDownEv@Base 4:4.13.90
 _ZN6Marble15MarbleNavigator8moveLeftEv@Base 4:4.13.90
 _ZN6Marble15MarbleNavigator9moveRightEv@Base 4:4.13.90
 _ZN6Marble15MarbleNavigatorC1EP7QWidget@Base 4:4.13.90
 _ZN6Marble15MarbleNavigatorC2EP7QWidget@Base 4:4.13.90
 _ZN6Marble15MarbleNavigatorD0Ev@Base 4:4.13.90
 _ZN6Marble15MarbleNavigatorD1Ev@Base 4:4.13.90
 _ZN6Marble15MarbleNavigatorD2Ev@Base 4:4.13.90
 _ZN6Marble15PluginInterfaceD0Ev@Base 4:4.13.90
 _ZN6Marble15PluginInterfaceD1Ev@Base 4:4.13.90
 _ZN6Marble15PluginInterfaceD2Ev@Base 4:4.13.90
 _ZN6Marble15RoutingWaypointC1ERKNS_12RoutingPointENS0_12JunctionTypeERK7QStringS7_iS7_@Base 4:4.13.90
 _ZN6Marble15RoutingWaypointC1Ev@Base 4:4.13.90
 _ZN6Marble15RoutingWaypointC2ERKNS_12RoutingPointENS0_12JunctionTypeERK7QStringS7_iS7_@Base 4:4.13.90
 _ZN6Marble15RoutingWaypointC2Ev@Base 4:4.13.90
 _ZN6Marble16CloudSyncManager11qt_metacallEN11QMetaObject4CallEiPPv@Base 4:4.13.90
 _ZN6Marble16CloudSyncManager11qt_metacastEPKc@Base 4:4.13.90
 _ZN6Marble16CloudSyncManager13apiUrlChangedERK4QUrl@Base 4:4.13.90
 _ZN6Marble16CloudSyncManager13statusChangedERK7QString@Base 4:4.13.90
 _ZN6Marble16CloudSyncManager14setSyncEnabledEb@Base 4:4.13.90
 _ZN6Marble16CloudSyncManager14setWorkOfflineEb@Base 4:4.13.90
 _ZN6Marble16CloudSyncManager16routeSyncManagerEv@Base 4:4.13.90
 _ZN6Marble16CloudSyncManager16staticMetaObjectE@Base 4:4.13.90
 _ZN6Marble16CloudSyncManager17setOwncloudServerERK7QString@Base 4:4.13.90
 _ZN6Marble16CloudSyncManager18syncEnabledChangedEb@Base 4:4.13.90
 _ZN6Marble16CloudSyncManager18workOfflineChangedEb@Base 4:4.13.90
 _ZN6Marble16CloudSyncManager19bookmarkSyncManagerEv@Base 4:4.13.90
 _ZN6Marble16CloudSyncManager19setOwncloudPasswordERK7QString@Base 4:4.13.90
 _ZN6Marble16CloudSyncManager19setOwncloudUsernameERK7QString@Base 4:4.13.90
 _ZN6Marble16CloudSyncManager21owncloudServerChangedERK7QString@Base 4:4.13.90
 _ZN6Marble16CloudSyncManager22setOwncloudCredentialsERK7QStringS3_S3_@Base 4:4.13.90
 _ZN6Marble16CloudSyncManager23owncloudPasswordChangedERK7QString@Base 4:4.13.90
 _ZN6Marble16CloudSyncManager23owncloudUsernameChangedERK7QString@Base 4:4.13.90
 _ZN6Marble16CloudSyncManager23routeSyncManagerChangedEv@Base 4:4.13.90
 _ZN6Marble16CloudSyncManager26bookmarkSyncManagerChangedEv@Base 4:4.13.90
 _ZN6Marble16CloudSyncManager7PrivateC1Ev@Base 4:4.13.90
 _ZN6Marble16CloudSyncManager7PrivateC2Ev@Base 4:4.13.90
 _ZN6Marble16CloudSyncManager7PrivateD1Ev@Base 4:4.13.90
 _ZN6Marble16CloudSyncManager7PrivateD2Ev@Base 4:4.13.90
 _ZN6Marble16CloudSyncManager9setStatusERK7QStringNS0_6StatusE@Base 4:4.13.90
 _ZN6Marble16CloudSyncManagerC1EP7QObject@Base 4:4.13.90
 _ZN6Marble16CloudSyncManagerC2EP7QObject@Base 4:4.13.90
 _ZN6Marble16CloudSyncManagerD0Ev@Base 4:4.13.90
 _ZN6Marble16CloudSyncManagerD1Ev@Base 4:4.13.90
 _ZN6Marble16CloudSyncManagerD2Ev@Base 4:4.13.90
 _ZN6Marble16GeoDataContainer1pEv@Base 4:4.13.90
 _ZN6Marble16GeoDataContainer2atEi@Base 4:4.13.90
 _ZN6Marble16GeoDataContainer3endEv@Base 4:4.13.90
 _ZN6Marble16GeoDataContainer4lastEv@Base 4:4.13.90
 _ZN6Marble16GeoDataContainer5beginEv@Base 4:4.13.90
 _ZN6Marble16GeoDataContainer5childEi@Base 4:4.13.90
 _ZN6Marble16GeoDataContainer5clearEv@Base 4:4.13.90
 _ZN6Marble16GeoDataContainer5firstEv@Base 4:4.13.90
 _ZN6Marble16GeoDataContainer6appendEPNS_14GeoDataFeatureE@Base 4:4.13.90
 _ZN6Marble16GeoDataContainer6insertEPNS_14GeoDataFeatureEi@Base 4:4.13.90
 _ZN6Marble16GeoDataContainer6removeEi@Base 4:4.13.90
 _ZN6Marble16GeoDataContainer6unpackER11QDataStream@Base 4:4.13.90
 _ZN6Marble16GeoDataContainerC1EPNS_23GeoDataContainerPrivateE@Base 4:4.13.90
 _ZN6Marble16GeoDataContainerC1ERKS0_@Base 4:4.13.90
 _ZN6Marble16GeoDataContainerC1Ev@Base 4:4.13.90
 _ZN6Marble16GeoDataContainerC2EPNS_23GeoDataContainerPrivateE@Base 4:4.13.90
 _ZN6Marble16GeoDataContainerC2ERKS0_@Base 4:4.13.90
 _ZN6Marble16GeoDataContainerC2Ev@Base 4:4.13.90
 _ZN6Marble16GeoDataContainerD0Ev@Base 4:4.13.90
 _ZN6Marble16GeoDataContainerD1Ev@Base 4:4.13.90
 _ZN6Marble16GeoDataContainerD2Ev@Base 4:4.13.90
 _ZN6Marble16GeoDataIconStyle10setHeadingEi@Base 4:4.13.90
 _ZN6Marble16GeoDataIconStyle10setHotSpotERK7QPointFNS_14GeoDataHotSpot5UnitsES5_@Base 4:4.13.90
 _ZN6Marble16GeoDataIconStyle11setIconPathERK7QString@Base 4:4.13.90
 _ZN6Marble16GeoDataIconStyle6unpackER11QDataStream@Base 4:4.13.90
 _ZN6Marble16GeoDataIconStyle7setIconERK6QImage@Base 4:4.13.90
 _ZN6Marble16GeoDataIconStyle8setScaleERKf@Base 4:4.13.90
 _ZN6Marble16GeoDataIconStyleC1ERK6QImageRK7QPointF@Base 4:4.13.90
 _ZN6Marble16GeoDataIconStyleC1ERKS0_@Base 4:4.13.90
 _ZN6Marble16GeoDataIconStyleC1Ev@Base 4:4.13.90
 _ZN6Marble16GeoDataIconStyleC2ERK6QImageRK7QPointF@Base 4:4.13.90
 _ZN6Marble16GeoDataIconStyleC2ERKS0_@Base 4:4.13.90
 _ZN6Marble16GeoDataIconStyleC2Ev@Base 4:4.13.90
 _ZN6Marble16GeoDataIconStyleD0Ev@Base 4:4.13.90
 _ZN6Marble16GeoDataIconStyleD1Ev@Base 4:4.13.90
 _ZN6Marble16GeoDataIconStyleD2Ev@Base 4:4.13.90
 _ZN6Marble16GeoDataIconStyleaSERKS0_@Base 4:4.13.90
 (subst)_ZN6Marble16GeoDataLatLonBox11setRotationE{qreal}NS_18GeoDataCoordinates4UnitE@Base 4:4.13.90
 (subst)_ZN6Marble16GeoDataLatLonBox13setBoundariesE{qreal}{qreal}{qreal}{qreal}NS_18GeoDataCoordinates4UnitE@Base 4:4.13.90
 _ZN6Marble16GeoDataLatLonBox14fromLineStringERKNS_17GeoDataLineStringE@Base 4:4.13.90
 _ZN6Marble16GeoDataLatLonBox5clearEv@Base 4:4.13.90
 _ZN6Marble16GeoDataLatLonBox5emptyE@Base 4:4.13.90
 _ZN6Marble16GeoDataLatLonBox6unpackER11QDataStream@Base 4:4.13.90
 (subst)_ZN6Marble16GeoDataLatLonBox7setEastE{qreal}NS_18GeoDataCoordinates4UnitE@Base 4:4.13.90
 (subst)_ZN6Marble16GeoDataLatLonBox7setWestE{qreal}NS_18GeoDataCoordinates4UnitE@Base 4:4.13.90
 (subst)_ZN6Marble16GeoDataLatLonBox8setNorthE{qreal}NS_18GeoDataCoordinates4UnitE@Base 4:4.13.90
 (subst)_ZN6Marble16GeoDataLatLonBox8setSouthE{qreal}NS_18GeoDataCoordinates4UnitE@Base 4:4.13.90
 _ZN6Marble16GeoDataLatLonBoxC1ERKS0_@Base 4:4.13.90
 _ZN6Marble16GeoDataLatLonBoxC1Ev@Base 4:4.13.90
 (subst)_ZN6Marble16GeoDataLatLonBoxC1E{qreal}{qreal}{qreal}{qreal}NS_18GeoDataCoordinates4UnitE@Base 4:4.13.90
 _ZN6Marble16GeoDataLatLonBoxC2ERKS0_@Base 4:4.13.90
 _ZN6Marble16GeoDataLatLonBoxC2Ev@Base 4:4.13.90
 (subst)_ZN6Marble16GeoDataLatLonBoxC2E{qreal}{qreal}{qreal}{qreal}NS_18GeoDataCoordinates4UnitE@Base 4:4.13.90
 _ZN6Marble16GeoDataLatLonBoxD0Ev@Base 4:4.13.90
 _ZN6Marble16GeoDataLatLonBoxD1Ev@Base 4:4.13.90
 _ZN6Marble16GeoDataLatLonBoxD2Ev@Base 4:4.13.90
 _ZN6Marble16GeoDataLatLonBoxaSERKS0_@Base 4:4.13.90
 _ZN6Marble16GeoDataLatLonBoxoRERKS0_@Base 4:4.13.90
 _ZN6Marble16GeoDataLineStyle11setCapStyleEN2Qt11PenCapStyleE@Base 4:4.13.90
 _ZN6Marble16GeoDataLineStyle11setPenStyleEN2Qt8PenStyleE@Base 4:4.13.90
 _ZN6Marble16GeoDataLineStyle13setBackgroundEb@Base 4:4.13.90
 (subst)_ZN6Marble16GeoDataLineStyle14setDashPatternERK7QVectorI{qreal}E@Base 4:4.13.90
 _ZN6Marble16GeoDataLineStyle16setPhysicalWidthERKf@Base 4:4.13.90
 _ZN6Marble16GeoDataLineStyle6unpackER11QDataStream@Base 4:4.13.90
 _ZN6Marble16GeoDataLineStyle8setWidthERKf@Base 4:4.13.90
 _ZN6Marble16GeoDataLineStyleC1ERK6QColor@Base 4:4.13.90
 _ZN6Marble16GeoDataLineStyleC1ERKS0_@Base 4:4.13.90
 _ZN6Marble16GeoDataLineStyleC1Ev@Base 4:4.13.90
 _ZN6Marble16GeoDataLineStyleC2ERK6QColor@Base 4:4.13.90
 _ZN6Marble16GeoDataLineStyleC2ERKS0_@Base 4:4.13.90
 _ZN6Marble16GeoDataLineStyleC2Ev@Base 4:4.13.90
 _ZN6Marble16GeoDataLineStyleD0Ev@Base 4:4.13.90
 _ZN6Marble16GeoDataLineStyleD1Ev@Base 4:4.13.90
 _ZN6Marble16GeoDataLineStyleD2Ev@Base 4:4.13.90
 _ZN6Marble16GeoDataLineStyleaSERKS0_@Base 4:4.13.90
 _ZN6Marble16GeoDataListStyle15setListItemTypeERKNS0_12ListItemTypeE@Base 4:4.13.90
 _ZN6Marble16GeoDataListStyle18setBackgroundColorERK6QColor@Base 4:4.13.90
 _ZN6Marble16GeoDataListStyle2atEi@Base 4:4.13.90
 _ZN6Marble16GeoDataListStyle3endEv@Base 4:4.13.90
 _ZN6Marble16GeoDataListStyle4lastEv@Base 4:4.13.90
 _ZN6Marble16GeoDataListStyle5beginEv@Base 4:4.13.90
 _ZN6Marble16GeoDataListStyle5childEi@Base 4:4.13.90
 _ZN6Marble16GeoDataListStyle5clearEv@Base 4:4.13.90
 _ZN6Marble16GeoDataListStyle5firstEv@Base 4:4.13.90
 _ZN6Marble16GeoDataListStyle6appendEPNS_15GeoDataItemIconE@Base 4:4.13.90
 _ZN6Marble16GeoDataListStyle6removeEi@Base 4:4.13.90
 _ZN6Marble16GeoDataListStyle6unpackER11QDataStream@Base 4:4.13.90
 _ZN6Marble16GeoDataListStyleC1ERKS0_@Base 4:4.13.90
 _ZN6Marble16GeoDataListStyleC1Ev@Base 4:4.13.90
 _ZN6Marble16GeoDataListStyleC2ERKS0_@Base 4:4.13.90
 _ZN6Marble16GeoDataListStyleC2Ev@Base 4:4.13.90
 _ZN6Marble16GeoDataListStyleD0Ev@Base 4:4.13.90
 _ZN6Marble16GeoDataListStyleD1Ev@Base 4:4.13.90
 _ZN6Marble16GeoDataListStyleD2Ev@Base 4:4.13.90
 _ZN6Marble16GeoDataListStyleaSERKS0_@Base 4:4.13.90
 _ZN6Marble16GeoDataPlacemark11setGeometryEPNS_15GeoDataGeometryE@Base 4:4.13.90
 _ZN6Marble16GeoDataPlacemark13setCoordinateERKNS_12GeoDataPointE@Base 4:4.13.90
 _ZN6Marble16GeoDataPlacemark13setCoordinateERKNS_18GeoDataCoordinatesE@Base 4:4.13.90
 (subst)_ZN6Marble16GeoDataPlacemark13setCoordinateE{qreal}{qreal}{qreal}NS_18GeoDataCoordinates4UnitE@Base 4:4.13.90
 _ZN6Marble16GeoDataPlacemark13setPopulationEx@Base 4:4.13.90
 _ZN6Marble16GeoDataPlacemark14setCountryCodeERK7QString@Base 4:4.13.90
 _ZN6Marble16GeoDataPlacemark17setBalloonVisibleEb@Base 4:4.13.90
 _ZN6Marble16GeoDataPlacemark1pEv@Base 4:4.13.90
 _ZN6Marble16GeoDataPlacemark6lookAtEv@Base 4:4.13.90
 _ZN6Marble16GeoDataPlacemark6unpackER11QDataStream@Base 4:4.13.90
 (subst)_ZN6Marble16GeoDataPlacemark7setAreaE{qreal}@Base 4:4.13.90
 _ZN6Marble16GeoDataPlacemark8geometryEv@Base 4:4.13.90
 _ZN6Marble16GeoDataPlacemark8setStateERK7QString@Base 4:4.13.90
 _ZN6Marble16GeoDataPlacemarkC1ERK7QString@Base 4:4.13.90
 _ZN6Marble16GeoDataPlacemarkC1ERKS0_@Base 4:4.13.90
 _ZN6Marble16GeoDataPlacemarkC1Ev@Base 4:4.13.90
 _ZN6Marble16GeoDataPlacemarkC2ERK7QString@Base 4:4.13.90
 _ZN6Marble16GeoDataPlacemarkC2ERKS0_@Base 4:4.13.90
 _ZN6Marble16GeoDataPlacemarkC2Ev@Base 4:4.13.90
 _ZN6Marble16GeoDataPlacemarkD0Ev@Base 4:4.13.90
 _ZN6Marble16GeoDataPlacemarkD1Ev@Base 4:4.13.90
 _ZN6Marble16GeoDataPlacemarkD2Ev@Base 4:4.13.90
 _ZN6Marble16GeoDataPolyStyle10setOutlineERKb@Base 4:4.13.90
 _ZN6Marble16GeoDataPolyStyle13setBrushStyleEN2Qt10BrushStyleE@Base 4:4.13.90
 _ZN6Marble16GeoDataPolyStyle13setColorIndexEh@Base 4:4.13.90
 _ZN6Marble16GeoDataPolyStyle6unpackER11QDataStream@Base 4:4.13.90
 _ZN6Marble16GeoDataPolyStyle7setFillERKb@Base 4:4.13.90
 _ZN6Marble16GeoDataPolyStyleC1ERK6QColor@Base 4:4.13.90
 _ZN6Marble16GeoDataPolyStyleC1ERKS0_@Base 4:4.13.90
 _ZN6Marble16GeoDataPolyStyleC1Ev@Base 4:4.13.90
 _ZN6Marble16GeoDataPolyStyleC2ERK6QColor@Base 4:4.13.90
 _ZN6Marble16GeoDataPolyStyleC2ERKS0_@Base 4:4.13.90
 _ZN6Marble16GeoDataPolyStyleC2Ev@Base 4:4.13.90
 _ZN6Marble16GeoDataPolyStyleD0Ev@Base 4:4.13.90
 _ZN6Marble16GeoDataPolyStyleD1Ev@Base 4:4.13.90
 _ZN6Marble16GeoDataPolyStyleD2Ev@Base 4:4.13.90
 _ZN6Marble16GeoDataPolyStyleaSERKS0_@Base 4:4.13.90
 _ZN6Marble16GeoDataTimeStamp13setResolutionENS0_14TimeResolutionE@Base 4:4.13.90
 _ZN6Marble16GeoDataTimeStamp6unpackER11QDataStream@Base 4:4.13.90
 _ZN6Marble16GeoDataTimeStamp7setWhenERK9QDateTime@Base 4:4.13.90
 _ZN6Marble16GeoDataTimeStampC1ERKS0_@Base 4:4.13.90
 _ZN6Marble16GeoDataTimeStampC1Ev@Base 4:4.13.90
 _ZN6Marble16GeoDataTimeStampC2ERKS0_@Base 4:4.13.90
 _ZN6Marble16GeoDataTimeStampC2Ev@Base 4:4.13.90
 _ZN6Marble16GeoDataTimeStampD0Ev@Base 4:4.13.90
 _ZN6Marble16GeoDataTimeStampD1Ev@Base 4:4.13.90
 _ZN6Marble16GeoDataTimeStampD2Ev@Base 4:4.13.90
 _ZN6Marble16GeoDataTimeStampaSERKS0_@Base 4:4.13.90
 _ZN6Marble16GeoDataTreeModel10addFeatureEPNS_16GeoDataContainerEPNS_14GeoDataFeatureEi@Base 4:4.13.90
 _ZN6Marble16GeoDataTreeModel11addDocumentEPNS_15GeoDataDocumentE@Base 4:4.13.90
 _ZN6Marble16GeoDataTreeModel11qt_metacallEN11QMetaObject4CallEiPPv@Base 4:4.13.90
 _ZN6Marble16GeoDataTreeModel11qt_metacastEPKc@Base 4:4.13.90
 _ZN6Marble16GeoDataTreeModel12rootDocumentEv@Base 4:4.13.90
 _ZN6Marble16GeoDataTreeModel13removeFeatureEPKNS_14GeoDataFeatureE@Base 4:4.13.90
 _ZN6Marble16GeoDataTreeModel13removeFeatureEPNS_16GeoDataContainerEi@Base 4:4.13.90
 _ZN6Marble16GeoDataTreeModel13updateFeatureEPNS_14GeoDataFeatureE@Base 4:4.13.90
 _ZN6Marble16GeoDataTreeModel14removeDocumentEPNS_15GeoDataDocumentE@Base 4:4.13.90
 _ZN6Marble16GeoDataTreeModel14removeDocumentEi@Base 4:4.13.90
 _ZN6Marble16GeoDataTreeModel14selectionModelEv@Base 4:4.13.90
 _ZN6Marble16GeoDataTreeModel15setRootDocumentEPNS_15GeoDataDocumentE@Base 4:4.13.90
 _ZN6Marble16GeoDataTreeModel16staticMetaObjectE@Base 4:4.13.90
 _ZN6Marble16GeoDataTreeModel5addedEPNS_13GeoDataObjectE@Base 4:4.13.90
 _ZN6Marble16GeoDataTreeModel5indexEPNS_13GeoDataObjectE@Base 4:4.13.90
 _ZN6Marble16GeoDataTreeModel5resetEv@Base 4:4.13.90
 _ZN6Marble16GeoDataTreeModel6updateEv@Base 4:4.13.90
 _ZN6Marble16GeoDataTreeModel7Private14checkParentingEPNS_13GeoDataObjectE@Base 4:4.13.90
 _ZN6Marble16GeoDataTreeModel7PrivateC1EP18QAbstractItemModel@Base 4:4.13.90
 _ZN6Marble16GeoDataTreeModel7PrivateC2EP18QAbstractItemModel@Base 4:4.13.90
 _ZN6Marble16GeoDataTreeModel7PrivateD1Ev@Base 4:4.13.90
 _ZN6Marble16GeoDataTreeModel7PrivateD2Ev@Base 4:4.13.90
 _ZN6Marble16GeoDataTreeModel7removedEPNS_13GeoDataObjectE@Base 4:4.13.90
 _ZN6Marble16GeoDataTreeModel7setDataERK11QModelIndexRK8QVarianti@Base 4:4.13.90
 _ZN6Marble16GeoDataTreeModelC1EP7QObject@Base 4:4.13.90
 _ZN6Marble16GeoDataTreeModelC2EP7QObject@Base 4:4.13.90
 _ZN6Marble16GeoDataTreeModelD0Ev@Base 4:4.13.90
 _ZN6Marble16GeoDataTreeModelD1Ev@Base 4:4.13.90
 _ZN6Marble16GeoDataTreeModelD2Ev@Base 4:4.13.90
 _ZN6Marble16GeoGraphicsScene10removeItemEPKNS_14GeoDataFeatureE@Base 4:4.13.90
 _ZN6Marble16GeoGraphicsScene11qt_metacallEN11QMetaObject4CallEiPPv@Base 4:4.13.90
 _ZN6Marble16GeoGraphicsScene11qt_metacastEPKc@Base 4:4.13.90
 _ZN6Marble16GeoGraphicsScene16staticMetaObjectE@Base 4:4.13.90
 _ZN6Marble16GeoGraphicsScene5clearEv@Base 4:4.13.90
 _ZN6Marble16GeoGraphicsScene7addItemEPNS_15GeoGraphicsItemE@Base 4:4.13.90
 _ZN6Marble16GeoGraphicsScene8eraseAllEv@Base 4:4.13.90
 _ZN6Marble16GeoGraphicsSceneC1EP7QObject@Base 4:4.13.90
 _ZN6Marble16GeoGraphicsSceneC2EP7QObject@Base 4:4.13.90
 _ZN6Marble16GeoGraphicsSceneD0Ev@Base 4:4.13.90
 _ZN6Marble16GeoGraphicsSceneD1Ev@Base 4:4.13.90
 _ZN6Marble16GeoGraphicsSceneD2Ev@Base 4:4.13.90
 _ZN6Marble16GeoSceneDocument11qt_metacallEN11QMetaObject4CallEiPPv@Base 4:4.13.90
 _ZN6Marble16GeoSceneDocument11qt_metacastEPKc@Base 4:4.13.90
 _ZN6Marble16GeoSceneDocument12valueChangedE7QStringb@Base 4:4.13.90
 _ZN6Marble16GeoSceneDocument16staticMetaObjectE@Base 4:4.13.90
 _ZN6Marble16GeoSceneDocument3mapEv@Base 4:4.13.90
 _ZN6Marble16GeoSceneDocument4headEv@Base 4:4.13.90
 _ZN6Marble16GeoSceneDocument6legendEv@Base 4:4.13.90
 _ZN6Marble16GeoSceneDocument8settingsEv@Base 4:4.13.90
 _ZN6Marble16GeoSceneDocumentC1Ev@Base 4:4.13.90
 _ZN6Marble16GeoSceneDocumentC2Ev@Base 4:4.13.90
 _ZN6Marble16GeoSceneDocumentD0Ev@Base 4:4.13.90
 _ZN6Marble16GeoSceneDocumentD1Ev@Base 4:4.13.90
 _ZN6Marble16GeoSceneDocumentD2Ev@Base 4:4.13.90
 _ZN6Marble16GeoSceneProperty11qt_metacallEN11QMetaObject4CallEiPPv@Base 4:4.13.90
 _ZN6Marble16GeoSceneProperty11qt_metacastEPKc@Base 4:4.13.90
 _ZN6Marble16GeoSceneProperty12setAvailableEb@Base 4:4.13.90
 _ZN6Marble16GeoSceneProperty12valueChangedE7QStringb@Base 4:4.13.90
 _ZN6Marble16GeoSceneProperty15setDefaultValueEb@Base 4:4.13.90
 _ZN6Marble16GeoSceneProperty16staticMetaObjectE@Base 4:4.13.90
 _ZN6Marble16GeoSceneProperty8setValueEb@Base 4:4.13.90
 _ZN6Marble16GeoScenePropertyC1ERK7QString@Base 4:4.13.90
 _ZN6Marble16GeoScenePropertyC2ERK7QString@Base 4:4.13.90
 _ZN6Marble16GeoScenePropertyD0Ev@Base 4:4.13.90
 _ZN6Marble16GeoScenePropertyD1Ev@Base 4:4.13.90
 _ZN6Marble16GeoScenePropertyD2Ev@Base 4:4.13.90
 _ZN6Marble16GeoSceneSettings11addPropertyEPNS_16GeoScenePropertyE@Base 4:4.13.90
 _ZN6Marble16GeoSceneSettings11qt_metacallEN11QMetaObject4CallEiPPv@Base 4:4.13.90
 _ZN6Marble16GeoSceneSettings11qt_metacastEPKc@Base 4:4.13.90
 _ZN6Marble16GeoSceneSettings12valueChangedE7QStringb@Base 4:4.13.90
 _ZN6Marble16GeoSceneSettings13allPropertiesEv@Base 4:4.13.90
 _ZN6Marble16GeoSceneSettings14rootPropertiesEv@Base 4:4.13.90
 _ZN6Marble16GeoSceneSettings16setPropertyValueERK7QStringb@Base 4:4.13.90
 _ZN6Marble16GeoSceneSettings16staticMetaObjectE@Base 4:4.13.90
 _ZN6Marble16GeoSceneSettings5groupERK7QString@Base 4:4.13.90
 _ZN6Marble16GeoSceneSettings8addGroupEPNS_13GeoSceneGroupE@Base 4:4.13.90
 _ZN6Marble16GeoSceneSettings8propertyERK7QString@Base 4:4.13.90
 _ZN6Marble16GeoSceneSettingsC1Ev@Base 4:4.13.90
 _ZN6Marble16GeoSceneSettingsC2Ev@Base 4:4.13.90
 _ZN6Marble16GeoSceneSettingsD0Ev@Base 4:4.13.90
 _ZN6Marble16GeoSceneSettingsD1Ev@Base 4:4.13.90
 _ZN6Marble16GeoSceneSettingsD2Ev@Base 4:4.13.90
 _ZN6Marble16MarbleControlBox11qt_metacallEN11QMetaObject4CallEiPPv@Base 4:4.13.90
 _ZN6Marble16MarbleControlBox11qt_metacastEPKc@Base 4:4.13.90
 _ZN6Marble16MarbleControlBox11selectThemeERK7QString@Base 4:4.13.90
 _ZN6Marble16MarbleControlBox13showMapWizardEv@Base 4:4.13.90
 _ZN6Marble16MarbleControlBox14searchFinishedEv@Base 4:4.13.90
 _ZN6Marble16MarbleControlBox14setWorkOfflineEb@Base 4:4.13.90
 _ZN6Marble16MarbleControlBox15setMarbleWidgetEPNS_12MarbleWidgetE@Base 4:4.13.90
 _ZN6Marble16MarbleControlBox16showUploadDialogEv@Base 4:4.13.90
 _ZN6Marble16MarbleControlBox16staticMetaObjectE@Base 4:4.13.90
 _ZN6Marble16MarbleControlBox17setLegendTabShownEb@Base 4:4.13.90
 _ZN6Marble16MarbleControlBox17setWidgetTabShownEP7QWidgetibR7QString@Base 4:4.13.90
 _ZN6Marble16MarbleControlBox18setMapViewTabShownEb@Base 4:4.13.90
 _ZN6Marble16MarbleControlBox18setRoutingTabShownEb@Base 4:4.13.90
 _ZN6Marble16MarbleControlBox19setFileViewTabShownEb@Base 4:4.13.90
 _ZN6Marble16MarbleControlBox21currentLocationWidgetEv@Base 4:4.13.90
 _ZN6Marble16MarbleControlBox21setNavigationTabShownEb@Base 4:4.13.90
 _ZN6Marble16MarbleControlBox26setCurrentLocationTabShownEb@Base 4:4.13.90
 _ZN6Marble16MarbleControlBox6searchERK7QStringNS_10SearchModeE@Base 4:4.13.90
 _ZN6Marble16MarbleControlBoxC1EP7QWidget@Base 4:4.13.90
 _ZN6Marble16MarbleControlBoxC2EP7QWidget@Base 4:4.13.90
 _ZN6Marble16MarbleControlBoxD0Ev@Base 4:4.13.90
 _ZN6Marble16MarbleControlBoxD1Ev@Base 4:4.13.90
 _ZN6Marble16MarbleControlBoxD2Ev@Base 4:4.13.90
 _ZN6Marble16NavigationWidget10changeZoomEi@Base 4:4.13.90
 _ZN6Marble16NavigationWidget11clearSearchEv@Base 4:4.13.90
 _ZN6Marble16NavigationWidget11qt_metacallEN11QMetaObject4CallEiPPv@Base 4:4.13.90
 _ZN6Marble16NavigationWidget11qt_metacastEPKc@Base 4:4.13.90
 _ZN6Marble16NavigationWidget11resizeEventEP12QResizeEvent@Base 4:4.13.90
 _ZN6Marble16NavigationWidget11selectThemeERK7QString@Base 4:4.13.90
 _ZN6Marble16NavigationWidget11zoomChangedEi@Base 4:4.13.90
 _ZN6Marble16NavigationWidget14searchFinishedEv@Base 4:4.13.90
 _ZN6Marble16NavigationWidget15setMarbleWidgetEPNS_12MarbleWidgetE@Base 4:4.13.90
 _ZN6Marble16NavigationWidget16staticMetaObjectE@Base 4:4.13.90
 _ZN6Marble16NavigationWidget6goHomeEv@Base 4:4.13.90
 _ZN6Marble16NavigationWidget6moveUpEv@Base 4:4.13.90
 _ZN6Marble16NavigationWidget6searchERK7QStringNS_10SearchModeE@Base 4:4.13.90
 _ZN6Marble16NavigationWidget6zoomInEv@Base 4:4.13.90
 _ZN6Marble16NavigationWidget7zoomOutEv@Base 4:4.13.90
 _ZN6Marble16NavigationWidget8moveDownEv@Base 4:4.13.90
 _ZN6Marble16NavigationWidget8moveLeftEv@Base 4:4.13.90
 _ZN6Marble16NavigationWidget9moveRightEv@Base 4:4.13.90
 _ZN6Marble16NavigationWidgetC1EP7QWidget6QFlagsIN2Qt10WindowTypeEE@Base 4:4.13.90
 _ZN6Marble16NavigationWidgetC2EP7QWidget6QFlagsIN2Qt10WindowTypeEE@Base 4:4.13.90
 _ZN6Marble16NavigationWidgetD0Ev@Base 4:4.13.90
 _ZN6Marble16NavigationWidgetD1Ev@Base 4:4.13.90
 _ZN6Marble16NavigationWidgetD2Ev@Base 4:4.13.90
 _ZN6Marble16PositionTracking10clearTrackEv@Base 4:4.13.90
 (subst)_ZN6Marble16PositionTracking11gpsLocationENS_18GeoDataCoordinatesE{qreal}@Base 4:4.13.90
 _ZN6Marble16PositionTracking11qt_metacallEN11QMetaObject4CallEiPPv@Base 4:4.13.90
 _ZN6Marble16PositionTracking11qt_metacastEPKc@Base 4:4.13.90
 _ZN6Marble16PositionTracking12readSettingsEv@Base 4:4.13.90
 _ZN6Marble16PositionTracking13statusChangedENS_22PositionProviderStatusE@Base 4:4.13.90
 _ZN6Marble16PositionTracking13writeSettingsEv@Base 4:4.13.90
 _ZN6Marble16PositionTracking15setTrackVisibleEb@Base 4:4.13.90
 _ZN6Marble16PositionTracking16staticMetaObjectE@Base 4:4.13.90
 _ZN6Marble16PositionTracking22positionProviderPluginEv@Base 4:4.13.90
 _ZN6Marble16PositionTracking25setPositionProviderPluginEPNS_22PositionProviderPluginE@Base 4:4.13.90
 _ZN6Marble16PositionTracking29positionProviderPluginChangedEPNS_22PositionProviderPluginE@Base 4:4.13.90
 _ZN6Marble16PositionTracking9saveTrackERK7QString@Base 4:4.13.90
 _ZN6Marble16PositionTrackingC1EPNS_16GeoDataTreeModelE@Base 4:4.13.90
 _ZN6Marble16PositionTrackingC2EPNS_16GeoDataTreeModelE@Base 4:4.13.90
 _ZN6Marble16PositionTrackingD0Ev@Base 4:4.13.90
 _ZN6Marble16PositionTrackingD1Ev@Base 4:4.13.90
 _ZN6Marble16PositionTrackingD2Ev@Base 4:4.13.90
 _ZN6Marble16RouteSyncManager11deleteRouteERK7QString@Base 4:4.13.90
 _ZN6Marble16RouteSyncManager11qt_metacallEN11QMetaObject4CallEiPPv@Base 4:4.13.90
 _ZN6Marble16RouteSyncManager11qt_metacastEPKc@Base 4:4.13.90
 _ZN6Marble16RouteSyncManager11uploadRouteERK7QString@Base 4:4.13.90
 _ZN6Marble16RouteSyncManager11uploadRouteEv@Base 4:4.13.90
 _ZN6Marble16RouteSyncManager13downloadRouteERK7QString@Base 4:4.13.90
 _ZN6Marble16RouteSyncManager16prepareRouteListEv@Base 4:4.13.90
 _ZN6Marble16RouteSyncManager16staticMetaObjectE@Base 4:4.13.90
 _ZN6Marble16RouteSyncManager17setRoutingManagerEPNS_14RoutingManagerE@Base 4:4.13.90
 _ZN6Marble16RouteSyncManager18setRouteModelItemsERK7QVectorINS_9RouteItemEE@Base 4:4.13.90
 _ZN6Marble16RouteSyncManager19routeUploadProgressExx@Base 4:4.13.90
 _ZN6Marble16RouteSyncManager19setRouteSyncEnabledEb@Base 4:4.13.90
 _ZN6Marble16RouteSyncManager20removeRouteFromCacheERK7QString@Base 4:4.13.90
 _ZN6Marble16RouteSyncManager23routeSyncEnabledChangedEb@Base 4:4.13.90
 _ZN6Marble16RouteSyncManager23updateUploadProgressbarExx@Base 4:4.13.90
 _ZN6Marble16RouteSyncManager25routeListDownloadProgressExx@Base 4:4.13.90
 _ZN6Marble16RouteSyncManager5modelEv@Base 4:4.13.90
 _ZN6Marble16RouteSyncManager7PrivateC1EPNS_16CloudSyncManagerE@Base 4:4.13.90
 _ZN6Marble16RouteSyncManager7PrivateC2EPNS_16CloudSyncManagerE@Base 4:4.13.90
 _ZN6Marble16RouteSyncManager9openRouteERK7QString@Base 4:4.13.90
 _ZN6Marble16RouteSyncManagerC1EPNS_16CloudSyncManagerE@Base 4:4.13.90
 _ZN6Marble16RouteSyncManagerC2EPNS_16CloudSyncManagerE@Base 4:4.13.90
 _ZN6Marble16RouteSyncManagerD0Ev@Base 4:4.13.90
 _ZN6Marble16RouteSyncManagerD1Ev@Base 4:4.13.90
 _ZN6Marble16RouteSyncManagerD2Ev@Base 4:4.13.90
 _ZN6Marble16SunControlWidget11qt_metacallEN11QMetaObject4CallEiPPv@Base 4:4.13.90
 _ZN6Marble16SunControlWidget11qt_metacastEPKc@Base 4:4.13.90
 _ZN6Marble16SunControlWidget13setSunShadingEb@Base 4:4.13.90
 _ZN6Marble16SunControlWidget16staticMetaObjectE@Base 4:4.13.90
 _ZN6Marble16SunControlWidget23isLockedToSubSolarPointEb@Base 4:4.13.90
 _ZN6Marble16SunControlWidget26isSubSolarPointIconVisibleEb@Base 4:4.13.90
 _ZN6Marble16SunControlWidget5applyEv@Base 4:4.13.90
 _ZN6Marble16SunControlWidget7showSunEb@Base 4:4.13.90
 _ZN6Marble16SunControlWidget9showEventEP10QShowEvent@Base 4:4.13.90
 _ZN6Marble16SunControlWidgetC1EPNS_12MarbleWidgetEP7QWidget@Base 4:4.13.90
 _ZN6Marble16SunControlWidgetC2EPNS_12MarbleWidgetEP7QWidget@Base 4:4.13.90
 _ZN6Marble16SunControlWidgetD0Ev@Base 4:4.13.90
 _ZN6Marble16SunControlWidgetD1Ev@Base 4:4.13.90
 _ZN6Marble16SunControlWidgetD2Ev@Base 4:4.13.90
 _ZN6Marble16TileLoaderHelper10levelToRowEii@Base 4:4.13.90
 _ZN6Marble16TileLoaderHelper10rowToLevelEii@Base 4:4.13.90
 _ZN6Marble16TileLoaderHelper13columnToLevelEii@Base 4:4.13.90
 _ZN6Marble16TileLoaderHelper13levelToColumnEii@Base 4:4.13.90
 _ZN6Marble17AbstractFloatItem10setVisibleEb@Base 4:4.13.90
 _ZN6Marble17AbstractFloatItem11contextMenuEv@Base 4:4.13.90
 _ZN6Marble17AbstractFloatItem11eventFilterEP7QObjectP6QEvent@Base 4:4.13.90
 _ZN6Marble17AbstractFloatItem11qt_metacallEN11QMetaObject4CallEiPPv@Base 4:4.13.90
 _ZN6Marble17AbstractFloatItem11qt_metacastEPKc@Base 4:4.13.90
 _ZN6Marble17AbstractFloatItem11setSettingsERK5QHashI7QString8QVariantE@Base 4:4.13.90
 _ZN6Marble17AbstractFloatItem12toolTipEventEP10QHelpEvent@Base 4:4.13.90
 _ZN6Marble17AbstractFloatItem16contextMenuEventEP7QWidgetP17QContextMenuEvent@Base 4:4.13.90
 _ZN6Marble17AbstractFloatItem16staticMetaObjectE@Base 4:4.13.90
 _ZN6Marble17AbstractFloatItem17setPositionLockedEb@Base 4:4.13.90
 _ZN6Marble17AbstractFloatItem4hideEv@Base 4:4.13.90
 _ZN6Marble17AbstractFloatItem4showEv@Base 4:4.13.90
 _ZN6Marble17AbstractFloatItem6renderEPNS_10GeoPainterEPNS_14ViewportParamsERK7QStringPNS_13GeoSceneLayerE@Base 4:4.13.90
 _ZN6Marble17AbstractFloatItem6setPenERK4QPen@Base 4:4.13.90
 _ZN6Marble17AbstractFloatItem7setFontERK5QFont@Base 4:4.13.90
 _ZN6Marble17AbstractFloatItemC1EPKNS_11MarbleModelERK7QPointFRK6QSizeF@Base 4:4.13.90
 _ZN6Marble17AbstractFloatItemC2EPKNS_11MarbleModelERK7QPointFRK6QSizeF@Base 4:4.13.90
 _ZN6Marble17AbstractFloatItemD0Ev@Base 4:4.13.90
 _ZN6Marble17AbstractFloatItemD1Ev@Base 4:4.13.90
 _ZN6Marble17AbstractFloatItemD2Ev@Base 4:4.13.90
 (subst)_ZN6Marble17FrameGraphicsItem10setPaddingE{qreal}@Base 4:4.13.90
 _ZN6Marble17FrameGraphicsItem12paintContentEP8QPainter@Base 4:4.13.90
 (subst)_ZN6Marble17FrameGraphicsItem12setMarginTopE{qreal}@Base 4:4.13.90
 _ZN6Marble17FrameGraphicsItem13setBackgroundERK6QBrush@Base 4:4.13.90
 (subst)_ZN6Marble17FrameGraphicsItem13setMarginLeftE{qreal}@Base 4:4.13.90
 _ZN6Marble17FrameGraphicsItem14setBorderBrushERK6QBrush@Base 4:4.13.90
 _ZN6Marble17FrameGraphicsItem14setBorderStyleEN2Qt8PenStyleE@Base 4:4.13.90
 (subst)_ZN6Marble17FrameGraphicsItem14setBorderWidthE{qreal}@Base 4:4.13.90
 _ZN6Marble17FrameGraphicsItem14setContentSizeERK6QSizeF@Base 4:4.13.90
 (subst)_ZN6Marble17FrameGraphicsItem14setMarginRightE{qreal}@Base 4:4.13.90
 _ZN6Marble17FrameGraphicsItem15paintBackgroundEP8QPainter@Base 4:4.13.90
 (subst)_ZN6Marble17FrameGraphicsItem15setMarginBottomE{qreal}@Base 4:4.13.90
 _ZN6Marble17FrameGraphicsItem5paintEP8QPainter@Base 4:4.13.90
 _ZN6Marble17FrameGraphicsItem8setFrameENS0_9FrameTypeE@Base 4:4.13.90
 (subst)_ZN6Marble17FrameGraphicsItem9setMarginE{qreal}@Base 4:4.13.90
 _ZN6Marble17FrameGraphicsItemC1EPNS_18MarbleGraphicsItemE@Base 4:4.13.90
 _ZN6Marble17FrameGraphicsItemC2EPNS_18MarbleGraphicsItemE@Base 4:4.13.90
 _ZN6Marble17FrameGraphicsItemD0Ev@Base 4:4.13.90
 _ZN6Marble17FrameGraphicsItemD1Ev@Base 4:4.13.90
 _ZN6Marble17FrameGraphicsItemD2Ev@Base 4:4.13.90
 _ZN6Marble17GeoDataColorStyle12setColorModeERKNS0_9ColorModeE@Base 4:4.13.90
 _ZN6Marble17GeoDataColorStyle6unpackER11QDataStream@Base 4:4.13.90
 _ZN6Marble17GeoDataColorStyle8setColorERK6QColor@Base 4:4.13.90
 _ZN6Marble17GeoDataColorStyleC1ERKS0_@Base 4:4.13.90
 _ZN6Marble17GeoDataColorStyleC1Ev@Base 4:4.13.90
 _ZN6Marble17GeoDataColorStyleC2ERKS0_@Base 4:4.13.90
 _ZN6Marble17GeoDataColorStyleC2Ev@Base 4:4.13.90
 _ZN6Marble17GeoDataColorStyleD0Ev@Base 4:4.13.90
 _ZN6Marble17GeoDataColorStyleD1Ev@Base 4:4.13.90
 _ZN6Marble17GeoDataColorStyleD2Ev@Base 4:4.13.90
 _ZN6Marble17GeoDataColorStyleaSERKS0_@Base 4:4.13.90
 _ZN6Marble17GeoDataLabelStyle12setAlignmentENS0_9AlignmentE@Base 4:4.13.90
 _ZN6Marble17GeoDataLabelStyle6unpackER11QDataStream@Base 4:4.13.90
 _ZN6Marble17GeoDataLabelStyle7setFontERK5QFont@Base 4:4.13.90
 _ZN6Marble17GeoDataLabelStyle7setGlowEb@Base 4:4.13.90
 _ZN6Marble17GeoDataLabelStyle8setScaleERKf@Base 4:4.13.90
 _ZN6Marble17GeoDataLabelStyleC1ERK5QFontRK6QColor@Base 4:4.13.90
 _ZN6Marble17GeoDataLabelStyleC1ERKS0_@Base 4:4.13.90
 _ZN6Marble17GeoDataLabelStyleC1Ev@Base 4:4.13.90
 _ZN6Marble17GeoDataLabelStyleC2ERK5QFontRK6QColor@Base 4:4.13.90
 _ZN6Marble17GeoDataLabelStyleC2ERKS0_@Base 4:4.13.90
 _ZN6Marble17GeoDataLabelStyleC2Ev@Base 4:4.13.90
 _ZN6Marble17GeoDataLabelStyleD0Ev@Base 4:4.13.90
 _ZN6Marble17GeoDataLabelStyleD1Ev@Base 4:4.13.90
 _ZN6Marble17GeoDataLabelStyleD2Ev@Base 4:4.13.90
 _ZN6Marble17GeoDataLabelStyleaSERKS0_@Base 4:4.13.90
 _ZN6Marble17GeoDataLatLonQuad10setTopLeftERKNS_18GeoDataCoordinatesE@Base 4:4.13.90
 _ZN6Marble17GeoDataLatLonQuad11setTopRightERKNS_18GeoDataCoordinatesE@Base 4:4.13.90
 _ZN6Marble17GeoDataLatLonQuad13setBottomLeftERKNS_18GeoDataCoordinatesE@Base 4:4.13.90
 _ZN6Marble17GeoDataLatLonQuad14setBottomRightERKNS_18GeoDataCoordinatesE@Base 4:4.13.90
 (subst)_ZN6Marble17GeoDataLatLonQuad18setTopLeftLatitudeE{qreal}NS_18GeoDataCoordinates4UnitE@Base 4:4.13.90
 (subst)_ZN6Marble17GeoDataLatLonQuad19setTopLeftLongitudeE{qreal}NS_18GeoDataCoordinates4UnitE@Base 4:4.13.90
 (subst)_ZN6Marble17GeoDataLatLonQuad19setTopRightLatitudeE{qreal}NS_18GeoDataCoordinates4UnitE@Base 4:4.13.90
 (subst)_ZN6Marble17GeoDataLatLonQuad20setTopRightLongitudeE{qreal}NS_18GeoDataCoordinates4UnitE@Base 4:4.13.90
 (subst)_ZN6Marble17GeoDataLatLonQuad21setBottomLeftLatitudeE{qreal}NS_18GeoDataCoordinates4UnitE@Base 4:4.13.90
 (subst)_ZN6Marble17GeoDataLatLonQuad22setBottomLeftLongitudeE{qreal}NS_18GeoDataCoordinates4UnitE@Base 4:4.13.90
 (subst)_ZN6Marble17GeoDataLatLonQuad22setBottomRightLatitudeE{qreal}NS_18GeoDataCoordinates4UnitE@Base 4:4.13.90
 (subst)_ZN6Marble17GeoDataLatLonQuad23setBottomRightLongitudeE{qreal}NS_18GeoDataCoordinates4UnitE@Base 4:4.13.90
 _ZN6Marble17GeoDataLatLonQuadC1ERKS0_@Base 4:4.13.90
 _ZN6Marble17GeoDataLatLonQuadC1Ev@Base 4:4.13.90
 _ZN6Marble17GeoDataLatLonQuadC2ERKS0_@Base 4:4.13.90
 _ZN6Marble17GeoDataLatLonQuadC2Ev@Base 4:4.13.90
 _ZN6Marble17GeoDataLatLonQuadD0Ev@Base 4:4.13.90
 _ZN6Marble17GeoDataLatLonQuadD1Ev@Base 4:4.13.90
 _ZN6Marble17GeoDataLatLonQuadD2Ev@Base 4:4.13.90
 _ZN6Marble17GeoDataLatLonQuadaSERKS0_@Base 4:4.13.90
 _ZN6Marble17GeoDataLineString13setTessellateEb@Base 4:4.13.90
 _ZN6Marble17GeoDataLineString1pEv@Base 4:4.13.90
 _ZN6Marble17GeoDataLineString20setTessellationFlagsE6QFlagsINS_16TessellationFlagEE@Base 4:4.13.90
 _ZN6Marble17GeoDataLineString2atEi@Base 4:4.13.90
 _ZN6Marble17GeoDataLineString3endEv@Base 4:4.13.90
 _ZN6Marble17GeoDataLineString4lastEv@Base 4:4.13.90
 _ZN6Marble17GeoDataLineString5beginEv@Base 4:4.13.90
 _ZN6Marble17GeoDataLineString5clearEv@Base 4:4.13.90
 _ZN6Marble17GeoDataLineString5eraseEPNS_18GeoDataCoordinatesE@Base 4:4.13.90
 _ZN6Marble17GeoDataLineString5eraseEPNS_18GeoDataCoordinatesES2_@Base 4:4.13.90
 _ZN6Marble17GeoDataLineString5firstEv@Base 4:4.13.90
 _ZN6Marble17GeoDataLineString6appendERKNS_18GeoDataCoordinatesE@Base 4:4.13.90
 _ZN6Marble17GeoDataLineString6removeEi@Base 4:4.13.90
 _ZN6Marble17GeoDataLineString6unpackER11QDataStream@Base 4:4.13.90
 _ZN6Marble17GeoDataLineStringC1E6QFlagsINS_16TessellationFlagEE@Base 4:4.13.90
 _ZN6Marble17GeoDataLineStringC1EPNS_24GeoDataLineStringPrivateE@Base 4:4.13.90
 _ZN6Marble17GeoDataLineStringC1ERKNS_15GeoDataGeometryE@Base 4:4.13.90
 _ZN6Marble17GeoDataLineStringC2E6QFlagsINS_16TessellationFlagEE@Base 4:4.13.90
 _ZN6Marble17GeoDataLineStringC2EPNS_24GeoDataLineStringPrivateE@Base 4:4.13.90
 _ZN6Marble17GeoDataLineStringC2ERKNS_15GeoDataGeometryE@Base 4:4.13.90
 _ZN6Marble17GeoDataLineStringD0Ev@Base 4:4.13.90
 _ZN6Marble17GeoDataLineStringD1Ev@Base 4:4.13.90
 _ZN6Marble17GeoDataLineStringD2Ev@Base 4:4.13.90
 _ZN6Marble17GeoDataLineStringixEi@Base 4:4.13.90
 _ZN6Marble17GeoDataLineStringlsERKNS_18GeoDataCoordinatesE@Base 4:4.13.90
 _ZN6Marble17GeoDataLineStringlsERKS0_@Base 4:4.13.90
 _ZN6Marble17GeoDataLinearRingC1E6QFlagsINS_16TessellationFlagEE@Base 4:4.13.90
 _ZN6Marble17GeoDataLinearRingC1ERKNS_15GeoDataGeometryE@Base 4:4.13.90
 _ZN6Marble17GeoDataLinearRingC2E6QFlagsINS_16TessellationFlagEE@Base 4:4.13.90
 _ZN6Marble17GeoDataLinearRingC2ERKNS_15GeoDataGeometryE@Base 4:4.13.90
 _ZN6Marble17GeoDataLinearRingD0Ev@Base 4:4.13.90
 _ZN6Marble17GeoDataLinearRingD1Ev@Base 4:4.13.90
 _ZN6Marble17GeoDataLinearRingD2Ev@Base 4:4.13.90
 _ZN6Marble17GeoDataMultiTrack1pEv@Base 4:4.13.90
 _ZN6Marble17GeoDataMultiTrack2atEi@Base 4:4.13.90
 _ZN6Marble17GeoDataMultiTrack3endEv@Base 4:4.13.90
 _ZN6Marble17GeoDataMultiTrack4lastEv@Base 4:4.13.90
 _ZN6Marble17GeoDataMultiTrack5beginEv@Base 4:4.13.90
 _ZN6Marble17GeoDataMultiTrack5childEi@Base 4:4.13.90
 _ZN6Marble17GeoDataMultiTrack5clearEv@Base 4:4.13.90
 _ZN6Marble17GeoDataMultiTrack5firstEv@Base 4:4.13.90
 _ZN6Marble17GeoDataMultiTrack6appendEPNS_12GeoDataTrackE@Base 4:4.13.90
 _ZN6Marble17GeoDataMultiTrack6unpackER11QDataStream@Base 4:4.13.90
 _ZN6Marble17GeoDataMultiTrackC1ERKNS_15GeoDataGeometryE@Base 4:4.13.90
 _ZN6Marble17GeoDataMultiTrackC1Ev@Base 4:4.13.90
 _ZN6Marble17GeoDataMultiTrackC2ERKNS_15GeoDataGeometryE@Base 4:4.13.90
 _ZN6Marble17GeoDataMultiTrackC2Ev@Base 4:4.13.90
 _ZN6Marble17GeoDataMultiTrackD0Ev@Base 4:4.13.90
 _ZN6Marble17GeoDataMultiTrackD1Ev@Base 4:4.13.90
 _ZN6Marble17GeoDataMultiTrackD2Ev@Base 4:4.13.90
 _ZN6Marble17GeoDataMultiTrackixEi@Base 4:4.13.90
 _ZN6Marble17GeoDataMultiTracklsERKNS_12GeoDataTrackE@Base 4:4.13.90
 (subst)_ZN6Marble17GeoDataViewVolume10setLeftFovERK{qreal}@Base 4:4.13.90
 (subst)_ZN6Marble17GeoDataViewVolume11setRightFovERK{qreal}@Base 4:4.13.90
 (subst)_ZN6Marble17GeoDataViewVolume12setBottomFovERK{qreal}@Base 4:4.13.90
 (subst)_ZN6Marble17GeoDataViewVolume7setNearERK{qreal}@Base 4:4.13.90
 (subst)_ZN6Marble17GeoDataViewVolume9setTopFovERK{qreal}@Base 4:4.13.90
 _ZN6Marble17GeoDataViewVolumeC1ERKS0_@Base 4:4.13.90
 _ZN6Marble17GeoDataViewVolumeC1Ev@Base 4:4.13.90
 _ZN6Marble17GeoDataViewVolumeC2ERKS0_@Base 4:4.13.90
 _ZN6Marble17GeoDataViewVolumeC2Ev@Base 4:4.13.90
 _ZN6Marble17GeoDataViewVolumeD0Ev@Base 4:4.13.90
 _ZN6Marble17GeoDataViewVolumeD1Ev@Base 4:4.13.90
 _ZN6Marble17GeoDataViewVolumeD2Ev@Base 4:4.13.90
 _ZN6Marble17GeoDataViewVolumeaSERKS0_@Base 4:4.13.90
 _ZN6Marble17LabelGraphicsItem12paintContentEP8QPainter@Base 4:4.13.90
 _ZN6Marble17LabelGraphicsItem14setContentSizeERK6QSizeF@Base 4:4.13.90
 _ZN6Marble17LabelGraphicsItem14setMinimumSizeERK6QSizeF@Base 4:4.13.90
 _ZN6Marble17LabelGraphicsItem5clearEv@Base 4:4.13.90
 _ZN6Marble17LabelGraphicsItem7setIconERK5QIconRK5QSize@Base 4:4.13.90
 _ZN6Marble17LabelGraphicsItem7setTextERK7QString@Base 4:4.13.90
 _ZN6Marble17LabelGraphicsItem8setImageERK6QImageRK5QSize@Base 4:4.13.90
 _ZN6Marble17LabelGraphicsItemC1EPNS_18MarbleGraphicsItemE@Base 4:4.13.90
 _ZN6Marble17LabelGraphicsItemC2EPNS_18MarbleGraphicsItemE@Base 4:4.13.90
 _ZN6Marble17LabelGraphicsItemD0Ev@Base 4:4.13.90
 _ZN6Marble17LabelGraphicsItemD1Ev@Base 4:4.13.90
 _ZN6Marble17LabelGraphicsItemD2Ev@Base 4:4.13.90
 _ZN6Marble17MarbleAboutDialog11qt_metacallEN11QMetaObject4CallEiPPv@Base 4:4.13.90
 _ZN6Marble17MarbleAboutDialog11qt_metacastEPKc@Base 4:4.13.90
 _ZN6Marble17MarbleAboutDialog13setInitialTabENS0_3TabE@Base 4:4.13.90
 _ZN6Marble17MarbleAboutDialog16staticMetaObjectE@Base 4:4.13.90
 _ZN6Marble17MarbleAboutDialog19setApplicationTitleERK7QString@Base 4:4.13.90
 _ZN6Marble17MarbleAboutDialogC1EP7QWidget@Base 4:4.13.90
 _ZN6Marble17MarbleAboutDialogC2EP7QWidget@Base 4:4.13.90
 _ZN6Marble17MarbleAboutDialogD0Ev@Base 4:4.13.90
 _ZN6Marble17MarbleAboutDialogD1Ev@Base 4:4.13.90
 _ZN6Marble17MarbleAboutDialogD2Ev@Base 4:4.13.90
 _ZN6Marble17ParseRunnerPlugin11qt_metacallEN11QMetaObject4CallEiPPv@Base 4:4.13.90
 _ZN6Marble17ParseRunnerPlugin11qt_metacastEPKc@Base 4:4.13.90
 _ZN6Marble17ParseRunnerPlugin16staticMetaObjectE@Base 4:4.13.90
 _ZN6Marble17ParseRunnerPlugin7PrivateC1Ev@Base 4:4.13.90
 _ZN6Marble17ParseRunnerPlugin7PrivateC2Ev@Base 4:4.13.90
 _ZN6Marble17ParseRunnerPluginC1EP7QObject@Base 4:4.13.90
 _ZN6Marble17ParseRunnerPluginC2EP7QObject@Base 4:4.13.90
 _ZN6Marble17ParseRunnerPluginD0Ev@Base 4:4.13.90
 _ZN6Marble17ParseRunnerPluginD1Ev@Base 4:4.13.90
 _ZN6Marble17ParseRunnerPluginD2Ev@Base 4:4.13.90
 _ZN6Marble17PluginAboutDialog10setAuthorsERK5QListINS_12PluginAuthorEE@Base 4:4.13.90
 _ZN6Marble17PluginAboutDialog10setLicenseENS0_10LicenseKeyE@Base 4:4.13.90
 _ZN6Marble17PluginAboutDialog10setVersionERK7QString@Base 4:4.13.90
 _ZN6Marble17PluginAboutDialog11qt_metacallEN11QMetaObject4CallEiPPv@Base 4:4.13.90
 _ZN6Marble17PluginAboutDialog11qt_metacastEPKc@Base 4:4.13.90
 _ZN6Marble17PluginAboutDialog11setDataTextERK7QString@Base 4:4.13.90
 _ZN6Marble17PluginAboutDialog12setAboutTextERK7QString@Base 4:4.13.90
 _ZN6Marble17PluginAboutDialog14setAuthorsTextERK7QString@Base 4:4.13.90
 _ZN6Marble17PluginAboutDialog16staticMetaObjectE@Base 4:4.13.90
 _ZN6Marble17PluginAboutDialog23setLicenseAgreementTextERK7QString@Base 4:4.13.90
 _ZN6Marble17PluginAboutDialog7setIconERK5QIcon@Base 4:4.13.90
 _ZN6Marble17PluginAboutDialog7setNameERK7QString@Base 4:4.13.90
 _ZN6Marble17PluginAboutDialogC1EP7QWidget@Base 4:4.13.90
 _ZN6Marble17PluginAboutDialogC2EP7QWidget@Base 4:4.13.90
 _ZN6Marble17PluginAboutDialogD0Ev@Base 4:4.13.90
 _ZN6Marble17PluginAboutDialogD1Ev@Base 4:4.13.90
 _ZN6Marble17PluginAboutDialogD2Ev@Base 4:4.13.90
 _ZN6Marble17RenderPluginModel11qt_metacallEN11QMetaObject4CallEiPPv@Base 4:4.13.90
 _ZN6Marble17RenderPluginModel11qt_metacastEPKc@Base 4:4.13.90
 _ZN6Marble17RenderPluginModel16applyPluginStateEv@Base 4:4.13.90
 _ZN6Marble17RenderPluginModel16setRenderPluginsERK5QListIPNS_12RenderPluginEE@Base 4:4.13.90
 _ZN6Marble17RenderPluginModel16staticMetaObjectE@Base 4:4.13.90
 _ZN6Marble17RenderPluginModel19retrievePluginStateEv@Base 4:4.13.90
 _ZN6Marble17RenderPluginModel34pluginDialogConfigurationInterfaceERK11QModelIndex@Base 4:4.13.90
 _ZN6Marble17RenderPluginModel7PrivateC1Ev@Base 4:4.13.90
 _ZN6Marble17RenderPluginModel7PrivateC2Ev@Base 4:4.13.90
 _ZN6Marble17RenderPluginModelC1EP7QObject@Base 4:4.13.90
 _ZN6Marble17RenderPluginModelC2EP7QObject@Base 4:4.13.90
 _ZN6Marble17RenderPluginModelD0Ev@Base 4:4.13.90
 _ZN6Marble17RenderPluginModelD1Ev@Base 4:4.13.90
 _ZN6Marble17RenderPluginModelD2Ev@Base 4:4.13.90
 _ZN6Marble17SearchInputWidget11qt_metacallEN11QMetaObject4CallEiPPv@Base 4:4.13.90
 _ZN6Marble17SearchInputWidget11qt_metacastEPKc@Base 4:4.13.90
 _ZN6Marble17SearchInputWidget13setAreaSearchEv@Base 4:4.13.90
 _ZN6Marble17SearchInputWidget15setGlobalSearchEv@Base 4:4.13.90
 _ZN6Marble17SearchInputWidget16showDropDownMenuEv@Base 4:4.13.90
 _ZN6Marble17SearchInputWidget16staticMetaObjectE@Base 4:4.13.90
 _ZN6Marble17SearchInputWidget18setCompletionModelEP18QAbstractItemModel@Base 4:4.13.90
 _ZN6Marble17SearchInputWidget21updatePlaceholderTextEv@Base 4:4.13.90
 _ZN6Marble17SearchInputWidget22disableSearchAnimationEv@Base 4:4.13.90
 _ZN6Marble17SearchInputWidget24centerOnSearchSuggestionERK11QModelIndex@Base 4:4.13.90
 _ZN6Marble17SearchInputWidget6searchERK7QStringNS_10SearchModeE@Base 4:4.13.90
 _ZN6Marble17SearchInputWidget6searchEv@Base 4:4.13.90
 _ZN6Marble17SearchInputWidget8centerOnERKNS_18GeoDataCoordinatesE@Base 4:4.13.90
 _ZN6Marble17SearchInputWidgetC1EP7QWidget@Base 4:4.13.90
 _ZN6Marble17SearchInputWidgetC2EP7QWidget@Base 4:4.13.90
 _ZN6Marble17SearchInputWidgetD0Ev@Base 4:4.13.90
 _ZN6Marble17SearchInputWidgetD1Ev@Base 4:4.13.90
 _ZN6Marble17SearchInputWidgetD2Ev@Base 4:4.13.90
 _ZN6Marble17TileCoordsPyramid20setBottomLevelCoordsERK5QRect@Base 4:4.13.90
 _ZN6Marble17TileCoordsPyramid4swapERS0_@Base 4:4.13.90
 _ZN6Marble17TileCoordsPyramid7PrivateC1Eii@Base 4:4.13.90
 _ZN6Marble17TileCoordsPyramid7PrivateC2Eii@Base 4:4.13.90
 _ZN6Marble17TileCoordsPyramidC1ERKS0_@Base 4:4.13.90
 _ZN6Marble17TileCoordsPyramidC1Eii@Base 4:4.13.90
 _ZN6Marble17TileCoordsPyramidC1Ev@Base 4:4.13.90
 _ZN6Marble17TileCoordsPyramidC2ERKS0_@Base 4:4.13.90
 _ZN6Marble17TileCoordsPyramidC2Eii@Base 4:4.13.90
 _ZN6Marble17TileCoordsPyramidC2Ev@Base 4:4.13.90
 _ZN6Marble17TileCoordsPyramidD1Ev@Base 4:4.13.90
 _ZN6Marble17TileCoordsPyramidD2Ev@Base 4:4.13.90
 _ZN6Marble17TileCoordsPyramidaSERKS0_@Base 4:4.13.90
 _ZN6Marble17TileCreatorDialog10setSummaryERK7QStringS3_@Base 4:4.13.90
 _ZN6Marble17TileCreatorDialog11qt_metacallEN11QMetaObject4CallEiPPv@Base 4:4.13.90
 _ZN6Marble17TileCreatorDialog11qt_metacastEPKc@Base 4:4.13.90
 _ZN6Marble17TileCreatorDialog11setProgressEi@Base 4:4.13.90
 _ZN6Marble17TileCreatorDialog16staticMetaObjectE@Base 4:4.13.90
 _ZN6Marble17TileCreatorDialog18cancelTileCreationEv@Base 4:4.13.90
 _ZN6Marble17TileCreatorDialogC1EPNS_11TileCreatorEP7QWidget@Base 4:4.13.90
 _ZN6Marble17TileCreatorDialogC2EPNS_11TileCreatorEP7QWidget@Base 4:4.13.90
 _ZN6Marble17TileCreatorDialogD0Ev@Base 4:4.13.90
 _ZN6Marble17TileCreatorDialogD1Ev@Base 4:4.13.90
 _ZN6Marble17TileCreatorDialogD2Ev@Base 4:4.13.90
 _ZN6Marble17TimeControlWidget10nowClickedEv@Base 4:4.13.90
 _ZN6Marble17TimeControlWidget11qt_metacallEN11QMetaObject4CallEiPPv@Base 4:4.13.90
 _ZN6Marble17TimeControlWidget11qt_metacastEPKc@Base 4:4.13.90
 _ZN6Marble17TimeControlWidget14updateDateTimeEv@Base 4:4.13.90
 _ZN6Marble17TimeControlWidget16staticMetaObjectE@Base 4:4.13.90
 _ZN6Marble17TimeControlWidget16updateSpeedLabelEi@Base 4:4.13.90
 _ZN6Marble17TimeControlWidget17updateRefreshRateEi@Base 4:4.13.90
 _ZN6Marble17TimeControlWidget5applyEv@Base 4:4.13.90
 _ZN6Marble17TimeControlWidget9showEventEP10QShowEvent@Base 4:4.13.90
 _ZN6Marble17TimeControlWidgetC1EPNS_11MarbleClockEP7QWidget@Base 4:4.13.90
 _ZN6Marble17TimeControlWidgetC2EPNS_11MarbleClockEP7QWidget@Base 4:4.13.90
 _ZN6Marble17TimeControlWidgetD0Ev@Base 4:4.13.90
 _ZN6Marble17TimeControlWidgetD1Ev@Base 4:4.13.90
 _ZN6Marble17TimeControlWidgetD2Ev@Base 4:4.13.90
 _ZN6Marble18AbstractDataPlugin11qt_metacallEN11QMetaObject4CallEiPPv@Base 4:4.13.90
 _ZN6Marble18AbstractDataPlugin11qt_metacastEPKc@Base 4:4.13.90
 _ZN6Marble18AbstractDataPlugin11setDelegateEP21QDeclarativeComponentP13QGraphicsItem@Base 4:4.13.90
 _ZN6Marble18AbstractDataPlugin11whichItemAtERK6QPoint@Base 4:4.13.90
 _ZN6Marble18AbstractDataPlugin13delayedUpdateEv@Base 4:4.13.90
 _ZN6Marble18AbstractDataPlugin14favoritesModelEv@Base 4:4.13.90
 _ZN6Marble18AbstractDataPlugin16setNumberOfItemsEj@Base 4:4.13.90
 _ZN6Marble18AbstractDataPlugin16staticMetaObjectE@Base 4:4.13.90
 _ZN6Marble18AbstractDataPlugin20changedNumberOfItemsEj@Base 4:4.13.90
 _ZN6Marble18AbstractDataPlugin20favoriteItemsChangedERK11QStringList@Base 4:4.13.90
 _ZN6Marble18AbstractDataPlugin20handleViewportChangeEPKNS_14ViewportParamsE@Base 4:4.13.90
 _ZN6Marble18AbstractDataPlugin20setFavoriteItemsOnlyEb@Base 4:4.13.90
 _ZN6Marble18AbstractDataPlugin21favoritesModelChangedEv@Base 4:4.13.90
 _ZN6Marble18AbstractDataPlugin24favoriteItemsOnlyChangedEv@Base 4:4.13.90
 _ZN6Marble18AbstractDataPlugin5modelEv@Base 4:4.13.90
 _ZN6Marble18AbstractDataPlugin6renderEPNS_10GeoPainterEPNS_14ViewportParamsERK7QStringPNS_13GeoSceneLayerE@Base 4:4.13.90
 _ZN6Marble18AbstractDataPlugin8setModelEPNS_23AbstractDataPluginModelE@Base 4:4.13.90
 _ZN6Marble18AbstractDataPluginC1EPKNS_11MarbleModelE@Base 4:4.13.90
 _ZN6Marble18AbstractDataPluginC2EPKNS_11MarbleModelE@Base 4:4.13.90
 _ZN6Marble18AbstractDataPluginD0Ev@Base 4:4.13.90
 _ZN6Marble18AbstractDataPluginD1Ev@Base 4:4.13.90
 _ZN6Marble18AbstractDataPluginD2Ev@Base 4:4.13.90
 (subst)_ZN6Marble18AbstractProjection9setMaxLatE{qreal}@Base 4:4.13.90
 (subst)_ZN6Marble18AbstractProjection9setMinLatE{qreal}@Base 4:4.13.90
 _ZN6Marble18AbstractProjectionC1EPNS_25AbstractProjectionPrivateE@Base 4:4.13.90
 _ZN6Marble18AbstractProjectionC1Ev@Base 4:4.13.90
 _ZN6Marble18AbstractProjectionC2EPNS_25AbstractProjectionPrivateE@Base 4:4.13.90
 _ZN6Marble18AbstractProjectionC2Ev@Base 4:4.13.90
 _ZN6Marble18AbstractProjectionD0Ev@Base 4:4.13.90
 _ZN6Marble18AbstractProjectionD1Ev@Base 4:4.13.90
 _ZN6Marble18AbstractProjectionD2Ev@Base 4:4.13.90
 _ZN6Marble18CacheStoragePolicy10clearCacheEv@Base 4:4.13.90
 _ZN6Marble18CacheStoragePolicy10updateFileERK7QStringRK10QByteArray@Base 4:4.13.90
 _ZN6Marble18CacheStoragePolicy11qt_metacallEN11QMetaObject4CallEiPPv@Base 4:4.13.90
 _ZN6Marble18CacheStoragePolicy11qt_metacastEPKc@Base 4:4.13.90
 _ZN6Marble18CacheStoragePolicy13setCacheLimitEy@Base 4:4.13.90
 _ZN6Marble18CacheStoragePolicy16staticMetaObjectE@Base 4:4.13.90
 _ZN6Marble18CacheStoragePolicy4dataERK7QString@Base 4:4.13.90
 _ZN6Marble18CacheStoragePolicyC1ERK7QString@Base 4:4.13.90
 _ZN6Marble18CacheStoragePolicyC2ERK7QString@Base 4:4.13.90
 _ZN6Marble18CacheStoragePolicyD0Ev@Base 4:4.13.90
 _ZN6Marble18CacheStoragePolicyD1Ev@Base 4:4.13.90
 _ZN6Marble18CacheStoragePolicyD2Ev@Base 4:4.13.90
 _ZN6Marble18EditBookmarkDialog11qt_metacallEN11QMetaObject4CallEiPPv@Base 4:4.13.90
 _ZN6Marble18EditBookmarkDialog11qt_metacastEPKc@Base 4:4.13.90
 _ZN6Marble18EditBookmarkDialog13setFolderNameERK7QString@Base 4:4.13.90
 _ZN6Marble18EditBookmarkDialog14setCoordinatesERKNS_18GeoDataCoordinatesE@Base 4:4.13.90
 _ZN6Marble18EditBookmarkDialog14setDescriptionERK7QString@Base 4:4.13.90
 _ZN6Marble18EditBookmarkDialog15setMarbleWidgetEPNS_12MarbleWidgetE@Base 4:4.13.90
 _ZN6Marble18EditBookmarkDialog16staticMetaObjectE@Base 4:4.13.90
 _ZN6Marble18EditBookmarkDialog21setReverseGeocodeNameEv@Base 4:4.13.90
 _ZN6Marble18EditBookmarkDialog7setNameERK7QString@Base 4:4.13.90
 (subst)_ZN6Marble18EditBookmarkDialog8setRangeE{qreal}@Base 4:4.13.90
 _ZN6Marble18EditBookmarkDialogC1EPNS_15BookmarkManagerEP7QWidget@Base 4:4.13.90
 _ZN6Marble18EditBookmarkDialogC2EPNS_15BookmarkManagerEP7QWidget@Base 4:4.13.90
 _ZN6Marble18EditBookmarkDialogD0Ev@Base 4:4.13.90
 _ZN6Marble18EditBookmarkDialogD1Ev@Base 4:4.13.90
 _ZN6Marble18EditBookmarkDialogD2Ev@Base 4:4.13.90
 _ZN6Marble18GeoDataCoordinates10fromStringERK7QStringRb@Base 4:4.13.90
 _ZN6Marble18GeoDataCoordinates10s_notationE@Base 4:4.13.90
 (subst)_ZN6Marble18GeoDataCoordinates11latToStringE{qreal}NS0_8NotationENS0_4UnitEic@Base 4:4.13.90
 (subst)_ZN6Marble18GeoDataCoordinates11lonToStringE{qreal}NS0_8NotationENS0_4UnitEic@Base 4:4.13.90
 (subst)_ZN6Marble18GeoDataCoordinates11setAltitudeE{qreal}@Base 4:4.13.90
 (subst)_ZN6Marble18GeoDataCoordinates11setLatitudeE{qreal}NS0_4UnitE@Base 4:4.13.90
 (subst)_ZN6Marble18GeoDataCoordinates12normalizeLatE{qreal}NS0_4UnitE@Base 4:4.13.90
 (subst)_ZN6Marble18GeoDataCoordinates12normalizeLonE{qreal}NS0_4UnitE@Base 4:4.13.90
 (subst)_ZN6Marble18GeoDataCoordinates12setLongitudeE{qreal}NS0_4UnitE@Base 4:4.13.90
 _ZN6Marble18GeoDataCoordinates15defaultNotationEv@Base 4:4.13.90
 (subst)_ZN6Marble18GeoDataCoordinates15normalizeLonLatER{qreal}S1_NS0_4UnitE@Base 4:4.13.90
 _ZN6Marble18GeoDataCoordinates18setDefaultNotationENS0_8NotationE@Base 4:4.13.90
 (subst)_ZN6Marble18GeoDataCoordinates3setE{qreal}{qreal}{qreal}NS0_4UnitE@Base 4:4.13.90
 _ZN6Marble18GeoDataCoordinates4nullE@Base 4:4.13.90
 _ZN6Marble18GeoDataCoordinates6detachEv@Base 4:4.13.90
 _ZN6Marble18GeoDataCoordinates6unpackER11QDataStream@Base 4:4.13.90
 _ZN6Marble18GeoDataCoordinates9setDetailEi@Base 4:4.13.90
 _ZN6Marble18GeoDataCoordinatesC1ERKS0_@Base 4:4.13.90
 _ZN6Marble18GeoDataCoordinatesC1Ev@Base 4:4.13.90
 (subst)_ZN6Marble18GeoDataCoordinatesC1E{qreal}{qreal}{qreal}NS0_4UnitEi@Base 4:4.13.90
 _ZN6Marble18GeoDataCoordinatesC2ERKS0_@Base 4:4.13.90
 _ZN6Marble18GeoDataCoordinatesC2Ev@Base 4:4.13.90
 (subst)_ZN6Marble18GeoDataCoordinatesC2E{qreal}{qreal}{qreal}NS0_4UnitEi@Base 4:4.13.90
 _ZN6Marble18GeoDataCoordinatesD0Ev@Base 4:4.13.90
 _ZN6Marble18GeoDataCoordinatesD1Ev@Base 4:4.13.90
 _ZN6Marble18GeoDataCoordinatesD2Ev@Base 4:4.13.90
 _ZN6Marble18GeoDataCoordinatesaSERKS0_@Base 4:4.13.90
 _ZN6Marble18GeoDataNetworkLink12setFlyToViewEb@Base 4:4.13.90
 _ZN6Marble18GeoDataNetworkLink20setRefreshVisibilityEb@Base 4:4.13.90
 _ZN6Marble18GeoDataNetworkLink4linkEv@Base 4:4.13.90
 _ZN6Marble18GeoDataNetworkLink7setLinkERKNS_11GeoDataLinkE@Base 4:4.13.90
 _ZN6Marble18GeoDataNetworkLinkC1ERKS0_@Base 4:4.13.90
 _ZN6Marble18GeoDataNetworkLinkC1Ev@Base 4:4.13.90
 _ZN6Marble18GeoDataNetworkLinkC2ERKS0_@Base 4:4.13.90
 _ZN6Marble18GeoDataNetworkLinkC2Ev@Base 4:4.13.90
 _ZN6Marble18GeoDataNetworkLinkD0Ev@Base 4:4.13.90
 _ZN6Marble18GeoDataNetworkLinkD1Ev@Base 4:4.13.90
 _ZN6Marble18GeoDataNetworkLinkD2Ev@Base 4:4.13.90
 _ZN6Marble18GeoDataNetworkLinkaSERKS0_@Base 4:4.13.90
 _ZN6Marble18GeoDataOrientation10setHeadingEd@Base 4:4.13.90
 _ZN6Marble18GeoDataOrientation7setRollEd@Base 4:4.13.90
 _ZN6Marble18GeoDataOrientation7setTiltEd@Base 4:4.13.90
 _ZN6Marble18GeoDataOrientationC1ERKS0_@Base 4:4.13.90
 _ZN6Marble18GeoDataOrientationC1Ev@Base 4:4.13.90
 _ZN6Marble18GeoDataOrientationC2ERKS0_@Base 4:4.13.90
 _ZN6Marble18GeoDataOrientationC2Ev@Base 4:4.13.90
 _ZN6Marble18GeoDataOrientationD0Ev@Base 4:4.13.90
 _ZN6Marble18GeoDataOrientationD1Ev@Base 4:4.13.90
 _ZN6Marble18GeoDataOrientationD2Ev@Base 4:4.13.90
 _ZN6Marble18GeoDataOrientationaSERKS0_@Base 4:4.13.90
 _ZN6Marble18GeoDataResourceMap13setSourceHrefERK7QString@Base 4:4.13.90
 _ZN6Marble18GeoDataResourceMap13setTargetHrefERK7QString@Base 4:4.13.90
 _ZN6Marble18GeoDataResourceMap5aliasEv@Base 4:4.13.90
 _ZN6Marble18GeoDataResourceMap8setAliasERKNS_12GeoDataAliasE@Base 4:4.13.90
 _ZN6Marble18GeoDataResourceMapC1ERKS0_@Base 4:4.13.90
 _ZN6Marble18GeoDataResourceMapC1Ev@Base 4:4.13.90
 _ZN6Marble18GeoDataResourceMapC2ERKS0_@Base 4:4.13.90
 _ZN6Marble18GeoDataResourceMapC2Ev@Base 4:4.13.90
 _ZN6Marble18GeoDataResourceMapD0Ev@Base 4:4.13.90
 _ZN6Marble18GeoDataResourceMapD1Ev@Base 4:4.13.90
 _ZN6Marble18GeoDataResourceMapD2Ev@Base 4:4.13.90
 _ZN6Marble18GeoDataResourceMapaSERKS0_@Base 4:4.13.90
 _ZN6Marble18GeoDataSimpleField14setDisplayNameERK7QString@Base 4:4.13.90
 _ZN6Marble18GeoDataSimpleField6unpackER11QDataStream@Base 4:4.13.90
 _ZN6Marble18GeoDataSimpleField7setNameERK7QString@Base 4:4.13.90
 _ZN6Marble18GeoDataSimpleField7setTypeERKNS0_15SimpleFieldTypeE@Base 4:4.13.90
 _ZN6Marble18GeoDataSimpleFieldC1ERKS0_@Base 4:4.13.90
 _ZN6Marble18GeoDataSimpleFieldC1Ev@Base 4:4.13.90
 _ZN6Marble18GeoDataSimpleFieldC2ERKS0_@Base 4:4.13.90
 _ZN6Marble18GeoDataSimpleFieldC2Ev@Base 4:4.13.90
 _ZN6Marble18GeoDataSimpleFieldD0Ev@Base 4:4.13.90
 _ZN6Marble18GeoDataSimpleFieldD1Ev@Base 4:4.13.90
 _ZN6Marble18GeoDataSimpleFieldD2Ev@Base 4:4.13.90
 _ZN6Marble18GeoDataSimpleFieldaSERKS0_@Base 4:4.13.90
 _ZN6Marble18GeoDataTourControl11setPlayModeERKNS0_8PlayModeE@Base 4:4.13.90
 _ZN6Marble18GeoDataTourControlC1Ev@Base 4:4.13.90
 _ZN6Marble18GeoDataTourControlC2Ev@Base 4:4.13.90
 _ZN6Marble18GeoDataTourControlD0Ev@Base 4:4.13.90
 _ZN6Marble18GeoDataTourControlD1Ev@Base 4:4.13.90
 _ZN6Marble18GeoDataTourControlD2Ev@Base 4:4.13.90
 _ZN6Marble18MarbleGraphicsItem10paintEventEP8QPainterPKNS_14ViewportParamsE@Base 4:4.13.90
 _ZN6Marble18MarbleGraphicsItem10setVisibleEb@Base 4:4.13.90
 _ZN6Marble18MarbleGraphicsItem11eventFilterEP7QObjectP6QEvent@Base 4:4.13.90
 _ZN6Marble18MarbleGraphicsItem12setCacheModeENS0_9CacheModeE@Base 4:4.13.90
 _ZN6Marble18MarbleGraphicsItem13setProjectionEPKNS_14ViewportParamsE@Base 4:4.13.90
 _ZN6Marble18MarbleGraphicsItem14setContentSizeERK6QSizeF@Base 4:4.13.90
 _ZN6Marble18MarbleGraphicsItem1pEv@Base 4:4.13.90
 _ZN6Marble18MarbleGraphicsItem4hideEv@Base 4:4.13.90
 _ZN6Marble18MarbleGraphicsItem4showEv@Base 4:4.13.90
 _ZN6Marble18MarbleGraphicsItem5paintEP8QPainter@Base 4:4.13.90
 _ZN6Marble18MarbleGraphicsItem6updateEv@Base 4:4.13.90
 _ZN6Marble18MarbleGraphicsItem7setSizeERK6QSizeF@Base 4:4.13.90
 _ZN6Marble18MarbleGraphicsItem9setLayoutEPNS_28AbstractMarbleGraphicsLayoutE@Base 4:4.13.90
 _ZN6Marble18MarbleGraphicsItemC1EPNS_25MarbleGraphicsItemPrivateE@Base 4:4.13.90
 _ZN6Marble18MarbleGraphicsItemC2EPNS_25MarbleGraphicsItemPrivateE@Base 4:4.13.90
 _ZN6Marble18MarbleGraphicsItemD0Ev@Base 4:4.13.90
 _ZN6Marble18MarbleGraphicsItemD1Ev@Base 4:4.13.90
 _ZN6Marble18MarbleGraphicsItemD2Ev@Base 4:4.13.90
 _ZN6Marble18MarbleInputHandler10lmbRequestEii@Base 4:4.13.90
 _ZN6Marble18MarbleInputHandler10rmbRequestEii@Base 4:4.13.90
 _ZN6Marble18MarbleInputHandler11qt_metacallEN11QMetaObject4CallEiPPv@Base 4:4.13.90
 _ZN6Marble18MarbleInputHandler11qt_metacastEPKc@Base 4:4.13.90
 _ZN6Marble18MarbleInputHandler16staticMetaObjectE@Base 4:4.13.90
 _ZN6Marble18MarbleInputHandler18restoreViewContextEv@Base 4:4.13.90
 _ZN6Marble18MarbleInputHandler20mouseMoveGeoPositionE7QString@Base 4:4.13.90
 _ZN6Marble18MarbleInputHandler22setPanViaArrowsEnabledEb@Base 4:4.13.90
 _ZN6Marble18MarbleInputHandler24mouseClickScreenPositionEii@Base 4:4.13.90
 _ZN6Marble18MarbleInputHandler26setMouseButtonPopupEnabledEN2Qt11MouseButtonEb@Base 4:4.13.90
 _ZN6Marble18MarbleInputHandler26setPositionSignalConnectedEb@Base 4:4.13.90
 _ZN6Marble18MarbleInputHandler31setInertialEarthRotationEnabledEb@Base 4:4.13.90
 _ZN6Marble18MarbleInputHandler9ProtectedC1EPNS_23MarbleAbstractPresenterE@Base 4:4.13.90
 _ZN6Marble18MarbleInputHandler9ProtectedC2EPNS_23MarbleAbstractPresenterE@Base 4:4.13.90
 _ZN6Marble18MarbleInputHandlerC1EPNS_23MarbleAbstractPresenterE@Base 4:4.13.90
 _ZN6Marble18MarbleInputHandlerC2EPNS_23MarbleAbstractPresenterE@Base 4:4.13.90
 _ZN6Marble18MarbleInputHandlerD0Ev@Base 4:4.13.90
 _ZN6Marble18MarbleInputHandlerD1Ev@Base 4:4.13.90
 _ZN6Marble18MarbleInputHandlerD2Ev@Base 4:4.13.90
 _ZN6Marble18MovieCaptureDialog11qt_metacallEN11QMetaObject4CallEiPPv@Base 4:4.13.90
 _ZN6Marble18MovieCaptureDialog11qt_metacastEPKc@Base 4:4.13.90
 _ZN6Marble18MovieCaptureDialog13stopRecordingEv@Base 4:4.13.90
 _ZN6Marble18MovieCaptureDialog14startRecordingEv@Base 4:4.13.90
 _ZN6Marble18MovieCaptureDialog16staticMetaObjectE@Base 4:4.13.90
 _ZN6Marble18MovieCaptureDialog19loadDestinationFileEv@Base 4:4.13.90
 _ZN6Marble18MovieCaptureDialog7startedEv@Base 4:4.13.90
 _ZN6Marble18MovieCaptureDialogC1EPNS_12MarbleWidgetEP7QWidget@Base 4:4.13.90
 _ZN6Marble18MovieCaptureDialogC2EPNS_12MarbleWidgetEP7QWidget@Base 4:4.13.90
 _ZN6Marble18MovieCaptureDialogD0Ev@Base 4:4.13.90
 _ZN6Marble18MovieCaptureDialogD1Ev@Base 4:4.13.90
 _ZN6Marble18MovieCaptureDialogD2Ev@Base 4:4.13.90
 _ZN6Marble18PrintOptionsWidget11qt_metacallEN11QMetaObject4CallEiPPv@Base 4:4.13.90
 _ZN6Marble18PrintOptionsWidget11qt_metacastEPKc@Base 4:4.13.90
 _ZN6Marble18PrintOptionsWidget11setPrintMapEb@Base 4:4.13.90
 _ZN6Marble18PrintOptionsWidget14setPrintLegendEb@Base 4:4.13.90
 _ZN6Marble18PrintOptionsWidget16staticMetaObjectE@Base 4:4.13.90
 _ZN6Marble18PrintOptionsWidget18setPrintBackgroundEb@Base 4:4.13.90
 _ZN6Marble18PrintOptionsWidget20setPrintRouteSummaryEb@Base 4:4.13.90
 _ZN6Marble18PrintOptionsWidget23setRouteControlsEnabledEb@Base 4:4.13.90
 _ZN6Marble18PrintOptionsWidget24setLegendControlsEnabledEb@Base 4:4.13.90
 _ZN6Marble18PrintOptionsWidget27setPrintDrivingInstructionsEb@Base 4:4.13.90
 _ZN6Marble18PrintOptionsWidget28setBackgroundControlsEnabledEb@Base 4:4.13.90
 _ZN6Marble18PrintOptionsWidget33setPrintDrivingInstructionsAdviceEb@Base 4:4.13.90
 _ZN6Marble18PrintOptionsWidgetC1EP7QWidget6QFlagsIN2Qt10WindowTypeEE@Base 4:4.13.90
 _ZN6Marble18PrintOptionsWidgetC2EP7QWidget6QFlagsIN2Qt10WindowTypeEE@Base 4:4.13.90
 _ZN6Marble18PrintOptionsWidgetD0Ev@Base 4:4.13.90
 _ZN6Marble18PrintOptionsWidgetD1Ev@Base 4:4.13.90
 _ZN6Marble18PrintOptionsWidgetD2Ev@Base 4:4.13.90
 _ZN6Marble18RoutingInstruction11predecessorEv@Base 4:4.13.90
 _ZN6Marble18RoutingInstruction12setSuccessorEPS0_@Base 4:4.13.90
 _ZN6Marble18RoutingInstruction14calculateAngleEv@Base 4:4.13.90
 _ZN6Marble18RoutingInstruction14setPredecessorEPS0_@Base 4:4.13.90
 _ZN6Marble18RoutingInstruction17calculateTurnTypeEv@Base 4:4.13.90
 _ZN6Marble18RoutingInstruction23generateRoadInstructionENS0_8TurnTypeERK7QString@Base 4:4.13.90
 _ZN6Marble18RoutingInstruction6appendERKNS_15RoutingWaypointEi@Base 4:4.13.90
 _ZN6Marble18RoutingInstruction9successorEv@Base 4:4.13.90
 _ZN6Marble18RoutingInstructionC1ERKNS_15RoutingWaypointE@Base 4:4.13.90
 _ZN6Marble18RoutingInstructionC2ERKNS_15RoutingWaypointE@Base 4:4.13.90
 _ZN6Marble18ScreenGraphicsItem11eventFilterEP7QObjectP6QEvent@Base 4:4.13.90
 _ZN6Marble18ScreenGraphicsItem11setPositionERK7QPointF@Base 4:4.13.90
 _ZN6Marble18ScreenGraphicsItem1pEv@Base 4:4.13.90
 _ZN6Marble18ScreenGraphicsItem8setFlagsE6QFlagsINS0_16GraphicsItemFlagEE@Base 4:4.13.90
 _ZN6Marble18ScreenGraphicsItemC1EPNS_18MarbleGraphicsItemE@Base 4:4.13.90
 _ZN6Marble18ScreenGraphicsItemC1EPNS_25ScreenGraphicsItemPrivateE@Base 4:4.13.90
 _ZN6Marble18ScreenGraphicsItemC2EPNS_18MarbleGraphicsItemE@Base 4:4.13.90
 _ZN6Marble18ScreenGraphicsItemC2EPNS_25ScreenGraphicsItemPrivateE@Base 4:4.13.90
 _ZN6Marble18ScreenGraphicsItemD0Ev@Base 4:4.13.90
 _ZN6Marble18ScreenGraphicsItemD1Ev@Base 4:4.13.90
 _ZN6Marble18ScreenGraphicsItemD2Ev@Base 4:4.13.90
 _ZN6Marble18SearchRunnerPlugin11qt_metacallEN11QMetaObject4CallEiPPv@Base 4:4.13.90
 _ZN6Marble18SearchRunnerPlugin11qt_metacastEPKc@Base 4:4.13.90
 _ZN6Marble18SearchRunnerPlugin16staticMetaObjectE@Base 4:4.13.90
 _ZN6Marble18SearchRunnerPlugin17setCanWorkOfflineEb@Base 4:4.13.90
 _ZN6Marble18SearchRunnerPlugin27setSupportedCelestialBodiesERK11QStringList@Base 4:4.13.90
 _ZN6Marble18SearchRunnerPlugin7PrivateC1Ev@Base 4:4.13.90
 _ZN6Marble18SearchRunnerPlugin7PrivateC2Ev@Base 4:4.13.90
 _ZN6Marble18SearchRunnerPluginC1EP7QObject@Base 4:4.13.90
 _ZN6Marble18SearchRunnerPluginC2EP7QObject@Base 4:4.13.90
 _ZN6Marble18SearchRunnerPluginD0Ev@Base 4:4.13.90
 _ZN6Marble18SearchRunnerPluginD1Ev@Base 4:4.13.90
 _ZN6Marble18SearchRunnerPluginD2Ev@Base 4:4.13.90
 _ZN6Marble18WidgetGraphicsItem11eventFilterEP7QObjectP6QEvent@Base 4:4.13.90
 _ZN6Marble18WidgetGraphicsItem5paintEP8QPainter@Base 4:4.13.90
 _ZN6Marble18WidgetGraphicsItem9setWidgetEP7QWidget@Base 4:4.13.90
 _ZN6Marble18WidgetGraphicsItemC1EPNS_18MarbleGraphicsItemE@Base 4:4.13.90
 _ZN6Marble18WidgetGraphicsItemC2EPNS_18MarbleGraphicsItemE@Base 4:4.13.90
 _ZN6Marble18WidgetGraphicsItemD0Ev@Base 4:4.13.90
 _ZN6Marble18WidgetGraphicsItemD1Ev@Base 4:4.13.90
 _ZN6Marble18WidgetGraphicsItemD2Ev@Base 4:4.13.90
 _ZN6Marble19BookmarkSyncManager11qt_metacallEN11QMetaObject4CallEiPPv@Base 4:4.13.90
 _ZN6Marble19BookmarkSyncManager11qt_metacastEPKc@Base 4:4.13.90
 _ZN6Marble19BookmarkSyncManager12syncCompleteEv@Base 4:4.13.90
 _ZN6Marble19BookmarkSyncManager13mergeConflictEPNS_9MergeItemE@Base 4:4.13.90
 _ZN6Marble19BookmarkSyncManager14uploadProgressExx@Base 4:4.13.90
 _ZN6Marble19BookmarkSyncManager15resolveConflictEPNS_9MergeItemE@Base 4:4.13.90
 _ZN6Marble19BookmarkSyncManager16downloadProgressExx@Base 4:4.13.90
 _ZN6Marble19BookmarkSyncManager16staticMetaObjectE@Base 4:4.13.90
 _ZN6Marble19BookmarkSyncManager17startBookmarkSyncEv@Base 4:4.13.90
 _ZN6Marble19BookmarkSyncManager18setBookmarkManagerEPNS_15BookmarkManagerE@Base 4:4.13.90
 _ZN6Marble19BookmarkSyncManager22setBookmarkSyncEnabledEb@Base 4:4.13.90
 _ZN6Marble19BookmarkSyncManager26bookmarkSyncEnabledChangedEb@Base 4:4.13.90
 _ZN6Marble19BookmarkSyncManager7Private10clearCacheEv@Base 4:4.13.90
 _ZN6Marble19BookmarkSyncManager7Private13completeMergeEv@Base 4:4.13.90
 _ZN6Marble19BookmarkSyncManager7Private13createFoldersEPNS_16GeoDataContainerER11QStringList@Base 4:4.13.90
 _ZN6Marble19BookmarkSyncManager7Private13getPlacemarksEPNS_13GeoDataFolderER7QStringPNS_15GeoDataDocumentENS_8DiffItem6StatusE@Base 4:4.13.90
 _ZN6Marble19BookmarkSyncManager7Private13getPlacemarksEPNS_15GeoDataDocumentES3_NS_8DiffItem6StatusE@Base 4:4.13.90
 _ZN6Marble19BookmarkSyncManager7Private14completeUploadEv@Base 4:4.13.90
 _ZN6Marble19BookmarkSyncManager7Private14parseTimestampEv@Base 4:4.13.90
 _ZN6Marble19BookmarkSyncManager7Private15uploadBookmarksEv@Base 4:4.13.90
 _ZN6Marble19BookmarkSyncManager7Private16copyLocalToCacheEv@Base 4:4.13.90
 _ZN6Marble19BookmarkSyncManager7Private17constructDocumentERK5QListINS_8DiffItemEE@Base 4:4.13.90
 _ZN6Marble19BookmarkSyncManager7Private17downloadBookmarksEv@Base 4:4.13.90
 _ZN6Marble19BookmarkSyncManager7Private17downloadTimestampEv@Base 4:4.13.90
 _ZN6Marble19BookmarkSyncManager7Private21saveDownloadedToCacheERK10QByteArray@Base 4:4.13.90
 _ZN6Marble19BookmarkSyncManager7Private23completeSynchronizationEv@Base 4:4.13.90
 _ZN6Marble19BookmarkSyncManager7Private23continueSynchronizationEv@Base 4:4.13.90
 _ZN6Marble19BookmarkSyncManager7Private4diffEP9QIODeviceR7QString@Base 4:4.13.90
 _ZN6Marble19BookmarkSyncManager7Private4diffEP9QIODeviceS3_@Base 4:4.13.90
 _ZN6Marble19BookmarkSyncManager7Private4diffER7QStringP9QIODevice@Base 4:4.13.90
 _ZN6Marble19BookmarkSyncManager7Private4diffER7QStringS3_@Base 4:4.13.90
 _ZN6Marble19BookmarkSyncManager7Private5mergeEv@Base 4:4.13.90
 _ZN6Marble19BookmarkSyncManager7PrivateC1EPS0_PNS_16CloudSyncManagerE@Base 4:4.13.90
 _ZN6Marble19BookmarkSyncManager7PrivateC2EPS0_PNS_16CloudSyncManagerE@Base 4:4.13.90
 _ZN6Marble19BookmarkSyncManagerC1EPNS_16CloudSyncManagerE@Base 4:4.13.90
 _ZN6Marble19BookmarkSyncManagerC2EPNS_16CloudSyncManagerE@Base 4:4.13.90
 _ZN6Marble19BookmarkSyncManagerD0Ev@Base 4:4.13.90
 _ZN6Marble19BookmarkSyncManagerD1Ev@Base 4:4.13.90
 _ZN6Marble19BookmarkSyncManagerD2Ev@Base 4:4.13.90
 _ZN6Marble19GeoDataAbstractView11setTimeSpanERKNS_15GeoDataTimeSpanE@Base 4:4.13.90
 _ZN6Marble19GeoDataAbstractView12setTimeStampERKNS_16GeoDataTimeStampE@Base 4:4.13.90
 _ZN6Marble19GeoDataAbstractView15setAltitudeModeENS_12AltitudeModeE@Base 4:4.13.90
 _ZN6Marble19GeoDataAbstractView8timeSpanEv@Base 4:4.13.90
 _ZN6Marble19GeoDataAbstractView9timeStampEv@Base 4:4.13.90
 _ZN6Marble19GeoDataAbstractViewC1ERKS0_@Base 4:4.13.90
 _ZN6Marble19GeoDataAbstractViewC1Ev@Base 4:4.13.90
 _ZN6Marble19GeoDataAbstractViewC2ERKS0_@Base 4:4.13.90
 _ZN6Marble19GeoDataAbstractViewC2Ev@Base 4:4.13.90
 _ZN6Marble19GeoDataAbstractViewD0Ev@Base 4:4.13.90
 _ZN6Marble19GeoDataAbstractViewD1Ev@Base 4:4.13.90
 _ZN6Marble19GeoDataAbstractViewD2Ev@Base 4:4.13.90
 _ZN6Marble19GeoDataAbstractViewaSERKS0_@Base 4:4.13.90
 _ZN6Marble19GeoDataBalloonStyle12setTextColorERK6QColor@Base 4:4.13.90
 _ZN6Marble19GeoDataBalloonStyle14setDisplayModeERKNS0_11DisplayModeE@Base 4:4.13.90
 _ZN6Marble19GeoDataBalloonStyle18setBackgroundColorERK6QColor@Base 4:4.13.90
 _ZN6Marble19GeoDataBalloonStyle6unpackER11QDataStream@Base 4:4.13.90
 _ZN6Marble19GeoDataBalloonStyle7setTextERK7QString@Base 4:4.13.90
 _ZN6Marble19GeoDataBalloonStyleC1ERKS0_@Base 4:4.13.90
 _ZN6Marble19GeoDataBalloonStyleC1Ev@Base 4:4.13.90
 _ZN6Marble19GeoDataBalloonStyleC2ERKS0_@Base 4:4.13.90
 _ZN6Marble19GeoDataBalloonStyleC2Ev@Base 4:4.13.90
 _ZN6Marble19GeoDataBalloonStyleD0Ev@Base 4:4.13.90
 _ZN6Marble19GeoDataBalloonStyleD1Ev@Base 4:4.13.90
 _ZN6Marble19GeoDataBalloonStyleD2Ev@Base 4:4.13.90
 _ZN6Marble19GeoDataBalloonStyleaSERKS0_@Base 4:4.13.90
 _ZN6Marble19GeoDataExtendedData18setSimpleArrayDataERK7QStringPNS_22GeoDataSimpleArrayDataE@Base 4:4.13.90
 _ZN6Marble19GeoDataExtendedData6unpackER11QDataStream@Base 4:4.13.90
 _ZN6Marble19GeoDataExtendedData8addValueERKNS_11GeoDataDataE@Base 4:4.13.90
 _ZN6Marble19GeoDataExtendedDataC1ERKS0_@Base 4:4.13.90
 _ZN6Marble19GeoDataExtendedDataC1Ev@Base 4:4.13.90
 _ZN6Marble19GeoDataExtendedDataC2ERKS0_@Base 4:4.13.90
 _ZN6Marble19GeoDataExtendedDataC2Ev@Base 4:4.13.90
 _ZN6Marble19GeoDataExtendedDataD0Ev@Base 4:4.13.90
 _ZN6Marble19GeoDataExtendedDataD1Ev@Base 4:4.13.90
 _ZN6Marble19GeoDataExtendedDataD2Ev@Base 4:4.13.90
 _ZN6Marble19GeoDataExtendedDataaSERKS0_@Base 4:4.13.90
 _ZN6Marble19GeoDataImagePyramid11setMaxWidthERKi@Base 4:4.13.90
 _ZN6Marble19GeoDataImagePyramid11setTileSizeERKi@Base 4:4.13.90
 _ZN6Marble19GeoDataImagePyramid12setMaxHeightERKi@Base 4:4.13.90
 _ZN6Marble19GeoDataImagePyramid13setGridOriginERKNS0_10GridOriginE@Base 4:4.13.90
 _ZN6Marble19GeoDataImagePyramidC1ERKS0_@Base 4:4.13.90
 _ZN6Marble19GeoDataImagePyramidC1Ev@Base 4:4.13.90
 _ZN6Marble19GeoDataImagePyramidC2ERKS0_@Base 4:4.13.90
 _ZN6Marble19GeoDataImagePyramidC2Ev@Base 4:4.13.90
 _ZN6Marble19GeoDataImagePyramidD0Ev@Base 4:4.13.90
 _ZN6Marble19GeoDataImagePyramidD1Ev@Base 4:4.13.90
 _ZN6Marble19GeoDataImagePyramidD2Ev@Base 4:4.13.90
 _ZN6Marble19GeoDataImagePyramidaSERKS0_@Base 4:4.13.90
 _ZN6Marble19GeoDataImagePyramideqERKS0_@Base 4:4.13.90
 _ZN6Marble19GeoDataImagePyramidneERKS0_@Base 4:4.13.90
 _ZN6Marble19GeoDataLatLonAltBox14fromLineStringERKNS_17GeoDataLineStringE@Base 4:4.13.90
 (subst)_ZN6Marble19GeoDataLatLonAltBox14setMaxAltitudeE{qreal}@Base 4:4.13.90
 (subst)_ZN6Marble19GeoDataLatLonAltBox14setMinAltitudeE{qreal}@Base 4:4.13.90
 _ZN6Marble19GeoDataLatLonAltBox15setAltitudeModeENS_12AltitudeModeE@Base 4:4.13.90
 _ZN6Marble19GeoDataLatLonAltBox5clearEv@Base 4:4.13.90
 _ZN6Marble19GeoDataLatLonAltBox6unpackER11QDataStream@Base 4:4.13.90
 (subst)_ZN6Marble19GeoDataLatLonAltBoxC1ERKNS_16GeoDataLatLonBoxE{qreal}{qreal}@Base 4:4.13.90
 _ZN6Marble19GeoDataLatLonAltBoxC1ERKNS_18GeoDataCoordinatesE@Base 4:4.13.90
 _ZN6Marble19GeoDataLatLonAltBoxC1ERKS0_@Base 4:4.13.90
 _ZN6Marble19GeoDataLatLonAltBoxC1Ev@Base 4:4.13.90
 (subst)_ZN6Marble19GeoDataLatLonAltBoxC2ERKNS_16GeoDataLatLonBoxE{qreal}{qreal}@Base 4:4.13.90
 _ZN6Marble19GeoDataLatLonAltBoxC2ERKNS_18GeoDataCoordinatesE@Base 4:4.13.90
 _ZN6Marble19GeoDataLatLonAltBoxC2ERKS0_@Base 4:4.13.90
 _ZN6Marble19GeoDataLatLonAltBoxC2Ev@Base 4:4.13.90
 _ZN6Marble19GeoDataLatLonAltBoxD0Ev@Base 4:4.13.90
 _ZN6Marble19GeoDataLatLonAltBoxD1Ev@Base 4:4.13.90
 _ZN6Marble19GeoDataLatLonAltBoxD2Ev@Base 4:4.13.90
 _ZN6Marble19GeoDataLatLonAltBoxaSERKNS_18GeoDataCoordinatesE@Base 4:4.13.90
 _ZN6Marble19GeoDataLatLonAltBoxaSERKS0_@Base 4:4.13.90
 _ZN6Marble19GeoDataPhotoOverlay10viewVolumeEv@Base 4:4.13.90
 (subst)_ZN6Marble19GeoDataPhotoOverlay11setRotationE{qreal}@Base 4:4.13.90
 _ZN6Marble19GeoDataPhotoOverlay12imagePyramidEv@Base 4:4.13.90
 _ZN6Marble19GeoDataPhotoOverlay13setViewVolumeERKNS_17GeoDataViewVolumeE@Base 4:4.13.90
 _ZN6Marble19GeoDataPhotoOverlay15setImagePyramidERKNS_19GeoDataImagePyramidE@Base 4:4.13.90
 _ZN6Marble19GeoDataPhotoOverlay5pointEv@Base 4:4.13.90
 _ZN6Marble19GeoDataPhotoOverlay8setPointERKNS_12GeoDataPointE@Base 4:4.13.90
 _ZN6Marble19GeoDataPhotoOverlay8setShapeENS0_5ShapeE@Base 4:4.13.90
 _ZN6Marble19GeoDataPhotoOverlayC1ERKS0_@Base 4:4.13.90
 _ZN6Marble19GeoDataPhotoOverlayC1Ev@Base 4:4.13.90
 _ZN6Marble19GeoDataPhotoOverlayC2ERKS0_@Base 4:4.13.90
 _ZN6Marble19GeoDataPhotoOverlayC2Ev@Base 4:4.13.90
 _ZN6Marble19GeoDataPhotoOverlayD0Ev@Base 4:4.13.90
 _ZN6Marble19GeoDataPhotoOverlayD1Ev@Base 4:4.13.90
 _ZN6Marble19GeoDataPhotoOverlayD2Ev@Base 4:4.13.90
 _ZN6Marble19GeoDataPhotoOverlayaSERKS0_@Base 4:4.13.90
 _ZN6Marble19HttpDownloadManager10jobRemovedEv@Base 4:4.13.90
 _ZN6Marble19HttpDownloadManager11qt_metacallEN11QMetaObject4CallEiPPv@Base 4:4.13.90
 _ZN6Marble19HttpDownloadManager11qt_metacastEPKc@Base 4:4.13.90
 _ZN6Marble19HttpDownloadManager15connectQueueSetEPNS_16DownloadQueueSetE@Base 4:4.13.90
 _ZN6Marble19HttpDownloadManager15progressChangedEii@Base 4:4.13.90
 _ZN6Marble19HttpDownloadManager15startRetryTimerEv@Base 4:4.13.90
 _ZN6Marble19HttpDownloadManager16downloadCompleteE10QByteArray7QString@Base 4:4.13.90
 _ZN6Marble19HttpDownloadManager16downloadCompleteE7QStringS1_@Base 4:4.13.90
 _ZN6Marble19HttpDownloadManager16staticMetaObjectE@Base 4:4.13.90
 _ZN6Marble19HttpDownloadManager17addDownloadPolicyERKNS_14DownloadPolicyE@Base 4:4.13.90
 _ZN6Marble19HttpDownloadManager18setDownloadEnabledEb@Base 4:4.13.90
 _ZN6Marble19HttpDownloadManager23connectDefaultQueueSetsEv@Base 4:4.13.90
 _ZN6Marble19HttpDownloadManager6addJobERK4QUrlRK7QStringS6_NS_13DownloadUsageE@Base 4:4.13.90
 _ZN6Marble19HttpDownloadManager7Private10findQueuesERK7QStringNS_13DownloadUsageE@Base 4:4.13.90
 _ZN6Marble19HttpDownloadManager7PrivateC1EPNS_13StoragePolicyE@Base 4:4.13.90
 _ZN6Marble19HttpDownloadManager7PrivateC2EPNS_13StoragePolicyE@Base 4:4.13.90
 _ZN6Marble19HttpDownloadManager7PrivateD1Ev@Base 4:4.13.90
 _ZN6Marble19HttpDownloadManager7PrivateD2Ev@Base 4:4.13.90
 _ZN6Marble19HttpDownloadManager7requeueEv@Base 4:4.13.90
 _ZN6Marble19HttpDownloadManager8jobAddedEv@Base 4:4.13.90
 _ZN6Marble19HttpDownloadManager9finishJobERK10QByteArrayRK7QStringS6_@Base 4:4.13.90
 _ZN6Marble19HttpDownloadManagerC1EPNS_13StoragePolicyE@Base 4:4.13.90
 _ZN6Marble19HttpDownloadManagerC2EPNS_13StoragePolicyE@Base 4:4.13.90
 _ZN6Marble19HttpDownloadManagerD0Ev@Base 4:4.13.90
 _ZN6Marble19HttpDownloadManagerD1Ev@Base 4:4.13.90
 _ZN6Marble19HttpDownloadManagerD2Ev@Base 4:4.13.90
 _ZN6Marble19MarbleLegendBrowser10loadLegendEv@Base 4:4.13.90
 _ZN6Marble19MarbleLegendBrowser11qt_metacallEN11QMetaObject4CallEiPPv@Base 4:4.13.90
 _ZN6Marble19MarbleLegendBrowser11qt_metacastEPKc@Base 4:4.13.90
 _ZN6Marble19MarbleLegendBrowser13translateHtmlER7QString@Base 4:4.13.90
 _ZN6Marble19MarbleLegendBrowser14setMarbleModelEPNS_11MarbleModelE@Base 4:4.13.90
 _ZN6Marble19MarbleLegendBrowser15tourLinkClickedERK7QString@Base 4:4.13.90
 _ZN6Marble19MarbleLegendBrowser16staticMetaObjectE@Base 4:4.13.90
 _ZN6Marble19MarbleLegendBrowser18openLinkExternallyERK4QUrl@Base 4:4.13.90
 _ZN6Marble19MarbleLegendBrowser18setCheckedPropertyERK7QStringb@Base 4:4.13.90
 _ZN6Marble19MarbleLegendBrowser19toggledShowPropertyE7QStringb@Base 4:4.13.90
 _ZN6Marble19MarbleLegendBrowser20generateSectionsHtmlEv@Base 4:4.13.90
 _ZN6Marble19MarbleLegendBrowser21injectCheckBoxCheckerEv@Base 4:4.13.90
 _ZN6Marble19MarbleLegendBrowser23setRadioCheckedPropertyERK7QStringS3_b@Base 4:4.13.90
 _ZN6Marble19MarbleLegendBrowser24reverseSupportCheckboxesER7QString@Base 4:4.13.90
 _ZN6Marble19MarbleLegendBrowser5eventEP6QEvent@Base 4:4.13.90
 _ZN6Marble19MarbleLegendBrowser8readHtmlERK4QUrl@Base 4:4.13.90
 _ZN6Marble19MarbleLegendBrowser9initThemeEv@Base 4:4.13.90
 _ZN6Marble19MarbleLegendBrowserC1EP7QWidget@Base 4:4.13.90
 _ZN6Marble19MarbleLegendBrowserC2EP7QWidget@Base 4:4.13.90
 _ZN6Marble19MarbleLegendBrowserD0Ev@Base 4:4.13.90
 _ZN6Marble19MarbleLegendBrowserD1Ev@Base 4:4.13.90
 _ZN6Marble19MarbleLegendBrowserD2Ev@Base 4:4.13.90
 _ZN6Marble19RoutingRunnerPlugin11qt_metacallEN11QMetaObject4CallEiPPv@Base 4:4.13.90
 _ZN6Marble19RoutingRunnerPlugin11qt_metacastEPKc@Base 4:4.13.90
 _ZN6Marble19RoutingRunnerPlugin12configWidgetEv@Base 4:4.13.90
 _ZN6Marble19RoutingRunnerPlugin16setStatusMessageERK7QString@Base 4:4.13.90
 _ZN6Marble19RoutingRunnerPlugin16staticMetaObjectE@Base 4:4.13.90
 _ZN6Marble19RoutingRunnerPlugin17setCanWorkOfflineEb@Base 4:4.13.90
 _ZN6Marble19RoutingRunnerPlugin27setSupportedCelestialBodiesERK11QStringList@Base 4:4.13.90
 _ZN6Marble19RoutingRunnerPlugin7PrivateC1Ev@Base 4:4.13.90
 _ZN6Marble19RoutingRunnerPlugin7PrivateC2Ev@Base 4:4.13.90
 _ZN6Marble19RoutingRunnerPluginC1EP7QObject@Base 4:4.13.90
 _ZN6Marble19RoutingRunnerPluginC2EP7QObject@Base 4:4.13.90
 _ZN6Marble19RoutingRunnerPluginD0Ev@Base 4:4.13.90
 _ZN6Marble19RoutingRunnerPluginD1Ev@Base 4:4.13.90
 _ZN6Marble19RoutingRunnerPluginD2Ev@Base 4:4.13.90
 _ZN6Marble19SearchRunnerManager11qt_metacallEN11QMetaObject4CallEiPPv@Base 4:4.13.90
 _ZN6Marble19SearchRunnerManager11qt_metacastEPKc@Base 4:4.13.90
 _ZN6Marble19SearchRunnerManager14findPlacemarksERK7QStringRKNS_16GeoDataLatLonBoxE@Base 4:4.13.90
 _ZN6Marble19SearchRunnerManager14searchFinishedERK7QString@Base 4:4.13.90
 _ZN6Marble19SearchRunnerManager16searchPlacemarksERK7QStringRKNS_16GeoDataLatLonBoxEi@Base 4:4.13.90
 _ZN6Marble19SearchRunnerManager16staticMetaObjectE@Base 4:4.13.90
 _ZN6Marble19SearchRunnerManager19searchResultChangedEP18QAbstractItemModel@Base 4:4.13.90
 _ZN6Marble19SearchRunnerManager19searchResultChangedERK7QVectorIPNS_16GeoDataPlacemarkEE@Base 4:4.13.90
 _ZN6Marble19SearchRunnerManager23placemarkSearchFinishedEv@Base 4:4.13.90
 _ZN6Marble19SearchRunnerManager7Private15addSearchResultERK7QVectorIPNS_16GeoDataPlacemarkEE@Base 4:4.13.90
 _ZN6Marble19SearchRunnerManager7Private17cleanupSearchTaskEPNS_10SearchTaskE@Base 4:4.13.90
 _ZN6Marble19SearchRunnerManager7PrivateC1EPS0_PKNS_11MarbleModelE@Base 4:4.13.90
 _ZN6Marble19SearchRunnerManager7PrivateC2EPS0_PKNS_11MarbleModelE@Base 4:4.13.90
 _ZN6Marble19SearchRunnerManagerC1EPKNS_11MarbleModelEP7QObject@Base 4:4.13.90
 _ZN6Marble19SearchRunnerManagerC2EPKNS_11MarbleModelEP7QObject@Base 4:4.13.90
 _ZN6Marble19SearchRunnerManagerD0Ev@Base 4:4.13.90
 _ZN6Marble19SearchRunnerManagerD1Ev@Base 4:4.13.90
 _ZN6Marble19SearchRunnerManagerD2Ev@Base 4:4.13.90
 _ZN6Marble20AbstractWorkerThread11qt_metacallEN11QMetaObject4CallEiPPv@Base 4:4.13.90
 _ZN6Marble20AbstractWorkerThread11qt_metacastEPKc@Base 4:4.13.90
 _ZN6Marble20AbstractWorkerThread13ensureRunningEv@Base 4:4.13.90
 _ZN6Marble20AbstractWorkerThread16staticMetaObjectE@Base 4:4.13.90
 _ZN6Marble20AbstractWorkerThread3runEv@Base 4:4.13.90
 _ZN6Marble20AbstractWorkerThreadC1EP7QObject@Base 4:4.13.90
 _ZN6Marble20AbstractWorkerThreadC2EP7QObject@Base 4:4.13.90
 _ZN6Marble20AbstractWorkerThreadD0Ev@Base 4:4.13.90
 _ZN6Marble20AbstractWorkerThreadD1Ev@Base 4:4.13.90
 _ZN6Marble20AbstractWorkerThreadD2Ev@Base 4:4.13.90
 _ZN6Marble20DownloadRegionDialog11qt_metacallEN11QMetaObject4CallEiPPv@Base 4:4.13.90
 _ZN6Marble20DownloadRegionDialog11qt_metacastEPKc@Base 4:4.13.90
 _ZN6Marble20DownloadRegionDialog13setOffsetUnitEv@Base 4:4.13.90
 _ZN6Marble20DownloadRegionDialog16staticMetaObjectE@Base 4:4.13.90
 _ZN6Marble20DownloadRegionDialog16updateTilesCountEv@Base 4:4.13.90
 _ZN6Marble20DownloadRegionDialog17updateRouteDialogEv@Base 4:4.13.90
 _ZN6Marble20DownloadRegionDialog18setSelectionMethodENS0_15SelectionMethodE@Base 4:4.13.90
 _ZN6Marble20DownloadRegionDialog18updateTextureLayerEv@Base 4:4.13.90
 _ZN6Marble20DownloadRegionDialog19setVisibleTileLevelEi@Base 4:4.13.90
 _ZN6Marble20DownloadRegionDialog21toggleSelectionMethodEv@Base 4:4.13.90
 _ZN6Marble20DownloadRegionDialog22setVisibleLatLonAltBoxERKNS_19GeoDataLatLonAltBoxE@Base 4:4.13.90
 _ZN6Marble20DownloadRegionDialog24setAllowedTileLevelRangeEii@Base 4:4.13.90
 _ZN6Marble20DownloadRegionDialog24setSpecifiedLatLonAltBoxERKNS_19GeoDataLatLonAltBoxE@Base 4:4.13.90
 _ZN6Marble20DownloadRegionDialog5shownEv@Base 4:4.13.90
 _ZN6Marble20DownloadRegionDialog6hiddenEv@Base 4:4.13.90
 _ZN6Marble20DownloadRegionDialog7Private18createTilesCounterEv@Base 4:4.13.90
 _ZN6Marble20DownloadRegionDialog7Private23createOkCancelButtonBoxEv@Base 4:4.13.90
 _ZN6Marble20DownloadRegionDialog7Private24createSelectionMethodBoxEv@Base 4:4.13.90
 _ZN6Marble20DownloadRegionDialog7PrivateC1EPNS_12MarbleWidgetEP7QDialog@Base 4:4.13.90
 _ZN6Marble20DownloadRegionDialog7PrivateC2EPNS_12MarbleWidgetEP7QDialog@Base 4:4.13.90
 _ZN6Marble20DownloadRegionDialog7appliedEv@Base 4:4.13.90
 _ZN6Marble20DownloadRegionDialog9hideEventEP10QHideEvent@Base 4:4.13.90
 _ZN6Marble20DownloadRegionDialog9showEventEP10QShowEvent@Base 4:4.13.90
 _ZN6Marble20DownloadRegionDialogC1EPNS_12MarbleWidgetEP7QWidget6QFlagsIN2Qt10WindowTypeEE@Base 4:4.13.90
 _ZN6Marble20DownloadRegionDialogC2EPNS_12MarbleWidgetEP7QWidget6QFlagsIN2Qt10WindowTypeEE@Base 4:4.13.90
 _ZN6Marble20DownloadRegionDialogD0Ev@Base 4:4.13.90
 _ZN6Marble20DownloadRegionDialogD1Ev@Base 4:4.13.90
 _ZN6Marble20DownloadRegionDialogD2Ev@Base 4:4.13.90
 _ZN6Marble20ExternalEditorDialog11qt_metacallEN11QMetaObject4CallEiPPv@Base 4:4.13.90
 _ZN6Marble20ExternalEditorDialog11qt_metacastEPKc@Base 4:4.13.90
 _ZN6Marble20ExternalEditorDialog16staticMetaObjectE@Base 4:4.13.90
 _ZN6Marble20ExternalEditorDialog19updateDefaultEditorEi@Base 4:4.13.90
 _ZN6Marble20ExternalEditorDialogC1EP7QWidget6QFlagsIN2Qt10WindowTypeEE@Base 4:4.13.90
 _ZN6Marble20ExternalEditorDialogC2EP7QWidget6QFlagsIN2Qt10WindowTypeEE@Base 4:4.13.90
 _ZN6Marble20ExternalEditorDialogD0Ev@Base 4:4.13.90
 _ZN6Marble20ExternalEditorDialogD1Ev@Base 4:4.13.90
 _ZN6Marble20ExternalEditorDialogD2Ev@Base 4:4.13.90
 _ZN6Marble20GeoDataGroundOverlay10latLonQuadEv@Base 4:4.13.90
 _ZN6Marble20GeoDataGroundOverlay11setAltitudeEd@Base 4:4.13.90
 _ZN6Marble20GeoDataGroundOverlay12setLatLonBoxERKNS_16GeoDataLatLonBoxE@Base 4:4.13.90
 _ZN6Marble20GeoDataGroundOverlay13setLatLonQuadERKNS_17GeoDataLatLonQuadE@Base 4:4.13.90
 _ZN6Marble20GeoDataGroundOverlay15setAltitudeModeENS_12AltitudeModeE@Base 4:4.13.90
 _ZN6Marble20GeoDataGroundOverlayC1ERKS0_@Base 4:4.13.90
 _ZN6Marble20GeoDataGroundOverlayC1Ev@Base 4:4.13.90
 _ZN6Marble20GeoDataGroundOverlayC2ERKS0_@Base 4:4.13.90
 _ZN6Marble20GeoDataGroundOverlayC2Ev@Base 4:4.13.90
 _ZN6Marble20GeoDataGroundOverlayD0Ev@Base 4:4.13.90
 _ZN6Marble20GeoDataGroundOverlayD1Ev@Base 4:4.13.90
 _ZN6Marble20GeoDataGroundOverlayD2Ev@Base 4:4.13.90
 _ZN6Marble20GeoDataGroundOverlayaSERKS0_@Base 4:4.13.90
 _ZN6Marble20GeoDataMultiGeometry1pEv@Base 4:4.13.90
 _ZN6Marble20GeoDataMultiGeometry2atEi@Base 4:4.13.90
 _ZN6Marble20GeoDataMultiGeometry3endEv@Base 4:4.13.90
 _ZN6Marble20GeoDataMultiGeometry4lastEv@Base 4:4.13.90
 _ZN6Marble20GeoDataMultiGeometry5beginEv@Base 4:4.13.90
 _ZN6Marble20GeoDataMultiGeometry5childEi@Base 4:4.13.90
 _ZN6Marble20GeoDataMultiGeometry5clearEv@Base 4:4.13.90
 _ZN6Marble20GeoDataMultiGeometry5firstEv@Base 4:4.13.90
 _ZN6Marble20GeoDataMultiGeometry6appendEPNS_15GeoDataGeometryE@Base 4:4.13.90
 _ZN6Marble20GeoDataMultiGeometry6unpackER11QDataStream@Base 4:4.13.90
 _ZN6Marble20GeoDataMultiGeometryC1ERKNS_15GeoDataGeometryE@Base 4:4.13.90
 _ZN6Marble20GeoDataMultiGeometryC1Ev@Base 4:4.13.90
 _ZN6Marble20GeoDataMultiGeometryC2ERKNS_15GeoDataGeometryE@Base 4:4.13.90
 _ZN6Marble20GeoDataMultiGeometryC2Ev@Base 4:4.13.90
 _ZN6Marble20GeoDataMultiGeometryD0Ev@Base 4:4.13.90
 _ZN6Marble20GeoDataMultiGeometryD1Ev@Base 4:4.13.90
 _ZN6Marble20GeoDataMultiGeometryD2Ev@Base 4:4.13.90
 _ZN6Marble20GeoDataMultiGeometryixEi@Base 4:4.13.90
 _ZN6Marble20GeoDataMultiGeometrylsERKNS_15GeoDataGeometryE@Base 4:4.13.90
 (subst)_ZN6Marble20GeoDataScreenOverlay11setRotationE{qreal}@Base 4:4.13.90
 _ZN6Marble20GeoDataScreenOverlay11setScreenXYERKNS_11GeoDataVec2E@Base 4:4.13.90
 (subst)_ZN6Marble20GeoDataScreenOverlay11setScreenXYERK{qreal}S2_RKNS_11GeoDataVec24UnitES6_@Base 4:4.13.90
 _ZN6Marble20GeoDataScreenOverlay12setOverlayXYERKNS_11GeoDataVec2E@Base 4:4.13.90
 (subst)_ZN6Marble20GeoDataScreenOverlay12setOverlayXYERK{qreal}S2_RKNS_11GeoDataVec24UnitES6_@Base 4:4.13.90
 _ZN6Marble20GeoDataScreenOverlay13setRotationXYERKNS_11GeoDataVec2E@Base 4:4.13.90
 (subst)_ZN6Marble20GeoDataScreenOverlay13setRotationXYERK{qreal}S2_RKNS_11GeoDataVec24UnitES6_@Base 4:4.13.90
 _ZN6Marble20GeoDataScreenOverlay7setSizeERKNS_11GeoDataVec2E@Base 4:4.13.90
 (subst)_ZN6Marble20GeoDataScreenOverlay7setSizeERK{qreal}S2_RKNS_11GeoDataVec24UnitES6_@Base 4:4.13.90
 _ZN6Marble20GeoDataScreenOverlayC1ERKS0_@Base 4:4.13.90
 _ZN6Marble20GeoDataScreenOverlayC1Ev@Base 4:4.13.90
 _ZN6Marble20GeoDataScreenOverlayC2ERKS0_@Base 4:4.13.90
 _ZN6Marble20GeoDataScreenOverlayC2Ev@Base 4:4.13.90
 _ZN6Marble20GeoDataScreenOverlayD0Ev@Base 4:4.13.90
 _ZN6Marble20GeoDataScreenOverlayD1Ev@Base 4:4.13.90
 _ZN6Marble20GeoDataScreenOverlayD2Ev@Base 4:4.13.90
 _ZN6Marble20GeoDataScreenOverlayaSERKS0_@Base 4:4.13.90
 _ZN6Marble20GeoDataStyleSelector6unpackER11QDataStream@Base 4:4.13.90
 _ZN6Marble20GeoDataStyleSelectorC1ERKS0_@Base 4:4.13.90
 _ZN6Marble20GeoDataStyleSelectorC1Ev@Base 4:4.13.90
 _ZN6Marble20GeoDataStyleSelectorC2ERKS0_@Base 4:4.13.90
 _ZN6Marble20GeoDataStyleSelectorC2Ev@Base 4:4.13.90
 _ZN6Marble20GeoDataStyleSelectorD0Ev@Base 4:4.13.90
 _ZN6Marble20GeoDataStyleSelectorD1Ev@Base 4:4.13.90
 _ZN6Marble20GeoDataStyleSelectorD2Ev@Base 4:4.13.90
 _ZN6Marble20GeoDataStyleSelectoraSERKS0_@Base 4:4.13.90
 _ZN6Marble20GeoDataTimePrimitive6unpackER11QDataStream@Base 4:4.13.90
 _ZN6Marble20GeoDataTimePrimitiveC1ERKS0_@Base 4:4.13.90
 _ZN6Marble20GeoDataTimePrimitiveC1Ev@Base 4:4.13.90
 _ZN6Marble20GeoDataTimePrimitiveC2ERKS0_@Base 4:4.13.90
 _ZN6Marble20GeoDataTimePrimitiveC2Ev@Base 4:4.13.90
 _ZN6Marble20GeoDataTimePrimitiveD0Ev@Base 4:4.13.90
 _ZN6Marble20GeoDataTimePrimitiveD1Ev@Base 4:4.13.90
 _ZN6Marble20GeoDataTimePrimitiveD2Ev@Base 4:4.13.90
 _ZN6Marble20GeoDataTimePrimitiveaSERKS0_@Base 4:4.13.90
 _ZN6Marble20GeoPhotoGraphicsItem12setPhotoFileERK7QString@Base 4:4.13.90
 _ZN6Marble20GeoPhotoGraphicsItem5paintEPNS_10GeoPainterEPKNS_14ViewportParamsE@Base 4:4.13.90
 _ZN6Marble20GeoPhotoGraphicsItem8setPhotoERK6QImage@Base 4:4.13.90
 _ZN6Marble20GeoPhotoGraphicsItem8setPointERKNS_12GeoDataPointE@Base 4:4.13.90
 _ZN6Marble20GeoPhotoGraphicsItemC1EPKNS_14GeoDataFeatureE@Base 4:4.13.90
 _ZN6Marble20GeoPhotoGraphicsItemC2EPKNS_14GeoDataFeatureE@Base 4:4.13.90
 _ZN6Marble20GeoPhotoGraphicsItemD0Ev@Base 4:4.13.90
 _ZN6Marble20GeoPhotoGraphicsItemD1Ev@Base 4:4.13.90
 _ZN6Marble20GeoPhotoGraphicsItemD2Ev@Base 4:4.13.90
 _ZN6Marble20GeoPointGraphicsItem5paintEPNS_10GeoPainterEPKNS_14ViewportParamsE@Base 4:4.13.90
 _ZN6Marble20GeoPointGraphicsItem8setPointERKNS_12GeoDataPointE@Base 4:4.13.90
 _ZN6Marble20GeoPointGraphicsItemC1EPKNS_14GeoDataFeatureE@Base 4:4.13.90
 _ZN6Marble20GeoPointGraphicsItemC2EPKNS_14GeoDataFeatureE@Base 4:4.13.90
 _ZN6Marble20GeoPointGraphicsItemD0Ev@Base 4:4.13.90
 _ZN6Marble20GeoPointGraphicsItemD1Ev@Base 4:4.13.90
 _ZN6Marble20GeoPointGraphicsItemD2Ev@Base 4:4.13.90
 _ZN6Marble20GeoTrackGraphicsItem5paintEPNS_10GeoPainterEPKNS_14ViewportParamsE@Base 4:4.13.90
 _ZN6Marble20GeoTrackGraphicsItem6updateEv@Base 4:4.13.90
 _ZN6Marble20GeoTrackGraphicsItem8setTrackEPKNS_12GeoDataTrackE@Base 4:4.13.90
 _ZN6Marble20GeoTrackGraphicsItemC1EPKNS_14GeoDataFeatureEPKNS_12GeoDataTrackE@Base 4:4.13.90
 _ZN6Marble20GeoTrackGraphicsItemC2EPKNS_14GeoDataFeatureEPKNS_12GeoDataTrackE@Base 4:4.13.90
 _ZN6Marble20GeoTrackGraphicsItemD0Ev@Base 4:4.13.90
 _ZN6Marble20GeoTrackGraphicsItemD1Ev@Base 4:4.13.90
 _ZN6Marble20GeoTrackGraphicsItemD2Ev@Base 4:4.13.90
 _ZN6Marble20MarblePlacemarkModel11qt_metacallEN11QMetaObject4CallEiPPv@Base 4:4.13.90
 _ZN6Marble20MarblePlacemarkModel11qt_metacastEPKc@Base 4:4.13.90
 _ZN6Marble20MarblePlacemarkModel12countChangedEv@Base 4:4.13.90
 _ZN6Marble20MarblePlacemarkModel13addPlacemarksEii@Base 4:4.13.90
 _ZN6Marble20MarblePlacemarkModel16removePlacemarksERK7QStringii@Base 4:4.13.90
 _ZN6Marble20MarblePlacemarkModel16staticMetaObjectE@Base 4:4.13.90
 _ZN6Marble20MarblePlacemarkModel21setPlacemarkContainerEP7QVectorIPNS_16GeoDataPlacemarkEE@Base 4:4.13.90
 _ZN6Marble20MarblePlacemarkModelC1EP7QObject@Base 4:4.13.90
 _ZN6Marble20MarblePlacemarkModelC2EP7QObject@Base 4:4.13.90
 _ZN6Marble20MarblePlacemarkModelD0Ev@Base 4:4.13.90
 _ZN6Marble20MarblePlacemarkModelD1Ev@Base 4:4.13.90
 _ZN6Marble20MarblePlacemarkModelD2Ev@Base 4:4.13.90
 _ZN6Marble20ParsingRunnerManager11qt_metacallEN11QMetaObject4CallEiPPv@Base 4:4.13.90
 _ZN6Marble20ParsingRunnerManager11qt_metacastEPKc@Base 4:4.13.90
 _ZN6Marble20ParsingRunnerManager15parsingFinishedEPNS_15GeoDataDocumentERK7QString@Base 4:4.13.90
 _ZN6Marble20ParsingRunnerManager15parsingFinishedEv@Base 4:4.13.90
 _ZN6Marble20ParsingRunnerManager16staticMetaObjectE@Base 4:4.13.90
 _ZN6Marble20ParsingRunnerManager7Private16addParsingResultEPNS_15GeoDataDocumentERK7QString@Base 4:4.13.90
 _ZN6Marble20ParsingRunnerManager7Private18cleanupParsingTaskEPNS_11ParsingTaskE@Base 4:4.13.90
 _ZN6Marble20ParsingRunnerManager7PrivateC1EPS0_PKNS_13PluginManagerE@Base 4:4.13.90
 _ZN6Marble20ParsingRunnerManager7PrivateC2EPS0_PKNS_13PluginManagerE@Base 4:4.13.90
 _ZN6Marble20ParsingRunnerManager7PrivateD1Ev@Base 4:4.13.90
 _ZN6Marble20ParsingRunnerManager7PrivateD2Ev@Base 4:4.13.90
 _ZN6Marble20ParsingRunnerManager8openFileERK7QStringNS_12DocumentRoleEi@Base 4:4.13.90
 _ZN6Marble20ParsingRunnerManager9parseFileERK7QStringNS_12DocumentRoleE@Base 4:4.13.90
 _ZN6Marble20ParsingRunnerManagerC1EPKNS_13PluginManagerEP7QObject@Base 4:4.13.90
 _ZN6Marble20ParsingRunnerManagerC2EPKNS_13PluginManagerEP7QObject@Base 4:4.13.90
 _ZN6Marble20ParsingRunnerManagerD0Ev@Base 4:4.13.90
 _ZN6Marble20ParsingRunnerManagerD1Ev@Base 4:4.13.90
 _ZN6Marble20ParsingRunnerManagerD2Ev@Base 4:4.13.90
 _ZN6Marble20QtMarbleConfigDialog11qt_metacallEN11QMetaObject4CallEiPPv@Base 4:4.13.90
 _ZN6Marble20QtMarbleConfigDialog11qt_metacastEPKc@Base 4:4.13.90
 _ZN6Marble20QtMarbleConfigDialog12readSettingsEv@Base 4:4.13.90
 _ZN6Marble20QtMarbleConfigDialog12syncSettingsEv@Base 4:4.13.90
 _ZN6Marble20QtMarbleConfigDialog13enableSyncNowEv@Base 4:4.13.90
 _ZN6Marble20QtMarbleConfigDialog13writeSettingsEv@Base 4:4.13.90
 _ZN6Marble20QtMarbleConfigDialog14disableSyncNowEv@Base 4:4.13.90
 _ZN6Marble20QtMarbleConfigDialog14syncNowClickedEv@Base 4:4.13.90
 _ZN6Marble20QtMarbleConfigDialog14updateLastSyncEv@Base 4:4.13.90
 _ZN6Marble20QtMarbleConfigDialog15settingsChangedEv@Base 4:4.13.90
 _ZN6Marble20QtMarbleConfigDialog16staticMetaObjectE@Base 4:4.13.90
 _ZN6Marble20QtMarbleConfigDialog21updateCloudSyncStatusERK7QString@Base 4:4.13.90
 _ZN6Marble20QtMarbleConfigDialog24initializeCustomTimezoneEv@Base 4:4.13.90
 _ZN6Marble20QtMarbleConfigDialog25clearVolatileCacheClickedEv@Base 4:4.13.90
 _ZN6Marble20QtMarbleConfigDialog26updateCloudSyncCredentialsEv@Base 4:4.13.90
 _ZN6Marble20QtMarbleConfigDialog27clearPersistentCacheClickedEv@Base 4:4.13.90
 _ZN6Marble20QtMarbleConfigDialogC1EPNS_12MarbleWidgetEPNS_16CloudSyncManagerEP7QWidget@Base 4:4.13.90
 _ZN6Marble20QtMarbleConfigDialogC2EPNS_12MarbleWidgetEPNS_16CloudSyncManagerEP7QWidget@Base 4:4.13.90
 _ZN6Marble20QtMarbleConfigDialogD0Ev@Base 4:4.13.90
 _ZN6Marble20QtMarbleConfigDialogD1Ev@Base 4:4.13.90
 _ZN6Marble20QtMarbleConfigDialogD2Ev@Base 4:4.13.90
 _ZN6Marble20RoutingProfilesModel10addProfileERK7QString@Base 4:4.13.90
 _ZN6Marble20RoutingProfilesModel10removeRowsEiiRK11QModelIndex@Base 4:4.13.90
 _ZN6Marble20RoutingProfilesModel11qt_metacallEN11QMetaObject4CallEiPPv@Base 4:4.13.90
 _ZN6Marble20RoutingProfilesModel11qt_metacastEPKc@Base 4:4.13.90
 _ZN6Marble20RoutingProfilesModel11setProfilesERK5QListINS_14RoutingProfileEE@Base 4:4.13.90
 _ZN6Marble20RoutingProfilesModel14setProfileNameEiRK7QString@Base 4:4.13.90
 _ZN6Marble20RoutingProfilesModel16staticMetaObjectE@Base 4:4.13.90
 _ZN6Marble20RoutingProfilesModel19loadDefaultProfilesEv@Base 4:4.13.90
 _ZN6Marble20RoutingProfilesModel24setProfilePluginSettingsEiRK5QHashI7QStringS1_IS2_8QVariantEE@Base 4:4.13.90
 _ZN6Marble20RoutingProfilesModel6moveUpEi@Base 4:4.13.90
 _ZN6Marble20RoutingProfilesModel8moveDownEi@Base 4:4.13.90
 _ZN6Marble20RoutingProfilesModelC1EPKNS_13PluginManagerEP7QObject@Base 4:4.13.90
 _ZN6Marble20RoutingProfilesModelC2EPKNS_13PluginManagerEP7QObject@Base 4:4.13.90
 _ZN6Marble20RoutingProfilesModelD0Ev@Base 4:4.13.90
 _ZN6Marble20RoutingProfilesModelD1Ev@Base 4:4.13.90
 _ZN6Marble20RoutingProfilesModelD2Ev@Base 4:4.13.90
 _ZN6Marble20RoutingRunnerManager11qt_metacallEN11QMetaObject4CallEiPPv@Base 4:4.13.90
 _ZN6Marble20RoutingRunnerManager11qt_metacastEPKc@Base 4:4.13.90
 _ZN6Marble20RoutingRunnerManager11searchRouteEPKNS_12RouteRequestEi@Base 4:4.13.90
 _ZN6Marble20RoutingRunnerManager13retrieveRouteEPKNS_12RouteRequestE@Base 4:4.13.90
 _ZN6Marble20RoutingRunnerManager14routeRetrievedEPNS_15GeoDataDocumentE@Base 4:4.13.90
 _ZN6Marble20RoutingRunnerManager15routingFinishedEv@Base 4:4.13.90
 _ZN6Marble20RoutingRunnerManager16staticMetaObjectE@Base 4:4.13.90
 _ZN6Marble20RoutingRunnerManager7Private16addRoutingResultEPNS_15GeoDataDocumentE@Base 4:4.13.90
 _ZN6Marble20RoutingRunnerManager7Private18cleanupRoutingTaskEPNS_11RoutingTaskE@Base 4:4.13.90
 _ZN6Marble20RoutingRunnerManager7PrivateC1EPS0_PKNS_11MarbleModelE@Base 4:4.13.90
 _ZN6Marble20RoutingRunnerManager7PrivateC2EPS0_PKNS_11MarbleModelE@Base 4:4.13.90
 _ZN6Marble20RoutingRunnerManager7PrivateD1Ev@Base 4:4.13.90
 _ZN6Marble20RoutingRunnerManager7PrivateD2Ev@Base 4:4.13.90
 _ZN6Marble20RoutingRunnerManagerC1EPKNS_11MarbleModelEP7QObject@Base 4:4.13.90
 _ZN6Marble20RoutingRunnerManagerC2EPKNS_11MarbleModelEP7QObject@Base 4:4.13.90
 _ZN6Marble20RoutingRunnerManagerD0Ev@Base 4:4.13.90
 _ZN6Marble20RoutingRunnerManagerD1Ev@Base 4:4.13.90
 _ZN6Marble20RoutingRunnerManagerD2Ev@Base 4:4.13.90
 _ZN6Marble20TileLevelRangeWidget11qt_metacallEN11QMetaObject4CallEiPPv@Base 4:4.13.90
 _ZN6Marble20TileLevelRangeWidget11qt_metacastEPKc@Base 4:4.13.90
 _ZN6Marble20TileLevelRangeWidget15setDefaultLevelEi@Base 4:4.13.90
 _ZN6Marble20TileLevelRangeWidget15topLevelChangedEi@Base 4:4.13.90
 _ZN6Marble20TileLevelRangeWidget16staticMetaObjectE@Base 4:4.13.90
 _ZN6Marble20TileLevelRangeWidget18bottomLevelChangedEi@Base 4:4.13.90
 _ZN6Marble20TileLevelRangeWidget18setMaximumTopLevelEi@Base 4:4.13.90
 _ZN6Marble20TileLevelRangeWidget20setAllowedLevelRangeEii@Base 4:4.13.90
 _ZN6Marble20TileLevelRangeWidget21setMinimumBottomLevelEi@Base 4:4.13.90
 _ZN6Marble20TileLevelRangeWidget7PrivateC1EP7QWidget@Base 4:4.13.90
 _ZN6Marble20TileLevelRangeWidget7PrivateC2EP7QWidget@Base 4:4.13.90
 _ZN6Marble20TileLevelRangeWidgetC1EP7QWidget6QFlagsIN2Qt10WindowTypeEE@Base 4:4.13.90
 _ZN6Marble20TileLevelRangeWidgetC2EP7QWidget6QFlagsIN2Qt10WindowTypeEE@Base 4:4.13.90
 _ZN6Marble20TileLevelRangeWidgetD0Ev@Base 4:4.13.90
 _ZN6Marble20TileLevelRangeWidgetD1Ev@Base 4:4.13.90
 _ZN6Marble20TileLevelRangeWidgetD2Ev@Base 4:4.13.90
 _ZN6Marble20VoiceNavigationModel10setSpeakerERK7QString@Base 4:4.13.90
 _ZN6Marble20VoiceNavigationModel11qt_metacallEN11QMetaObject4CallEiPPv@Base 4:4.13.90
 _ZN6Marble20VoiceNavigationModel11qt_metacastEPKc@Base 4:4.13.90
 _ZN6Marble20VoiceNavigationModel14previewChangedEv@Base 4:4.13.90
 _ZN6Marble20VoiceNavigationModel14speakerChangedEv@Base 4:4.13.90
 _ZN6Marble20VoiceNavigationModel16staticMetaObjectE@Base 4:4.13.90
 _ZN6Marble20VoiceNavigationModel17setSpeakerEnabledEb@Base 4:4.13.90
 _ZN6Marble20VoiceNavigationModel18instructionChangedEv@Base 4:4.13.90
 _ZN6Marble20VoiceNavigationModel23isSpeakerEnabledChangedEv@Base 4:4.13.90
 _ZN6Marble20VoiceNavigationModel26handleTrackingStatusChangeENS_22PositionProviderStatusE@Base 4:4.13.90
 _ZN6Marble20VoiceNavigationModel5resetEv@Base 4:4.13.90
 (subst)_ZN6Marble20VoiceNavigationModel6updateERKNS_5RouteE{qreal}{qreal}b@Base 4:4.13.90
 _ZN6Marble20VoiceNavigationModelC1EP7QObject@Base 4:4.13.90
 _ZN6Marble20VoiceNavigationModelC2EP7QObject@Base 4:4.13.90
 _ZN6Marble20VoiceNavigationModelD0Ev@Base 4:4.13.90
 _ZN6Marble20VoiceNavigationModelD1Ev@Base 4:4.13.90
 _ZN6Marble20VoiceNavigationModelD2Ev@Base 4:4.13.90
 _ZN6Marble21BillboardGraphicsItem12setAlignmentE6QFlagsIN2Qt13AlignmentFlagEE@Base 4:4.13.90
 _ZN6Marble21BillboardGraphicsItem13setCoordinateERKNS_18GeoDataCoordinatesE@Base 4:4.13.90
 _ZN6Marble21BillboardGraphicsItem1pEv@Base 4:4.13.90
 _ZN6Marble21BillboardGraphicsItem7PrivateD0Ev@Base 4:4.13.90
 _ZN6Marble21BillboardGraphicsItem7PrivateD1Ev@Base 4:4.13.90
 _ZN6Marble21BillboardGraphicsItem7PrivateD2Ev@Base 4:4.13.90
 _ZN6Marble21BillboardGraphicsItemC1Ev@Base 4:4.13.90
 _ZN6Marble21BillboardGraphicsItemC2Ev@Base 4:4.13.90
 _ZN6Marble21BillboardGraphicsItemD0Ev@Base 4:4.13.90
 _ZN6Marble21BillboardGraphicsItemD1Ev@Base 4:4.13.90
 _ZN6Marble21BillboardGraphicsItemD2Ev@Base 4:4.13.90
 _ZN6Marble21BookmarkManagerDialog11qt_metacallEN11QMetaObject4CallEiPPv@Base 4:4.13.90
 _ZN6Marble21BookmarkManagerDialog11qt_metacastEPKc@Base 4:4.13.90
 _ZN6Marble21BookmarkManagerDialog13saveBookmarksEv@Base 4:4.13.90
 _ZN6Marble21BookmarkManagerDialog15exportBookmarksEv@Base 4:4.13.90
 _ZN6Marble21BookmarkManagerDialog15importBookmarksEv@Base 4:4.13.90
 _ZN6Marble21BookmarkManagerDialog16bookmarkDocumentEv@Base 4:4.13.90
 _ZN6Marble21BookmarkManagerDialog16staticMetaObjectE@Base 4:4.13.90
 _ZN6Marble21BookmarkManagerDialog19setButtonBoxVisibleEb@Base 4:4.13.90
 _ZN6Marble21BookmarkManagerDialogC1EPNS_11MarbleModelEP7QWidget@Base 4:4.13.90
 _ZN6Marble21BookmarkManagerDialogC2EPNS_11MarbleModelEP7QWidget@Base 4:4.13.90
 _ZN6Marble21BookmarkManagerDialogD0Ev@Base 4:4.13.90
 _ZN6Marble21BookmarkManagerDialogD1Ev@Base 4:4.13.90
 _ZN6Marble21BookmarkManagerDialogD2Ev@Base 4:4.13.90
 _ZN6Marble21CurrentLocationWidget11qt_metacallEN11QMetaObject4CallEiPPv@Base 4:4.13.90
 _ZN6Marble21CurrentLocationWidget11qt_metacastEPKc@Base 4:4.13.90
 _ZN6Marble21CurrentLocationWidget11setAutoZoomEb@Base 4:4.13.90
 _ZN6Marble21CurrentLocationWidget15setLastOpenPathERK7QString@Base 4:4.13.90
 _ZN6Marble21CurrentLocationWidget15setLastSavePathERK7QString@Base 4:4.13.90
 _ZN6Marble21CurrentLocationWidget15setMarbleWidgetEPNS_12MarbleWidgetE@Base 4:4.13.90
 _ZN6Marble21CurrentLocationWidget15setRecenterModeEi@Base 4:4.13.90
 _ZN6Marble21CurrentLocationWidget15setTrackVisibleEb@Base 4:4.13.90
 _ZN6Marble21CurrentLocationWidget16staticMetaObjectE@Base 4:4.13.90
 _ZN6Marble21CurrentLocationWidgetC1EP7QWidget6QFlagsIN2Qt10WindowTypeEE@Base 4:4.13.90
 _ZN6Marble21CurrentLocationWidgetC2EP7QWidget6QFlagsIN2Qt10WindowTypeEE@Base 4:4.13.90
 _ZN6Marble21CurrentLocationWidgetD0Ev@Base 4:4.13.90
 _ZN6Marble21CurrentLocationWidgetD1Ev@Base 4:4.13.90
 _ZN6Marble21CurrentLocationWidgetD2Ev@Base 4:4.13.90
 _ZN6Marble21GeoDataAnimatedUpdate11setDurationEd@Base 4:4.13.90
 _ZN6Marble21GeoDataAnimatedUpdate6updateEv@Base 4:4.13.90
 _ZN6Marble21GeoDataAnimatedUpdate9setUpdateEPNS_13GeoDataUpdateE@Base 4:4.13.90
 _ZN6Marble21GeoDataAnimatedUpdateC1ERKS0_@Base 4:4.13.90
 _ZN6Marble21GeoDataAnimatedUpdateC1Ev@Base 4:4.13.90
 _ZN6Marble21GeoDataAnimatedUpdateC2ERKS0_@Base 4:4.13.90
 _ZN6Marble21GeoDataAnimatedUpdateC2Ev@Base 4:4.13.90
 _ZN6Marble21GeoDataAnimatedUpdateD0Ev@Base 4:4.13.90
 _ZN6Marble21GeoDataAnimatedUpdateD1Ev@Base 4:4.13.90
 _ZN6Marble21GeoDataAnimatedUpdateD2Ev@Base 4:4.13.90
 _ZN6Marble21GeoDataAnimatedUpdateaSERKS0_@Base 4:4.13.90
 _ZN6Marble21MarbleWidgetPopupMenu11addBookmarkEv@Base 4:4.13.90
 _ZN6Marble21MarbleWidgetPopupMenu11qt_metacallEN11QMetaObject4CallEiPPv@Base 4:4.13.90
 _ZN6Marble21MarbleWidgetPopupMenu11qt_metacastEPKc@Base 4:4.13.90
 _ZN6Marble21MarbleWidgetPopupMenu11showLmbMenuEii@Base 4:4.13.90
 _ZN6Marble21MarbleWidgetPopupMenu11showRmbMenuEii@Base 4:4.13.90
 _ZN6Marble21MarbleWidgetPopupMenu14slotInfoDialogEv@Base 4:4.13.90
 _ZN6Marble21MarbleWidgetPopupMenu15slotAboutDialogEv@Base 4:4.13.90
 _ZN6Marble21MarbleWidgetPopupMenu16directionsToHereEv@Base 4:4.13.90
 _ZN6Marble21MarbleWidgetPopupMenu16staticMetaObjectE@Base 4:4.13.90
 _ZN6Marble21MarbleWidgetPopupMenu16toggleFullscreenEb@Base 4:4.13.90
 _ZN6Marble21MarbleWidgetPopupMenu18directionsFromHereEv@Base 4:4.13.90
 _ZN6Marble21MarbleWidgetPopupMenu19slotCopyCoordinatesEv@Base 4:4.13.90
 _ZN6Marble21MarbleWidgetPopupMenu21startReverseGeocodingEv@Base 4:4.13.90
 _ZN6Marble21MarbleWidgetPopupMenu22showAddressInformationERKNS_18GeoDataCoordinatesERKNS_16GeoDataPlacemarkE@Base 4:4.13.90
 _ZN6Marble21MarbleWidgetPopupMenu7Private15setupDialogCityEPNS_10PopupLayerEPKNS_16GeoDataPlacemarkE@Base 4:4.13.90
 _ZN6Marble21MarbleWidgetPopupMenu7Private17createInfoBoxMenuEv@Base 4:4.13.90
 _ZN6Marble21MarbleWidgetPopupMenu7Private17setupDialogNationEPNS_10PopupLayerEPKNS_16GeoDataPlacemarkE@Base 4:4.13.90
 _ZN6Marble21MarbleWidgetPopupMenu7Private20setupDialogGeoPlacesEPNS_10PopupLayerEPKNS_16GeoDataPlacemarkE@Base 4:4.13.90
 _ZN6Marble21MarbleWidgetPopupMenu7Private20setupDialogSatelliteEPKNS_16GeoDataPlacemarkE@Base 4:4.13.90
 _ZN6Marble21MarbleWidgetPopupMenu7Private20setupDialogSkyPlacesEPNS_10PopupLayerEPKNS_16GeoDataPlacemarkE@Base 4:4.13.90
 _ZN6Marble21MarbleWidgetPopupMenu7Private27filterEmptyShortDescriptionERK7QString@Base 4:4.13.90
 _ZN6Marble21MarbleWidgetPopupMenu7PrivateC1EPNS_12MarbleWidgetEPKNS_11MarbleModelEPS0_@Base 4:4.13.90
 _ZN6Marble21MarbleWidgetPopupMenu7PrivateC2EPNS_12MarbleWidgetEPKNS_11MarbleModelEPS0_@Base 4:4.13.90
 _ZN6Marble21MarbleWidgetPopupMenu9addActionEN2Qt11MouseButtonEP7QAction@Base 4:4.13.90
 _ZN6Marble21MarbleWidgetPopupMenu9resetMenuEv@Base 4:4.13.90
 _ZN6Marble21MarbleWidgetPopupMenuC1EPNS_12MarbleWidgetEPKNS_11MarbleModelE@Base 4:4.13.90
 _ZN6Marble21MarbleWidgetPopupMenuC2EPNS_12MarbleWidgetEPKNS_11MarbleModelE@Base 4:4.13.90
 _ZN6Marble21MarbleWidgetPopupMenuD0Ev@Base 4:4.13.90
 _ZN6Marble21MarbleWidgetPopupMenuD1Ev@Base 4:4.13.90
 _ZN6Marble21MarbleWidgetPopupMenuD2Ev@Base 4:4.13.90
 _ZN6Marble21RoutingProfilesWidget11qt_metacallEN11QMetaObject4CallEiPPv@Base 4:4.13.90
 _ZN6Marble21RoutingProfilesWidget11qt_metacastEPKc@Base 4:4.13.90
 _ZN6Marble21RoutingProfilesWidget16staticMetaObjectE@Base 4:4.13.90
 _ZN6Marble21RoutingProfilesWidget7Private13updateButtonsEv@Base 4:4.13.90
 _ZN6Marble21RoutingProfilesWidget7Private3addEv@Base 4:4.13.90
 _ZN6Marble21RoutingProfilesWidget7Private6moveUpEv@Base 4:4.13.90
 _ZN6Marble21RoutingProfilesWidget7Private6removeEv@Base 4:4.13.90
 _ZN6Marble21RoutingProfilesWidget7Private8moveDownEv@Base 4:4.13.90
 _ZN6Marble21RoutingProfilesWidget7Private9configureEv@Base 4:4.13.90
 _ZN6Marble21RoutingProfilesWidget7PrivateC1EPNS_11MarbleModelEPS0_@Base 4:4.13.90
 _ZN6Marble21RoutingProfilesWidget7PrivateC2EPNS_11MarbleModelEPS0_@Base 4:4.13.90
 _ZN6Marble21RoutingProfilesWidgetC1EPNS_11MarbleModelE@Base 4:4.13.90
 _ZN6Marble21RoutingProfilesWidgetC2EPNS_11MarbleModelE@Base 4:4.13.90
 _ZN6Marble21RoutingProfilesWidgetD0Ev@Base 4:4.13.90
 _ZN6Marble21RoutingProfilesWidgetD1Ev@Base 4:4.13.90
 _ZN6Marble21RoutingProfilesWidgetD2Ev@Base 4:4.13.90
 _ZN6Marble22AbstractDataPluginItem10setToolTipERK7QString@Base 4:4.13.90
 _ZN6Marble22AbstractDataPluginItem11qt_metacallEN11QMetaObject4CallEiPPv@Base 4:4.13.90
 _ZN6Marble22AbstractDataPluginItem11qt_metacastEPKc@Base 4:4.13.90
 _ZN6Marble22AbstractDataPluginItem11setFavoriteEb@Base 4:4.13.90
 _ZN6Marble22AbstractDataPluginItem11setSettingsERK5QHashI7QString8QVariantE@Base 4:4.13.90
 _ZN6Marble22AbstractDataPluginItem13stickyChangedEv@Base 4:4.13.90
 _ZN6Marble22AbstractDataPluginItem14toggleFavoriteEv@Base 4:4.13.90
 _ZN6Marble22AbstractDataPluginItem15favoriteChangedERK7QStringb@Base 4:4.13.90
 _ZN6Marble22AbstractDataPluginItem16staticMetaObjectE@Base 4:4.13.90
 _ZN6Marble22AbstractDataPluginItem17addDownloadedFileERK7QStringS3_@Base 4:4.13.90
 (subst)_ZN6Marble22AbstractDataPluginItem25setAddedAngularResolutionE{qreal}@Base 4:4.13.90
 _ZN6Marble22AbstractDataPluginItem5setIdERK7QString@Base 4:4.13.90
 _ZN6Marble22AbstractDataPluginItem6actionEv@Base 4:4.13.90
 _ZN6Marble22AbstractDataPluginItem7actionsEv@Base 4:4.13.90
 _ZN6Marble22AbstractDataPluginItem7updatedEv@Base 4:4.13.90
 _ZN6Marble22AbstractDataPluginItem9idChangedEv@Base 4:4.13.90
 _ZN6Marble22AbstractDataPluginItem9setStickyEb@Base 4:4.13.90
 _ZN6Marble22AbstractDataPluginItem9setTargetERK7QString@Base 4:4.13.90
 _ZN6Marble22AbstractDataPluginItemC1EP7QObject@Base 4:4.13.90
 _ZN6Marble22AbstractDataPluginItemC2EP7QObject@Base 4:4.13.90
 _ZN6Marble22AbstractDataPluginItemD0Ev@Base 4:4.13.90
 _ZN6Marble22AbstractDataPluginItemD1Ev@Base 4:4.13.90
 _ZN6Marble22AbstractDataPluginItemD2Ev@Base 4:4.13.90
 _ZN6Marble22AlternativeRoutesModel10newRequestEPNS_12RouteRequestE@Base 4:4.13.90
 _ZN6Marble22AlternativeRoutesModel11qt_metacallEN11QMetaObject4CallEiPPv@Base 4:4.13.90
 _ZN6Marble22AlternativeRoutesModel11qt_metacastEPKc@Base 4:4.13.90
 _ZN6Marble22AlternativeRoutesModel12currentRouteEv@Base 4:4.13.90
 _ZN6Marble22AlternativeRoutesModel15setCurrentRouteEi@Base 4:4.13.90
 _ZN6Marble22AlternativeRoutesModel16staticMetaObjectE@Base 4:4.13.90
 _ZN6Marble22AlternativeRoutesModel19addRestrainedRoutesEv@Base 4:4.13.90
 _ZN6Marble22AlternativeRoutesModel19currentRouteChangedEPNS_15GeoDataDocumentE@Base 4:4.13.90
 _ZN6Marble22AlternativeRoutesModel19currentRouteChangedEi@Base 4:4.13.90
 _ZN6Marble22AlternativeRoutesModel5clearEv@Base 4:4.13.90
 _ZN6Marble22AlternativeRoutesModel5routeEi@Base 4:4.13.90
 _ZN6Marble22AlternativeRoutesModel6updateEPNS_15GeoDataDocumentE@Base 4:4.13.90
 _ZN6Marble22AlternativeRoutesModel8addRouteEPNS_15GeoDataDocumentENS0_11WritePolicyE@Base 4:4.13.90
 _ZN6Marble22AlternativeRoutesModel8distanceERKNS_18GeoDataCoordinatesES3_S3_@Base 4:4.13.90
 _ZN6Marble22AlternativeRoutesModel9deviationEPKNS_15GeoDataDocumentES3_@Base 4:4.13.90
 _ZN6Marble22AlternativeRoutesModel9waypointsEPKNS_15GeoDataDocumentE@Base 4:4.13.90
 _ZN6Marble22AlternativeRoutesModelC1EP7QObject@Base 4:4.13.90
 _ZN6Marble22AlternativeRoutesModelC2EP7QObject@Base 4:4.13.90
 _ZN6Marble22AlternativeRoutesModelD0Ev@Base 4:4.13.90
 _ZN6Marble22AlternativeRoutesModelD1Ev@Base 4:4.13.90
 _ZN6Marble22AlternativeRoutesModelD2Ev@Base 4:4.13.90
 _ZN6Marble22GeoDataSimpleArrayData6appendERK8QVariant@Base 4:4.13.90
 _ZN6Marble22GeoDataSimpleArrayData6unpackER11QDataStream@Base 4:4.13.90
 _ZN6Marble22GeoDataSimpleArrayDataC1ERKS0_@Base 4:4.13.90
 _ZN6Marble22GeoDataSimpleArrayDataC1Ev@Base 4:4.13.90
 _ZN6Marble22GeoDataSimpleArrayDataC2ERKS0_@Base 4:4.13.90
 _ZN6Marble22GeoDataSimpleArrayDataC2Ev@Base 4:4.13.90
 _ZN6Marble22GeoDataSimpleArrayDataD0Ev@Base 4:4.13.90
 _ZN6Marble22GeoDataSimpleArrayDataD1Ev@Base 4:4.13.90
 _ZN6Marble22GeoDataSimpleArrayDataD2Ev@Base 4:4.13.90
 _ZN6Marble22GeoPolygonGraphicsItem5paintEPNS_10GeoPainterEPKNS_14ViewportParamsE@Base 4:4.13.90
 _ZN6Marble22GeoPolygonGraphicsItemC1EPKNS_14GeoDataFeatureEPKNS_14GeoDataPolygonE@Base 4:4.13.90
 _ZN6Marble22GeoPolygonGraphicsItemC1EPKNS_14GeoDataFeatureEPKNS_17GeoDataLinearRingE@Base 4:4.13.90
 _ZN6Marble22GeoPolygonGraphicsItemC2EPKNS_14GeoDataFeatureEPKNS_14GeoDataPolygonE@Base 4:4.13.90
 _ZN6Marble22GeoPolygonGraphicsItemC2EPKNS_14GeoDataFeatureEPKNS_17GeoDataLinearRingE@Base 4:4.13.90
 _ZN6Marble22GeoPolygonGraphicsItemD0Ev@Base 4:4.13.90
 _ZN6Marble22GeoPolygonGraphicsItemD1Ev@Base 4:4.13.90
 _ZN6Marble22GeoPolygonGraphicsItemD2Ev@Base 4:4.13.90
 _ZN6Marble22MapThemeDownloadDialog11qt_metacallEN11QMetaObject4CallEiPPv@Base 4:4.13.90
 _ZN6Marble22MapThemeDownloadDialog11qt_metacastEPKc@Base 4:4.13.90
 _ZN6Marble22MapThemeDownloadDialog16staticMetaObjectE@Base 4:4.13.90
 _ZN6Marble22MapThemeDownloadDialogC1EPNS_12MarbleWidgetE@Base 4:4.13.90
 _ZN6Marble22MapThemeDownloadDialogC2EPNS_12MarbleWidgetE@Base 4:4.13.90
 _ZN6Marble22MapThemeDownloadDialogD0Ev@Base 4:4.13.90
 _ZN6Marble22MapThemeDownloadDialogD1Ev@Base 4:4.13.90
 _ZN6Marble22MapThemeDownloadDialogD2Ev@Base 4:4.13.90
 _ZN6Marble22PositionProviderPlugin11qt_metacallEN11QMetaObject4CallEiPPv@Base 4:4.13.90
 _ZN6Marble22PositionProviderPlugin11qt_metacastEPKc@Base 4:4.13.90
 _ZN6Marble22PositionProviderPlugin14setMarbleModelEPKNS_11MarbleModelE@Base 4:4.13.90
 _ZN6Marble22PositionProviderPlugin16staticMetaObjectE@Base 4:4.13.90
 _ZN6Marble22PositionProviderPluginC1Ev@Base 4:4.13.90
 _ZN6Marble22PositionProviderPluginC2Ev@Base 4:4.13.90
 _ZN6Marble22PositionProviderPluginD0Ev@Base 4:4.13.90
 _ZN6Marble22PositionProviderPluginD1Ev@Base 4:4.13.90
 _ZN6Marble22PositionProviderPluginD2Ev@Base 4:4.13.90
 _ZN6Marble22ReverseGeocodingRunner11qt_metacallEN11QMetaObject4CallEiPPv@Base 4:4.13.90
 _ZN6Marble22ReverseGeocodingRunner11qt_metacastEPKc@Base 4:4.13.90
 _ZN6Marble22ReverseGeocodingRunner16staticMetaObjectE@Base 4:4.13.90
 _ZN6Marble22ReverseGeocodingRunner24reverseGeocodingFinishedERKNS_18GeoDataCoordinatesERKNS_16GeoDataPlacemarkE@Base 4:4.13.90
 _ZN6Marble22ReverseGeocodingRunner8setModelEPKNS_11MarbleModelE@Base 4:4.13.90
 _ZN6Marble22ReverseGeocodingRunnerC1EP7QObject@Base 4:4.13.90
 _ZN6Marble22ReverseGeocodingRunnerC2EP7QObject@Base 4:4.13.90
 _ZN6Marble23AbstractDataPluginModel10removeItemEP7QObject@Base 4:4.13.90
 _ZN6Marble23AbstractDataPluginModel11qt_metacallEN11QMetaObject4CallEiPPv@Base 4:4.13.90
 _ZN6Marble23AbstractDataPluginModel11qt_metacastEPKc@Base 4:4.13.90
 _ZN6Marble23AbstractDataPluginModel11whichItemAtERK6QPoint@Base 4:4.13.90
 _ZN6Marble23AbstractDataPluginModel12downloadItemERK4QUrlRK7QStringPNS_22AbstractDataPluginItemE@Base 4:4.13.90
 _ZN6Marble23AbstractDataPluginModel12itemsUpdatedEv@Base 4:4.13.90
 _ZN6Marble23AbstractDataPluginModel13addItemToListEPNS_22AbstractDataPluginItemE@Base 4:4.13.90
 _ZN6Marble23AbstractDataPluginModel14addItemsToListERK5QListIPNS_22AbstractDataPluginItemEE@Base 4:4.13.90
 _ZN6Marble23AbstractDataPluginModel14favoritesModelEv@Base 4:4.13.90
 _ZN6Marble23AbstractDataPluginModel15setItemSettingsE5QHashI7QString8QVariantE@Base 4:4.13.90
 _ZN6Marble23AbstractDataPluginModel16downloadItemDataERK4QUrlRK7QStringPNS_22AbstractDataPluginItemE@Base 4:4.13.90
 _ZN6Marble23AbstractDataPluginModel16scheduleItemSortEv@Base 4:4.13.90
 _ZN6Marble23AbstractDataPluginModel16setFavoriteItemsERK11QStringList@Base 4:4.13.90
 _ZN6Marble23AbstractDataPluginModel16staticMetaObjectE@Base 4:4.13.90
 _ZN6Marble23AbstractDataPluginModel18processFinishedJobERK7QStringS3_@Base 4:4.13.90
 _ZN6Marble23AbstractDataPluginModel19favoriteItemChangedERK7QStringb@Base 4:4.13.90
 _ZN6Marble23AbstractDataPluginModel20favoriteItemsChangedERK11QStringList@Base 4:4.13.90
 _ZN6Marble23AbstractDataPluginModel20setFavoriteItemsOnlyEb@Base 4:4.13.90
 _ZN6Marble23AbstractDataPluginModel21handleChangedViewportEv@Base 4:4.13.90
 _ZN6Marble23AbstractDataPluginModel22registerItemPropertiesERK11QMetaObject@Base 4:4.13.90
 _ZN6Marble23AbstractDataPluginModel23downloadDescriptionFileERK4QUrl@Base 4:4.13.90
 _ZN6Marble23AbstractDataPluginModel24favoriteItemsOnlyChangedEv@Base 4:4.13.90
 _ZN6Marble23AbstractDataPluginModel5clearEv@Base 4:4.13.90
 _ZN6Marble23AbstractDataPluginModel5itemsEPKNS_14ViewportParamsEi@Base 4:4.13.90
 _ZN6Marble23AbstractDataPluginModel7getItemERK7QString@Base 4:4.13.90
 _ZN6Marble23AbstractDataPluginModel9parseFileERK10QByteArray@Base 4:4.13.90
 _ZN6Marble23AbstractDataPluginModelC1ERK7QStringPKNS_11MarbleModelEP7QObject@Base 4:4.13.90
 _ZN6Marble23AbstractDataPluginModelC2ERK7QStringPKNS_11MarbleModelEP7QObject@Base 4:4.13.90
 _ZN6Marble23AbstractDataPluginModelD0Ev@Base 4:4.13.90
 _ZN6Marble23AbstractDataPluginModelD1Ev@Base 4:4.13.90
 _ZN6Marble23AbstractDataPluginModelD2Ev@Base 4:4.13.90
 _ZN6Marble23GeoSceneAbstractDataset13setFileFormatERK7QString@Base 4:4.13.90
 _ZN6Marble23GeoSceneAbstractDataset9setExpireEi@Base 4:4.13.90
 _ZN6Marble23GeoSceneAbstractDatasetC1ERK7QString@Base 4:4.13.90
 _ZN6Marble23GeoSceneAbstractDatasetC2ERK7QString@Base 4:4.13.90
 _ZN6Marble23NewBookmarkFolderDialog11qt_metacallEN11QMetaObject4CallEiPPv@Base 4:4.13.90
 _ZN6Marble23NewBookmarkFolderDialog11qt_metacastEPKc@Base 4:4.13.90
 _ZN6Marble23NewBookmarkFolderDialog13setFolderNameERK7QString@Base 4:4.13.90
 _ZN6Marble23NewBookmarkFolderDialog16staticMetaObjectE@Base 4:4.13.90
 _ZN6Marble23NewBookmarkFolderDialogC1EP7QWidget@Base 4:4.13.90
 _ZN6Marble23NewBookmarkFolderDialogC2EP7QWidget@Base 4:4.13.90
 _ZN6Marble23NewBookmarkFolderDialogD0Ev@Base 4:4.13.90
 _ZN6Marble23NewBookmarkFolderDialogD1Ev@Base 4:4.13.90
 _ZN6Marble23NewBookmarkFolderDialogD2Ev@Base 4:4.13.90
 _ZN6Marble24MarbleGraphicsGridLayout10setSpacingEi@Base 4:4.13.90
 _ZN6Marble24MarbleGraphicsGridLayout12setAlignmentE6QFlagsIN2Qt13AlignmentFlagEE@Base 4:4.13.90
 _ZN6Marble24MarbleGraphicsGridLayout12setAlignmentEPNS_18ScreenGraphicsItemE6QFlagsIN2Qt13AlignmentFlagEE@Base 4:4.13.90
 _ZN6Marble24MarbleGraphicsGridLayout15updatePositionsEPNS_18MarbleGraphicsItemE@Base 4:4.13.90
 _ZN6Marble24MarbleGraphicsGridLayout7addItemEPNS_18ScreenGraphicsItemEii@Base 4:4.13.90
 _ZN6Marble24MarbleGraphicsGridLayoutC1Eii@Base 4:4.13.90
 _ZN6Marble24MarbleGraphicsGridLayoutC2Eii@Base 4:4.13.90
 _ZN6Marble24MarbleGraphicsGridLayoutD0Ev@Base 4:4.13.90
 _ZN6Marble24MarbleGraphicsGridLayoutD1Ev@Base 4:4.13.90
 _ZN6Marble24MarbleGraphicsGridLayoutD2Ev@Base 4:4.13.90
 _ZN6Marble25GeoDataNetworkLinkControl10setExpiresERK9QDateTime@Base 4:4.13.90
 _ZN6Marble25GeoDataNetworkLinkControl10setMessageERK7QString@Base 4:4.13.90
 _ZN6Marble25GeoDataNetworkLinkControl11setLinkNameERK7QString@Base 4:4.13.90
 _ZN6Marble25GeoDataNetworkLinkControl11setMaxLinesERKi@Base 4:4.13.90
 _ZN6Marble25GeoDataNetworkLinkControl14setLinkSnippetERK7QString@Base 4:4.13.90
 _ZN6Marble25GeoDataNetworkLinkControl15setAbstractViewEPNS_19GeoDataAbstractViewE@Base 4:4.13.90
 _ZN6Marble25GeoDataNetworkLinkControl18setLinkDescriptionERK7QString@Base 4:4.13.90
 (subst)_ZN6Marble25GeoDataNetworkLinkControl19setMaxSessionLengthERK{qreal}@Base 4:4.13.90
 (subst)_ZN6Marble25GeoDataNetworkLinkControl19setMinRefreshPeriodERK{qreal}@Base 4:4.13.90
 _ZN6Marble25GeoDataNetworkLinkControl6updateEv@Base 4:4.13.90
 _ZN6Marble25GeoDataNetworkLinkControl9setCookieERK7QString@Base 4:4.13.90
 _ZN6Marble25GeoDataNetworkLinkControl9setUpdateERKNS_13GeoDataUpdateE@Base 4:4.13.90
 _ZN6Marble25GeoDataNetworkLinkControlC1ERKS0_@Base 4:4.13.90
 _ZN6Marble25GeoDataNetworkLinkControlC1Ev@Base 4:4.13.90
 _ZN6Marble25GeoDataNetworkLinkControlC2ERKS0_@Base 4:4.13.90
 _ZN6Marble25GeoDataNetworkLinkControlC2Ev@Base 4:4.13.90
 _ZN6Marble25GeoDataNetworkLinkControlD0Ev@Base 4:4.13.90
 _ZN6Marble25GeoDataNetworkLinkControlD1Ev@Base 4:4.13.90
 _ZN6Marble25GeoDataNetworkLinkControlD2Ev@Base 4:4.13.90
 _ZN6Marble25GeoDataNetworkLinkControlaSERKS0_@Base 4:4.13.90
 _ZN6Marble25GeoLineStringGraphicsItem13setLineStringEPKNS_17GeoDataLineStringE@Base 4:4.13.90
 _ZN6Marble25GeoLineStringGraphicsItem5paintEPNS_10GeoPainterEPKNS_14ViewportParamsE@Base 4:4.13.90
 _ZN6Marble25GeoLineStringGraphicsItemC1EPKNS_14GeoDataFeatureEPKNS_17GeoDataLineStringE@Base 4:4.13.90
 _ZN6Marble25GeoLineStringGraphicsItemC2EPKNS_14GeoDataFeatureEPKNS_17GeoDataLineStringE@Base 4:4.13.90
 _ZN6Marble25GeoLineStringGraphicsItemD0Ev@Base 4:4.13.90
 _ZN6Marble25GeoLineStringGraphicsItemD1Ev@Base 4:4.13.90
 _ZN6Marble25GeoLineStringGraphicsItemD2Ev@Base 4:4.13.90
 _ZN6Marble25InstructionTransformation7processERK7QVectorINS_15RoutingWaypointEE@Base 4:4.13.90
 _ZN6Marble25MarbleDefaultInputHandler10lmbTimeoutEv@Base 4:4.13.90
 _ZN6Marble25MarbleDefaultInputHandler11acceptMouseEv@Base 4:4.13.90
 _ZN6Marble25MarbleDefaultInputHandler11eventFilterEP7QObjectP6QEvent@Base 4:4.13.90
 (subst)_ZN6Marble25MarbleDefaultInputHandler11handlePinchE7QPointF{qreal}N2Qt12GestureStateE@Base 4:4.13.90
 _ZN6Marble25MarbleDefaultInputHandler11handleTouchEP11QTouchEvent@Base 4:4.13.90
 _ZN6Marble25MarbleDefaultInputHandler11handleWheelEP11QWheelEvent@Base 4:4.13.90
 _ZN6Marble25MarbleDefaultInputHandler11qt_metacallEN11QMetaObject4CallEiPPv@Base 4:4.13.90
 _ZN6Marble25MarbleDefaultInputHandler11qt_metacastEPKc@Base 4:4.13.90
 _ZN6Marble25MarbleDefaultInputHandler12toolTipTimerEv@Base 4:4.13.90
 _ZN6Marble25MarbleDefaultInputHandler13handleGestureEP13QGestureEvent@Base 4:4.13.90
 _ZN6Marble25MarbleDefaultInputHandler14handleKeyPressEP9QKeyEvent@Base 4:4.13.90
 (subst)_ZN6Marble25MarbleDefaultInputHandler14notifyPositionEb{qreal}{qreal}@Base 4:4.13.90
 _ZN6Marble25MarbleDefaultInputHandler15lastToolTipItemEv@Base 4:4.13.90
 _ZN6Marble25MarbleDefaultInputHandler15toolTipPositionEv@Base 4:4.13.90
 _ZN6Marble25MarbleDefaultInputHandler16handleMouseEventEP11QMouseEvent@Base 4:4.13.90
 _ZN6Marble25MarbleDefaultInputHandler16staticMetaObjectE@Base 4:4.13.90
 _ZN6Marble25MarbleDefaultInputHandler17adjustCursorShapeERK6QPointS3_@Base 4:4.13.90
 _ZN6Marble25MarbleDefaultInputHandler17checkReleasedMoveEP11QMouseEvent@Base 4:4.13.90
 _ZN6Marble25MarbleDefaultInputHandler17handleDoubleClickEP11QMouseEvent@Base 4:4.13.90
 _ZN6Marble25MarbleDefaultInputHandler17mouseMovedOutsideEP11QMouseEvent@Base 4:4.13.90
 _ZN6Marble25MarbleDefaultInputHandler22handleMouseButtonPressEP11QMouseEvent@Base 4:4.13.90
 _ZN6Marble25MarbleDefaultInputHandler24handleMouseButtonReleaseEP11QMouseEvent@Base 4:4.13.90
 _ZN6Marble25MarbleDefaultInputHandler26handleLeftMouseButtonPressEP11QMouseEvent@Base 4:4.13.90
 _ZN6Marble25MarbleDefaultInputHandler27handleRightMouseButtonPressEP11QMouseEvent@Base 4:4.13.90
 _ZN6Marble25MarbleDefaultInputHandler27hideSelectionIfCtrlReleasedEP6QEvent@Base 4:4.13.90
 _ZN6Marble25MarbleDefaultInputHandler28handleMiddleMouseButtonPressEP11QMouseEvent@Base 4:4.13.90
 _ZN6Marble25MarbleDefaultInputHandler7PrivateC1Ev@Base 4:4.13.90
 _ZN6Marble25MarbleDefaultInputHandler7PrivateC2Ev@Base 4:4.13.90
 _ZN6Marble25MarbleDefaultInputHandler7PrivateD1Ev@Base 4:4.13.90
 _ZN6Marble25MarbleDefaultInputHandler7PrivateD2Ev@Base 4:4.13.90
 _ZN6Marble25MarbleDefaultInputHandlerC1EPNS_23MarbleAbstractPresenterE@Base 4:4.13.90
 _ZN6Marble25MarbleDefaultInputHandlerC2EPNS_23MarbleAbstractPresenterE@Base 4:4.13.90
 _ZN6Marble25MarbleDefaultInputHandlerD0Ev@Base 4:4.13.90
 _ZN6Marble25MarbleDefaultInputHandlerD1Ev@Base 4:4.13.90
 _ZN6Marble25MarbleDefaultInputHandlerD2Ev@Base 4:4.13.90
 (subst)_ZN6Marble25ScreenOverlayGraphicsItem10pixelValueENS_11GeoDataVec24UnitE{qreal}{qreal}{qreal}@Base 4:4.13.90
 _ZN6Marble25ScreenOverlayGraphicsItem13setProjectionEPKNS_14ViewportParamsE@Base 4:4.13.90
 _ZN6Marble25ScreenOverlayGraphicsItem5paintEP8QPainter@Base 4:4.13.90
 _ZN6Marble25ScreenOverlayGraphicsItemC1EPKNS_20GeoDataScreenOverlayE@Base 4:4.13.90
 _ZN6Marble25ScreenOverlayGraphicsItemC2EPKNS_20GeoDataScreenOverlayE@Base 4:4.13.90
 _ZN6Marble25ScreenOverlayGraphicsItemD0Ev@Base 4:4.13.90
 _ZN6Marble25ScreenOverlayGraphicsItemD1Ev@Base 4:4.13.90
 _ZN6Marble25ScreenOverlayGraphicsItemD2Ev@Base 4:4.13.90
 _ZN6Marble26MarblePluginSettingsWidget11qt_metacallEN11QMetaObject4CallEiPPv@Base 4:4.13.90
 _ZN6Marble26MarblePluginSettingsWidget11qt_metacastEPKc@Base 4:4.13.90
 _ZN6Marble26MarblePluginSettingsWidget12setAboutIconERK5QIcon@Base 4:4.13.90
 _ZN6Marble26MarblePluginSettingsWidget13setConfigIconERK5QIcon@Base 4:4.13.90
 _ZN6Marble26MarblePluginSettingsWidget16staticMetaObjectE@Base 4:4.13.90
 _ZN6Marble26MarblePluginSettingsWidget21pluginListViewClickedEv@Base 4:4.13.90
 _ZN6Marble26MarblePluginSettingsWidget8setModelEPNS_17RenderPluginModelE@Base 4:4.13.90
 _ZN6Marble26MarblePluginSettingsWidgetC1EP7QWidget@Base 4:4.13.90
 _ZN6Marble26MarblePluginSettingsWidgetC2EP7QWidget@Base 4:4.13.90
 _ZN6Marble26MarblePluginSettingsWidgetD0Ev@Base 4:4.13.90
 _ZN6Marble26MarblePluginSettingsWidgetD1Ev@Base 4:4.13.90
 _ZN6Marble26MarblePluginSettingsWidgetD2Ev@Base 4:4.13.90
 _ZN6Marble28AbstractMarbleGraphicsLayoutC1Ev@Base 4:4.13.90
 _ZN6Marble28AbstractMarbleGraphicsLayoutC2Ev@Base 4:4.13.90
 _ZN6Marble28AbstractMarbleGraphicsLayoutD0Ev@Base 4:4.13.90
 _ZN6Marble28AbstractMarbleGraphicsLayoutD1Ev@Base 4:4.13.90
 _ZN6Marble28AbstractMarbleGraphicsLayoutD2Ev@Base 4:4.13.90
 _ZN6Marble28DialogConfigurationInterfaceD0Ev@Base 4:4.13.90
 _ZN6Marble28DialogConfigurationInterfaceD1Ev@Base 4:4.13.90
 _ZN6Marble28DialogConfigurationInterfaceD2Ev@Base 4:4.13.90
 _ZN6Marble28ReverseGeocodingRunnerPlugin11qt_metacallEN11QMetaObject4CallEiPPv@Base 4:4.13.90
 _ZN6Marble28ReverseGeocodingRunnerPlugin11qt_metacastEPKc@Base 4:4.13.90
 _ZN6Marble28ReverseGeocodingRunnerPlugin16staticMetaObjectE@Base 4:4.13.90
 _ZN6Marble28ReverseGeocodingRunnerPlugin17setCanWorkOfflineEb@Base 4:4.13.90
 _ZN6Marble28ReverseGeocodingRunnerPlugin27setSupportedCelestialBodiesERK11QStringList@Base 4:4.13.90
 _ZN6Marble28ReverseGeocodingRunnerPlugin7PrivateC1Ev@Base 4:4.13.90
 _ZN6Marble28ReverseGeocodingRunnerPlugin7PrivateC2Ev@Base 4:4.13.90
 _ZN6Marble28ReverseGeocodingRunnerPluginC1EP7QObject@Base 4:4.13.90
 _ZN6Marble28ReverseGeocodingRunnerPluginC2EP7QObject@Base 4:4.13.90
 _ZN6Marble28ReverseGeocodingRunnerPluginD0Ev@Base 4:4.13.90
 _ZN6Marble28ReverseGeocodingRunnerPluginD1Ev@Base 4:4.13.90
 _ZN6Marble28ReverseGeocodingRunnerPluginD2Ev@Base 4:4.13.90
 _ZN6Marble29ReverseGeocodingRunnerManager11qt_metacallEN11QMetaObject4CallEiPPv@Base 4:4.13.90
 _ZN6Marble29ReverseGeocodingRunnerManager11qt_metacastEPKc@Base 4:4.13.90
 _ZN6Marble29ReverseGeocodingRunnerManager16reverseGeocodingERKNS_18GeoDataCoordinatesE@Base 4:4.13.90
 _ZN6Marble29ReverseGeocodingRunnerManager16staticMetaObjectE@Base 4:4.13.90
 _ZN6Marble29ReverseGeocodingRunnerManager22searchReverseGeocodingERKNS_18GeoDataCoordinatesEi@Base 4:4.13.90
 _ZN6Marble29ReverseGeocodingRunnerManager24reverseGeocodingFinishedERKNS_18GeoDataCoordinatesERKNS_16GeoDataPlacemarkE@Base 4:4.13.90
 _ZN6Marble29ReverseGeocodingRunnerManager24reverseGeocodingFinishedEv@Base 4:4.13.90
 _ZN6Marble29ReverseGeocodingRunnerManager7Private25addReverseGeocodingResultERKNS_18GeoDataCoordinatesERKNS_16GeoDataPlacemarkE@Base 4:4.13.90
 _ZN6Marble29ReverseGeocodingRunnerManager7Private27cleanupReverseGeocodingTaskEPNS_20ReverseGeocodingTaskE@Base 4:4.13.90
 _ZN6Marble29ReverseGeocodingRunnerManager7PrivateC1EPS0_PKNS_11MarbleModelE@Base 4:4.13.90
 _ZN6Marble29ReverseGeocodingRunnerManager7PrivateC2EPS0_PKNS_11MarbleModelE@Base 4:4.13.90
 _ZN6Marble29ReverseGeocodingRunnerManagerC1EPKNS_11MarbleModelEP7QObject@Base 4:4.13.90
 _ZN6Marble29ReverseGeocodingRunnerManagerC2EPKNS_11MarbleModelEP7QObject@Base 4:4.13.90
 _ZN6Marble29ReverseGeocodingRunnerManagerD0Ev@Base 4:4.13.90
 _ZN6Marble29ReverseGeocodingRunnerManagerD1Ev@Base 4:4.13.90
 _ZN6Marble29ReverseGeocodingRunnerManagerD2Ev@Base 4:4.13.90
 _ZN6Marble31PositionProviderPluginInterfaceD0Ev@Base 4:4.13.90
 _ZN6Marble31PositionProviderPluginInterfaceD1Ev@Base 4:4.13.90
 _ZN6Marble31PositionProviderPluginInterfaceD2Ev@Base 4:4.13.90
 _ZN6Marble3kml10kmlTag_LodE@Base 4:4.13.90
 _ZN6Marble3kml10kmlTag_UrlE@Base 4:4.13.90
 _ZN6Marble3kml10kmlTag_endE@Base 4:4.13.90
 _ZN6Marble3kml10kmlTag_keyE@Base 4:4.13.90
 _ZN6Marble3kml10kmlTag_kmlE@Base 4:4.13.90
 _ZN6Marble3kml10kmlTag_popE@Base 4:4.13.90
 _ZN6Marble3kml11kmlTag_DataE@Base 4:4.13.90
 _ZN6Marble3kml11kmlTag_IconE@Base 4:4.13.90
 _ZN6Marble3kml11kmlTag_LinkE@Base 4:4.13.90
 _ZN6Marble3kml11kmlTag_PairE@Base 4:4.13.90
 _ZN6Marble3kml11kmlTag_TourE@Base 4:4.13.90
 _ZN6Marble3kml11kmlTag_WaitE@Base 4:4.13.90
 _ZN6Marble3kml11kmlTag_areaE@Base 4:4.13.90
 _ZN6Marble3kml11kmlTag_codeE@Base 4:4.13.90
 _ZN6Marble3kml11kmlTag_eastE@Base 4:4.13.90
 _ZN6Marble3kml11kmlTag_fillE@Base 4:4.13.90
 _ZN6Marble3kml11kmlTag_hrefE@Base 4:4.13.90
 _ZN6Marble3kml11kmlTag_nameE@Base 4:4.13.90
 _ZN6Marble3kml11kmlTag_nearE@Base 4:4.13.90
 _ZN6Marble3kml11kmlTag_openE@Base 4:4.13.90
 _ZN6Marble3kml11kmlTag_roleE@Base 4:4.13.90
 _ZN6Marble3kml11kmlTag_rollE@Base 4:4.13.90
 _ZN6Marble3kml11kmlTag_sizeE@Base 4:4.13.90
 _ZN6Marble3kml11kmlTag_textE@Base 4:4.13.90
 _ZN6Marble3kml11kmlTag_tiltE@Base 4:4.13.90
 _ZN6Marble3kml11kmlTag_westE@Base 4:4.13.90
 _ZN6Marble3kml11kmlTag_whenE@Base 4:4.13.90
 _ZN6Marble3kml12kmlTag_AliasE@Base 4:4.13.90
 _ZN6Marble3kml12kmlTag_FlyToE@Base 4:4.13.90
 _ZN6Marble3kml12kmlTag_ModelE@Base 4:4.13.90
 _ZN6Marble3kml12kmlTag_PointE@Base 4:4.13.90
 _ZN6Marble3kml12kmlTag_ScaleE@Base 4:4.13.90
 _ZN6Marble3kml12kmlTag_StyleE@Base 4:4.13.90
 _ZN6Marble3kml12kmlTag_TrackE@Base 4:4.13.90
 _ZN6Marble3kml12kmlTag_beginE@Base 4:4.13.90
 _ZN6Marble3kml12kmlTag_colorE@Base 4:4.13.90
 _ZN6Marble3kml12kmlTag_coordE@Base 4:4.13.90
 _ZN6Marble3kml12kmlTag_northE@Base 4:4.13.90
 _ZN6Marble3kml12kmlTag_rangeE@Base 4:4.13.90
 _ZN6Marble3kml12kmlTag_scaleE@Base 4:4.13.90
 _ZN6Marble3kml12kmlTag_shapeE@Base 4:4.13.90
 _ZN6Marble3kml12kmlTag_southE@Base 4:4.13.90
 _ZN6Marble3kml12kmlTag_stateE@Base 4:4.13.90
 _ZN6Marble3kml12kmlTag_valueE@Base 4:4.13.90
 _ZN6Marble3kml12kmlTag_widthE@Base 4:4.13.90
 _ZN6Marble3kml13kmlTag_CameraE@Base 4:4.13.90
 _ZN6Marble3kml13kmlTag_ChangeE@Base 4:4.13.90
 _ZN6Marble3kml13kmlTag_CreateE@Base 4:4.13.90
 _ZN6Marble3kml13kmlTag_DeleteE@Base 4:4.13.90
 _ZN6Marble3kml13kmlTag_FolderE@Base 4:4.13.90
 _ZN6Marble3kml13kmlTag_LookAtE@Base 4:4.13.90
 _ZN6Marble3kml13kmlTag_ObjectE@Base 4:4.13.90
 _ZN6Marble3kml13kmlTag_RegionE@Base 4:4.13.90
 _ZN6Marble3kml13kmlTag_SchemaE@Base 4:4.13.90
 _ZN6Marble3kml13kmlTag_StatusE@Base 4:4.13.90
 _ZN6Marble3kml13kmlTag_UpdateE@Base 4:4.13.90
 _ZN6Marble3kml13kmlTag_cookieE@Base 4:4.13.90
 _ZN6Marble3kml13kmlTag_topFovE@Base 4:4.13.90
 _ZN6Marble3kml14kmlTag_FeatureE@Base 4:4.13.90
 _ZN6Marble3kml14kmlTag_OverlayE@Base 4:4.13.90
 _ZN6Marble3kml14kmlTag_PolygonE@Base 4:4.13.90
 _ZN6Marble3kml14kmlTag_SnippetE@Base 4:4.13.90
 _ZN6Marble3kml14kmlTag_addressE@Base 4:4.13.90
 _ZN6Marble3kml14kmlTag_bgColorE@Base 4:4.13.90
 _ZN6Marble3kml14kmlTag_expiresE@Base 4:4.13.90
 _ZN6Marble3kml14kmlTag_extrudeE@Base 4:4.13.90
 _ZN6Marble3kml14kmlTag_headingE@Base 4:4.13.90
 _ZN6Marble3kml14kmlTag_hotSpotE@Base 4:4.13.90
 _ZN6Marble3kml14kmlTag_leftFovE@Base 4:4.13.90
 _ZN6Marble3kml14kmlTag_messageE@Base 4:4.13.90
 _ZN6Marble3kml14kmlTag_outlineE@Base 4:4.13.90
 _ZN6Marble3kml14kmlTag_requestE@Base 4:4.13.90
 _ZN6Marble3kml15kmlTag_DocumentE@Base 4:4.13.90
 _ZN6Marble3kml15kmlTag_GeometryE@Base 4:4.13.90
 _ZN6Marble3kml15kmlTag_ItemIconE@Base 4:4.13.90
 _ZN6Marble3kml15kmlTag_LocationE@Base 4:4.13.90
 _ZN6Marble3kml15kmlTag_MetadataE@Base 4:4.13.90
 _ZN6Marble3kml15kmlTag_ObjFieldE@Base 4:4.13.90
 _ZN6Marble3kml15kmlTag_PlaylistE@Base 4:4.13.90
 _ZN6Marble3kml15kmlTag_ResponseE@Base 4:4.13.90
 _ZN6Marble3kml15kmlTag_SoundCueE@Base 4:4.13.90
 _ZN6Marble3kml15kmlTag_StyleMapE@Base 4:4.13.90
 _ZN6Marble3kml15kmlTag_TimeSpanE@Base 4:4.13.90
 _ZN6Marble3kml15kmlTag_altitudeE@Base 4:4.13.90
 _ZN6Marble3kml15kmlTag_durationE@Base 4:4.13.90
 _ZN6Marble3kml15kmlTag_latitudeE@Base 4:4.13.90
 _ZN6Marble3kml15kmlTag_linkNameE@Base 4:4.13.90
 _ZN6Marble3kml15kmlTag_maxWidthE@Base 4:4.13.90
 _ZN6Marble3kml15kmlTag_playModeE@Base 4:4.13.90
 _ZN6Marble3kml15kmlTag_rightFovE@Base 4:4.13.90
 _ZN6Marble3kml15kmlTag_rotationE@Base 4:4.13.90
 _ZN6Marble3kml15kmlTag_screenXYE@Base 4:4.13.90
 _ZN6Marble3kml15kmlTag_styleUrlE@Base 4:4.13.90
 _ZN6Marble3kml15kmlTag_tileSizeE@Base 4:4.13.90
 _ZN6Marble3kml16kmlTag_ContainerE@Base 4:4.13.90
 _ZN6Marble3kml16kmlTag_IconStyleE@Base 4:4.13.90
 _ZN6Marble3kml16kmlTag_LatLonBoxE@Base 4:4.13.90
 _ZN6Marble3kml16kmlTag_LineStyleE@Base 4:4.13.90
 _ZN6Marble3kml16kmlTag_ListStyleE@Base 4:4.13.90
 _ZN6Marble3kml16kmlTag_PlacemarkE@Base 4:4.13.90
 _ZN6Marble3kml16kmlTag_PolyStyleE@Base 4:4.13.90
 _ZN6Marble3kml16kmlTag_TimeStampE@Base 4:4.13.90
 _ZN6Marble3kml16kmlTag_bottomFovE@Base 4:4.13.90
 _ZN6Marble3kml16kmlTag_colorModeE@Base 4:4.13.90
 _ZN6Marble3kml16kmlTag_drawOrderE@Base 4:4.13.90
 _ZN6Marble3kml16kmlTag_flyToModeE@Base 4:4.13.90
 _ZN6Marble3kml16kmlTag_flyToViewE@Base 4:4.13.90
 _ZN6Marble3kml16kmlTag_geomColorE@Base 4:4.13.90
 _ZN6Marble3kml16kmlTag_geomScaleE@Base 4:4.13.90
 _ZN6Marble3kml16kmlTag_httpQueryE@Base 4:4.13.90
 _ZN6Marble3kml16kmlTag_longitudeE@Base 4:4.13.90
 _ZN6Marble3kml16kmlTag_maxHeightE@Base 4:4.13.90
 _ZN6Marble3kml16kmlTag_overlayXYE@Base 4:4.13.90
 _ZN6Marble3kml16kmlTag_textColorE@Base 4:4.13.90
 _ZN6Marble3kml17kmlTag_ColorStyleE@Base 4:4.13.90
 _ZN6Marble3kml17kmlTag_LabelStyleE@Base 4:4.13.90
 _ZN6Marble3kml17kmlTag_LatLonQuadE@Base 4:4.13.90
 _ZN6Marble3kml17kmlTag_LineStringE@Base 4:4.13.90
 _ZN6Marble3kml17kmlTag_LinearRingE@Base 4:4.13.90
 _ZN6Marble3kml17kmlTag_MultiTrackE@Base 4:4.13.90
 _ZN6Marble3kml17kmlTag_SchemaDataE@Base 4:4.13.90
 _ZN6Marble3kml17kmlTag_ViewVolumeE@Base 4:4.13.90
 _ZN6Marble3kml17kmlTag_gridOriginE@Base 4:4.13.90
 _ZN6Marble3kml17kmlTag_labelColorE@Base 4:4.13.90
 _ZN6Marble3kml17kmlTag_rotationXYE@Base 4:4.13.90
 _ZN6Marble3kml17kmlTag_sourceHrefE@Base 4:4.13.90
 _ZN6Marble3kml17kmlTag_targetHrefE@Base 4:4.13.90
 _ZN6Marble3kml17kmlTag_tessellateE@Base 4:4.13.90
 _ZN6Marble3kml17kmlTag_viewFormatE@Base 4:4.13.90
 _ZN6Marble3kml17kmlTag_visibilityE@Base 4:4.13.90
 _ZN6Marble3kml18kmlTag_NetworkLinkE@Base 4:4.13.90
 _ZN6Marble3kml18kmlTag_OrientationE@Base 4:4.13.90
 _ZN6Marble3kml18kmlTag_ResourceMapE@Base 4:4.13.90
 _ZN6Marble3kml18kmlTag_SchemaFieldE@Base 4:4.13.90
 _ZN6Marble3kml18kmlTag_SimpleFieldE@Base 4:4.13.90
 _ZN6Marble3kml18kmlTag_TourControlE@Base 4:4.13.90
 _ZN6Marble3kml18kmlTag_coordinatesE@Base 4:4.13.90
 _ZN6Marble3kml18kmlTag_countrycodeE@Base 4:4.13.90
 _ZN6Marble3kml18kmlTag_descriptionE@Base 4:4.13.90
 _ZN6Marble3kml18kmlTag_displayModeE@Base 4:4.13.90
 _ZN6Marble3kml18kmlTag_displayNameE@Base 4:4.13.90
 _ZN6Marble3kml18kmlTag_linkSnippetE@Base 4:4.13.90
 _ZN6Marble3kml18kmlTag_maxAltitudeE@Base 4:4.13.90
 _ZN6Marble3kml18kmlTag_minAltitudeE@Base 4:4.13.90
 _ZN6Marble3kml18kmlTag_nameSpace20E@Base 4:4.13.90
 _ZN6Marble3kml18kmlTag_nameSpace21E@Base 4:4.13.90
 _ZN6Marble3kml18kmlTag_nameSpace22E@Base 4:4.13.90
 _ZN6Marble3kml18kmlTag_phoneNumberE@Base 4:4.13.90
 _ZN6Marble3kml18kmlTag_refreshModeE@Base 4:4.13.90
 _ZN6Marble3kml19kmlTag_BalloonStyleE@Base 4:4.13.90
 _ZN6Marble3kml19kmlTag_ExtendedDataE@Base 4:4.13.90
 _ZN6Marble3kml19kmlTag_ImagePyramidE@Base 4:4.13.90
 _ZN6Marble3kml19kmlTag_LatLonAltBoxE@Base 4:4.13.90
 _ZN6Marble3kml19kmlTag_PhotoOverlayE@Base 4:4.13.90
 _ZN6Marble3kml19kmlTag_altitudeModeE@Base 4:4.13.90
 _ZN6Marble3kml19kmlTag_delayedStartE@Base 4:4.13.90
 _ZN6Marble3kml19kmlTag_listItemTypeE@Base 4:4.13.90
 _ZN6Marble3kml19kmlTag_maxLodPixelsE@Base 4:4.13.90
 _ZN6Marble3kml19kmlTag_minLodPixelsE@Base 4:4.13.90
 _ZN6Marble3kml20kmlTag_GroundOverlayE@Base 4:4.13.90
 _ZN6Marble3kml20kmlTag_MultiGeometryE@Base 4:4.13.90
 _ZN6Marble3kml20kmlTag_ObjArrayFieldE@Base 4:4.13.90
 _ZN6Marble3kml20kmlTag_ScreenOverlayE@Base 4:4.13.90
 _ZN6Marble3kml20kmlTag_StyleSelectorE@Base 4:4.13.90
 _ZN6Marble3kml20kmlTag_maxFadeExtentE@Base 4:4.13.90
 _ZN6Marble3kml20kmlTag_minFadeExtentE@Base 4:4.13.90
 _ZN6Marble3kml20kmlTag_nameSpaceGx22E@Base 4:4.13.90
 _ZN6Marble3kml21kmlTag_AddressDetailsE@Base 4:4.13.90
 _ZN6Marble3kml21kmlTag_AnimatedUpdateE@Base 4:4.13.90
 _ZN6Marble3kml21kmlTag_nameSpaceOgc22E@Base 4:4.13.90
 _ZN6Marble3kml21kmlTag_viewBoundScaleE@Base 4:4.13.90
 _ZN6Marble3kml22kmlTag_CountryNameCodeE@Base 4:4.13.90
 _ZN6Marble3kml22kmlTag_MarblePlacemarkE@Base 4:4.13.90
 _ZN6Marble3kml22kmlTag_SimpleArrayDataE@Base 4:4.13.90
 _ZN6Marble3kml22kmlTag_innerBoundaryIsE@Base 4:4.13.90
 _ZN6Marble3kml22kmlTag_linkDescriptionE@Base 4:4.13.90
 _ZN6Marble3kml22kmlTag_outerBoundaryIsE@Base 4:4.13.90
 _ZN6Marble3kml22kmlTag_refreshIntervalE@Base 4:4.13.90
 _ZN6Marble3kml22kmlTag_viewRefreshModeE@Base 4:4.13.90
 _ZN6Marble3kml22kmlTag_viewRefreshTimeE@Base 4:4.13.90
 _ZN6Marble3kml23kmlTag_SimpleArrayFieldE@Base 4:4.13.90
 _ZN6Marble3kml23kmlTag_maxSessionLengthE@Base 4:4.13.90
 _ZN6Marble3kml23kmlTag_minRefreshPeriodE@Base 4:4.13.90
 _ZN6Marble3kml24kmlTag_balloonVisibilityE@Base 4:4.13.90
 _ZN6Marble3kml24kmlTag_refreshVisibilityE@Base 4:4.13.90
 _ZN6Marble3kml25kmlTag_GeometryCollectionE@Base 4:4.13.90
 _ZN6Marble3kml25kmlTag_NetworkLinkControlE@Base 4:4.13.90
 _ZN6Marble3kml8kmlTag_hE@Base 4:4.13.90
 _ZN6Marble3kml8kmlTag_wE@Base 4:4.13.90
 _ZN6Marble3kml8kmlTag_xE@Base 4:4.13.90
 _ZN6Marble3kml8kmlTag_yE@Base 4:4.13.90
 _ZN6Marble3kml8kmlTag_zE@Base 4:4.13.90
 _ZN6Marble4dgml19dgmlTag_nameSpace20E@Base 4:4.13.90
 _ZN6Marble5Route11setPositionERKNS_18GeoDataCoordinatesE@Base 4:4.13.90
 _ZN6Marble5Route15addRouteSegmentERKNS_12RouteSegmentE@Base 4:4.13.90
 _ZN6Marble5RouteC1Ev@Base 4:4.13.90
 _ZN6Marble5RouteC2Ev@Base 4:4.13.90
 _ZN6Marble6Planet10planetListEv@Base 4:4.13.90
 (subst)_ZN6Marble6Planet10setEpsilonE{qreal}@Base 4:4.13.90
 (subst)_ZN6Marble6Planet10setTheta_0E{qreal}@Base 4:4.13.90
 (subst)_ZN6Marble6Planet10setTheta_1E{qreal}@Base 4:4.13.90
 _ZN6Marble6Planet16setHasAtmosphereEb@Base 4:4.13.90
 _ZN6Marble6Planet18setAtmosphereColorERK6QColor@Base 4:4.13.90
 _ZN6Marble6Planet4nameERK7QString@Base 4:4.13.90
 _ZN6Marble6Planet5setIdERK7QString@Base 4:4.13.90
 (subst)_ZN6Marble6Planet5setPiE{qreal}@Base 4:4.13.90
 (subst)_ZN6Marble6Planet6setC_1E{qreal}@Base 4:4.13.90
 (subst)_ZN6Marble6Planet6setC_2E{qreal}@Base 4:4.13.90
 (subst)_ZN6Marble6Planet6setC_3E{qreal}@Base 4:4.13.90
 (subst)_ZN6Marble6Planet6setC_4E{qreal}@Base 4:4.13.90
 (subst)_ZN6Marble6Planet6setC_5E{qreal}@Base 4:4.13.90
 (subst)_ZN6Marble6Planet6setC_6E{qreal}@Base 4:4.13.90
 (subst)_ZN6Marble6Planet6setM_0E{qreal}@Base 4:4.13.90
 (subst)_ZN6Marble6Planet6setM_1E{qreal}@Base 4:4.13.90
 _ZN6Marble6Planet7setNameERK7QString@Base 4:4.13.90
 (subst)_ZN6Marble6Planet9setRadiusE{qreal}@Base 4:4.13.90
 _ZN6Marble6PlanetC1ERK7QString@Base 4:4.13.90
 _ZN6Marble6PlanetC1ERKS0_@Base 4:4.13.90
 _ZN6Marble6PlanetC1Ev@Base 4:4.13.90
 _ZN6Marble6PlanetC2ERK7QString@Base 4:4.13.90
 _ZN6Marble6PlanetC2ERKS0_@Base 4:4.13.90
 _ZN6Marble6PlanetC2Ev@Base 4:4.13.90
 _ZN6Marble6PlanetD1Ev@Base 4:4.13.90
 _ZN6Marble6PlanetD2Ev@Base 4:4.13.90
 _ZN6Marble6PlanetaSERKS0_@Base 4:4.13.90
 _ZN6Marble6TileId15fromCoordinatesERKNS_18GeoDataCoordinatesEi@Base 4:4.13.90
 _ZN6Marble6TileIdC1ERK7QStringiii@Base 4:4.13.90
 _ZN6Marble6TileIdC1Ejiii@Base 4:4.13.90
 _ZN6Marble6TileIdC1Ev@Base 4:4.13.90
 _ZN6Marble6TileIdC2ERK7QStringiii@Base 4:4.13.90
 _ZN6Marble6TileIdC2Ejiii@Base 4:4.13.90
 _ZN6Marble6TileIdC2Ev@Base 4:4.13.90
 _ZN6Marble6mDebugEv@Base 4:4.13.90
 _ZN6Marble7GeoNodeC1Ev@Base 4:4.13.90
 _ZN6Marble7GeoNodeC2Ev@Base 4:4.13.90
 _ZN6Marble7GeoNodeD0Ev@Base 4:4.13.90
 _ZN6Marble7GeoNodeD1Ev@Base 4:4.13.90
 _ZN6Marble7GeoNodeD2Ev@Base 4:4.13.90
 _ZN6Marble7HttpJob10redirectedEPS0_4QUrl@Base 4:4.13.90
 _ZN6Marble7HttpJob11qt_metacallEN11QMetaObject4CallEiPPv@Base 4:4.13.90
 _ZN6Marble7HttpJob11qt_metacastEPKc@Base 4:4.13.90
 _ZN6Marble7HttpJob12dataReceivedEPS0_10QByteArray@Base 4:4.13.90
 _ZN6Marble7HttpJob12setSourceUrlERK4QUrl@Base 4:4.13.90
 _ZN6Marble7HttpJob14setInitiatorIdERK7QString@Base 4:4.13.90
 _ZN6Marble7HttpJob16downloadProgressExx@Base 4:4.13.90
 _ZN6Marble7HttpJob16setDownloadUsageENS_13DownloadUsageE@Base 4:4.13.90
 _ZN6Marble7HttpJob16staticMetaObjectE@Base 4:4.13.90
 _ZN6Marble7HttpJob22setDestinationFileNameERK7QString@Base 4:4.13.90
 _ZN6Marble7HttpJob5errorEN13QNetworkReply12NetworkErrorE@Base 4:4.13.90
 _ZN6Marble7HttpJob7executeEv@Base 4:4.13.90
 _ZN6Marble7HttpJob7jobDoneEPS0_i@Base 4:4.13.90
 _ZN6Marble7HttpJob8finishedEv@Base 4:4.13.90
 _ZN6Marble7HttpJob8tryAgainEv@Base 4:4.13.90
 _ZN6Marble7HttpJobC1ERK4QUrlRK7QStringS6_P21QNetworkAccessManager@Base 4:4.13.90
 _ZN6Marble7HttpJobC2ERK4QUrlRK7QStringS6_P21QNetworkAccessManager@Base 4:4.13.90
 _ZN6Marble7HttpJobD0Ev@Base 4:4.13.90
 _ZN6Marble7HttpJobD1Ev@Base 4:4.13.90
 _ZN6Marble7HttpJobD2Ev@Base 4:4.13.90
 _ZN6Marble8Maneuver11setPositionERKNS_18GeoDataCoordinatesE@Base 4:4.13.90
 _ZN6Marble8Maneuver11setRoadNameERK7QString@Base 4:4.13.90
 _ZN6Marble8Maneuver11setWaypointERKNS_18GeoDataCoordinatesEi@Base 4:4.13.90
 _ZN6Marble8Maneuver12setDirectionENS0_9DirectionE@Base 4:4.13.90
 _ZN6Marble8Maneuver17m_turnTypePixmapsE@Base 4:4.13.90
 _ZN6Marble8Maneuver18setInstructionTextERK7QString@Base 4:4.13.90
 _ZN6Marble8ManeuverC1Ev@Base 4:4.13.90
 _ZN6Marble8ManeuverC2Ev@Base 4:4.13.90
 _ZN6Marble9GeoParser12raiseWarningERK7QString@Base 4:4.13.90
 _ZN6Marble9GeoParser13parseDocumentEv@Base 4:4.13.90
 _ZN6Marble9GeoParser15releaseDocumentEv@Base 4:4.13.90
 _ZN6Marble9GeoParser4readEP9QIODevice@Base 4:4.13.90
 _ZN6Marble9GeoParserC1Ei@Base 4:4.13.90
 _ZN6Marble9GeoParserC2Ei@Base 4:4.13.90
 _ZN6Marble9GeoParserD0Ev@Base 4:4.13.90
 _ZN6Marble9GeoParserD1Ev@Base 4:4.13.90
 _ZN6Marble9GeoParserD2Ev@Base 4:4.13.90
 _ZN6Marble9GeoWriter12writeElementEPKNS_7GeoNodeE@Base 4:4.13.90
 _ZN6Marble9GeoWriter12writeElementERK7QStringS3_@Base 4:4.13.90
 _ZN6Marble9GeoWriter12writeElementERK7QStringS3_S3_@Base 4:4.13.90
 _ZN6Marble9GeoWriter15setDocumentTypeERK7QString@Base 4:4.13.90
 _ZN6Marble9GeoWriter20writeOptionalElementERK7QStringS3_S3_@Base 4:4.13.90
 _ZN6Marble9GeoWriter5writeEP9QIODevicePKNS_7GeoNodeE@Base 4:4.13.90
 _ZN6Marble9GeoWriterC1Ev@Base 4:4.13.90
 _ZN6Marble9GeoWriterC2Ev@Base 4:4.13.90
 _ZN6Marble9MapWizard11createFilesEPKNS_16GeoSceneDocumentE@Base 4:4.13.90
 _ZN6Marble9MapWizard11qt_metacallEN11QMetaObject4CallEiPPv@Base 4:4.13.90
 _ZN6Marble9MapWizard11qt_metacastEPKc@Base 4:4.13.90
 _ZN6Marble9MapWizard11showPreviewEv@Base 4:4.13.90
 _ZN6Marble9MapWizard12createLegendEv@Base 4:4.13.90
 _ZN6Marble9MapWizard13createArchiveEP7QWidget7QString@Base 4:4.13.90
 _ZN6Marble9MapWizard13deleteArchiveE7QString@Base 4:4.13.90
 _ZN6Marble9MapWizard13setWmsServersERK11QStringList@Base 4:4.13.90
 _ZN6Marble9MapWizard14createDocumentEv@Base 4:4.13.90
 _ZN6Marble9MapWizard14downloadLegendERK7QString@Base 4:4.13.90
 _ZN6Marble9MapWizard15autoFillDetailsEv@Base 4:4.13.90
 _ZN6Marble9MapWizard15createLevelZeroEP13QNetworkReply@Base 4:4.13.90
 _ZN6Marble9MapWizard15createWmsLegendEP13QNetworkReply@Base 4:4.13.90
 _ZN6Marble9MapWizard16createLegendFileERK7QString@Base 4:4.13.90
 _ZN6Marble9MapWizard16createLegendHtmlERK7QString@Base 4:4.13.90
 _ZN6Marble9MapWizard16queryLegendImageEv@Base 4:4.13.90
 _ZN6Marble9MapWizard16querySourceImageEv@Base 4:4.13.90
 _ZN6Marble9MapWizard16staticMetaObjectE@Base 4:4.13.90
 _ZN6Marble9MapWizard17downloadLevelZeroEv@Base 4:4.13.90
 _ZN6Marble9MapWizard17queryPreviewImageEv@Base 4:4.13.90
 _ZN6Marble9MapWizard19setStaticUrlServersERK11QStringList@Base 4:4.13.90
 _ZN6Marble9MapWizard19validateCurrentPageEv@Base 4:4.13.90
 _ZN6Marble9MapWizard23parseServerCapabilitiesEP13QNetworkReply@Base 4:4.13.90
 _ZN6Marble9MapWizard23queryServerCapabilitiesEv@Base 4:4.13.90
 _ZN6Marble9MapWizard6acceptEv@Base 4:4.13.90
 _ZN6Marble9MapWizardC1EP7QWidget@Base 4:4.13.90
 _ZN6Marble9MapWizardC2EP7QWidget@Base 4:4.13.90
 _ZN6Marble9MapWizardD0Ev@Base 4:4.13.90
 _ZN6Marble9MapWizardD1Ev@Base 4:4.13.90
 _ZN6Marble9MapWizardD2Ev@Base 4:4.13.90
 _ZN6Marble9MarbleMap11customPaintEPNS_10GeoPainterE@Base 4:4.13.90
 _ZN6Marble9MarbleMap11qt_metacallEN11QMetaObject4CallEiPPv@Base 4:4.13.90
 _ZN6Marble9MarbleMap11qt_metacastEPKc@Base 4:4.13.90
 _ZN6Marble9MarbleMap11removeLayerEPNS_14LayerInterfaceE@Base 4:4.13.90
 _ZN6Marble9MarbleMap11setShowGridEb@Base 4:4.13.90
 _ZN6Marble9MarbleMap12setShowLakesEb@Base 4:4.13.90
 _ZN6Marble9MarbleMap12themeChangedERK7QString@Base 4:4.13.90
 _ZN6Marble9MarbleMap13radiusChangedEi@Base 4:4.13.90
 _ZN6Marble9MarbleMap13repaintNeededERK7QRegion@Base 4:4.13.90
 _ZN6Marble9MarbleMap13setMapThemeIdERK7QString@Base 4:4.13.90
 _ZN6Marble9MarbleMap13setProjectionENS_10ProjectionE@Base 4:4.13.90
 _ZN6Marble9MarbleMap13setShowCitiesEb@Base 4:4.13.90
 _ZN6Marble9MarbleMap13setShowCloudsEb@Base 4:4.13.90
 _ZN6Marble9MarbleMap13setShowPlacesEb@Base 4:4.13.90
 _ZN6Marble9MarbleMap13setShowReliefEb@Base 4:4.13.90
 _ZN6Marble9MarbleMap13setShowRiversEb@Base 4:4.13.90
 _ZN6Marble9MarbleMap13setShowTileIdEb@Base 4:4.13.90
 _ZN6Marble9MarbleMap14downloadRegionERK7QVectorINS_17TileCoordsPyramidEE@Base 4:4.13.90
 _ZN6Marble9MarbleMap14setDefaultFontERK5QFont@Base 4:4.13.90
 _ZN6Marble9MarbleMap14setShowBordersEb@Base 4:4.13.90
 _ZN6Marble9MarbleMap14setShowCompassEb@Base 4:4.13.90
 _ZN6Marble9MarbleMap14setShowTerrainEb@Base 4:4.13.90
 _ZN6Marble9MarbleMap14setViewContextENS_11ViewContextE@Base 4:4.13.90
 (subst)_ZN6Marble9MarbleMap15framesPerSecondE{qreal}@Base 4:4.13.90
 _ZN6Marble9MarbleMap15setShowIceLayerEb@Base 4:4.13.90
 _ZN6Marble9MarbleMap15setShowScaleBarEb@Base 4:4.13.90
 _ZN6Marble9MarbleMap16CustomPaintLayerD0Ev@Base 4:4.13.90
 _ZN6Marble9MarbleMap16CustomPaintLayerD1Ev@Base 4:4.13.90
 _ZN6Marble9MarbleMap16CustomPaintLayerD2Ev@Base 4:4.13.90
 _ZN6Marble9MarbleMap16notifyMouseClickEii@Base 4:4.13.90
 _ZN6Marble9MarbleMap16setPropertyValueERK7QStringb@Base 4:4.13.90
 _ZN6Marble9MarbleMap16setShowFrameRateEb@Base 4:4.13.90
 _ZN6Marble9MarbleMap16staticMetaObjectE@Base 4:4.13.90
 _ZN6Marble9MarbleMap16tileLevelChangedEi@Base 4:4.13.90
 _ZN6Marble9MarbleMap17projectionChangedENS_10ProjectionE@Base 4:4.13.90
 (subst)_ZN6Marble9MarbleMap17setCenterLatitudeE{qreal}@Base 4:4.13.90
 _ZN6Marble9MarbleMap17setShowAtmosphereEb@Base 4:4.13.90
 _ZN6Marble9MarbleMap17setShowBackgroundEb@Base 4:4.13.90
 _ZN6Marble9MarbleMap17setShowCityLightsEb@Base 4:4.13.90
 _ZN6Marble9MarbleMap17setShowCrosshairsEb@Base 4:4.13.90
 _ZN6Marble9MarbleMap17setShowSunShadingEb@Base 4:4.13.90
 _ZN6Marble9MarbleMap18renderStateChangedERKNS_11RenderStateE@Base 4:4.13.90
 (subst)_ZN6Marble9MarbleMap18setCenterLongitudeE{qreal}@Base 4:4.13.90
 _ZN6Marble9MarbleMap18setShowOtherPlacesEb@Base 4:4.13.90
 _ZN6Marble9MarbleMap18setShowOverviewMapEb@Base 4:4.13.90
 _ZN6Marble9MarbleMap19preferredRadiusCeilEi@Base 4:4.13.90
 _ZN6Marble9MarbleMap19renderStatusChangedENS_12RenderStatusE@Base 4:4.13.90
 _ZN6Marble9MarbleMap19setDefaultAngleUnitENS_9AngleUnitE@Base 4:4.13.90
 _ZN6Marble9MarbleMap19setShowRuntimeTraceEb@Base 4:4.13.90
 _ZN6Marble9MarbleMap20mouseMoveGeoPositionERK7QString@Base 4:4.13.90
 _ZN6Marble9MarbleMap20preferredRadiusFloorEi@Base 4:4.13.90
 (subst)_ZN6Marble9MarbleMap21mouseClickGeoPositionE{qreal}{qreal}NS_18GeoDataCoordinates4UnitE@Base 4:4.13.90
 _ZN6Marble9MarbleMap21pluginSettingsChangedEv@Base 4:4.13.90
 _ZN6Marble9MarbleMap22clearVolatileTileCacheEv@Base 4:4.13.90
 _ZN6Marble9MarbleMap22setLockToSubSolarPointEb@Base 4:4.13.90
 _ZN6Marble9MarbleMap23renderPluginInitializedEPNS_12RenderPluginE@Base 4:4.13.90
 _ZN6Marble9MarbleMap25setVolatileTileCacheLimitEy@Base 4:4.13.90
 _ZN6Marble9MarbleMap26visibleLatLonAltBoxChangedERKNS_19GeoDataLatLonAltBoxE@Base 4:4.13.90
 _ZN6Marble9MarbleMap27setMapQualityForViewContextENS_10MapQualityENS_11ViewContextE@Base 4:4.13.90
 _ZN6Marble9MarbleMap27setSubSolarPointIconVisibleEb@Base 4:4.13.90
 _ZN6Marble9MarbleMap5paintERNS_10GeoPainterERK5QRect@Base 4:4.13.90
 _ZN6Marble9MarbleMap6reloadEv@Base 4:4.13.90
 _ZN6Marble9MarbleMap7setSizeERK5QSize@Base 4:4.13.90
 _ZN6Marble9MarbleMap7setSizeEii@Base 4:4.13.90
 _ZN6Marble9MarbleMap8addLayerEPNS_14LayerInterfaceE@Base 4:4.13.90
 (subst)_ZN6Marble9MarbleMap8centerOnE{qreal}{qreal}@Base 4:4.13.90
 (subst)_ZN6Marble9MarbleMap8rotateByERK{qreal}S2_@Base 4:4.13.90
 _ZN6Marble9MarbleMap8viewportEv@Base 4:4.13.90
 _ZN6Marble9MarbleMap9setRadiusEi@Base 4:4.13.90
 _ZN6Marble9MarbleMapC1EPNS_11MarbleModelE@Base 4:4.13.90
 _ZN6Marble9MarbleMapC1Ev@Base 4:4.13.90
 _ZN6Marble9MarbleMapC2EPNS_11MarbleModelE@Base 4:4.13.90
 _ZN6Marble9MarbleMapC2Ev@Base 4:4.13.90
 _ZN6Marble9MarbleMapD0Ev@Base 4:4.13.90
 _ZN6Marble9MarbleMapD1Ev@Base 4:4.13.90
 _ZN6Marble9MarbleMapD2Ev@Base 4:4.13.90
 _ZN6Marble9MergeItem10setActionAENS0_6ActionE@Base 4:4.13.90
 _ZN6Marble9MergeItem10setActionBENS0_6ActionE@Base 4:4.13.90
 _ZN6Marble9MergeItem11qt_metacallEN11QMetaObject4CallEiPPv@Base 4:4.13.90
 _ZN6Marble9MergeItem11qt_metacastEPKc@Base 4:4.13.90
 _ZN6Marble9MergeItem12nameAChangedEv@Base 4:4.13.90
 _ZN6Marble9MergeItem12nameBChangedEv@Base 4:4.13.90
 _ZN6Marble9MergeItem12pathAChangedEv@Base 4:4.13.90
 _ZN6Marble9MergeItem12pathBChangedEv@Base 4:4.13.90
 _ZN6Marble9MergeItem13setPlacemarkAERKNS_16GeoDataPlacemarkE@Base 4:4.13.90
 _ZN6Marble9MergeItem13setPlacemarkBERKNS_16GeoDataPlacemarkE@Base 4:4.13.90
 _ZN6Marble9MergeItem13setResolutionENS0_10ResolutionE@Base 4:4.13.90
 _ZN6Marble9MergeItem14actionAChangedEv@Base 4:4.13.90
 _ZN6Marble9MergeItem14actionBChangedEv@Base 4:4.13.90
 _ZN6Marble9MergeItem16staticMetaObjectE@Base 4:4.13.90
 _ZN6Marble9MergeItem17placemarkAChangedEv@Base 4:4.13.90
 _ZN6Marble9MergeItem17placemarkBChangedEv@Base 4:4.13.90
 _ZN6Marble9MergeItem17resolutionChangedEv@Base 4:4.13.90
 _ZN6Marble9MergeItem19descriptionAChangedEv@Base 4:4.13.90
 _ZN6Marble9MergeItem19descriptionBChangedEv@Base 4:4.13.90
 _ZN6Marble9MergeItem7actionAEv@Base 4:4.13.90
 _ZN6Marble9MergeItem8setPathAERK7QString@Base 4:4.13.90
 _ZN6Marble9MergeItem8setPathBERK7QString@Base 4:4.13.90
 _ZN6Marble9MergeItemC1Ev@Base 4:4.13.90
 _ZN6Marble9MergeItemC2Ev@Base 4:4.13.90
 _ZN6Marble9MergeItemD0Ev@Base 4:4.13.90
 _ZN6Marble9MergeItemD1Ev@Base 4:4.13.90
 _ZN6Marble9MergeItemD2Ev@Base 4:4.13.90
 _ZN6MarbleeqERKNS_16GeoDataLatLonBoxES2_@Base 4:4.13.90
 _ZN6MarbleeqERKNS_19GeoDataLatLonAltBoxES2_@Base 4:4.13.90
 _ZN6MarbleneERKNS_16GeoDataLatLonBoxES2_@Base 4:4.13.90
 _ZNK13MarbleWebView10metaObjectEv@Base 4:4.13.90
 _ZNK22KDescendantsProxyModel10headerDataEiN2Qt11OrientationEi@Base 4:4.13.90
 _ZNK22KDescendantsProxyModel10metaObjectEv@Base 4:4.13.90
 _ZNK22KDescendantsProxyModel11columnCountERK11QModelIndex@Base 4:4.13.90
 _ZNK22KDescendantsProxyModel11hasChildrenERK11QModelIndex@Base 4:4.13.90
 _ZNK22KDescendantsProxyModel11mapToSourceERK11QModelIndex@Base 4:4.13.90
 _ZNK22KDescendantsProxyModel13mapFromSourceERK11QModelIndex@Base 4:4.13.90
 _ZNK22KDescendantsProxyModel17ancestorSeparatorEv@Base 4:4.13.90
 _ZNK22KDescendantsProxyModel19displayAncestorDataEv@Base 4:4.13.90
 _ZNK22KDescendantsProxyModel20supportedDropActionsEv@Base 4:4.13.90
 _ZNK22KDescendantsProxyModel4dataERK11QModelIndexi@Base 4:4.13.90
 _ZNK22KDescendantsProxyModel5flagsERK11QModelIndex@Base 4:4.13.90
 _ZNK22KDescendantsProxyModel5indexEiiRK11QModelIndex@Base 4:4.13.90
 _ZNK22KDescendantsProxyModel5matchERK11QModelIndexiRK8QVarianti6QFlagsIN2Qt9MatchFlagEE@Base 4:4.13.90
 _ZNK22KDescendantsProxyModel6parentERK11QModelIndex@Base 4:4.13.90
 _ZNK22KDescendantsProxyModel8mimeDataERK5QListI11QModelIndexE@Base 4:4.13.90
 _ZNK22KDescendantsProxyModel8rowCountERK11QModelIndex@Base 4:4.13.90
 _ZNK22KDescendantsProxyModel9mimeTypesEv@Base 4:4.13.90
 _ZNK6Marble10GeoDataLod12maxLodPixelsEv@Base 4:4.13.90
 _ZNK6Marble10GeoDataLod12minLodPixelsEv@Base 4:4.13.90
 _ZNK6Marble10GeoDataLod13maxFadeExtentEv@Base 4:4.13.90
 _ZNK6Marble10GeoDataLod13minFadeExtentEv@Base 4:4.13.90
 _ZNK6Marble10GeoDataLod4packER11QDataStream@Base 4:4.13.90
 _ZNK6Marble10GeoDataLod8nodeTypeEv@Base 4:4.13.90
 _ZNK6Marble10GeoDataLodeqERKS0_@Base 4:4.13.90
 _ZNK6Marble10GeoDataLodneERKS0_@Base 4:4.13.90
 _ZNK6Marble10GeoPainter10mapQualityEv@Base 4:4.13.90
 (subst)_ZNK6Marble10GeoPainter14regionFromRectERKNS_18GeoDataCoordinatesE{qreal}{qreal}b{qreal}@Base 4:4.13.90
 (subst)_ZNK6Marble10GeoPainter15regionFromPointERKNS_12GeoDataPointE{qreal}@Base 4:4.13.90
 (subst)_ZNK6Marble10GeoPainter15regionFromPointERKNS_18GeoDataCoordinatesE{qreal}@Base 4:4.13.90
 (subst)_ZNK6Marble10GeoPainter17regionFromEllipseERKNS_18GeoDataCoordinatesE{qreal}{qreal}b{qreal}@Base 4:4.13.90
 (subst)_ZNK6Marble10GeoPainter17regionFromPolygonERKNS_17GeoDataLinearRingEN2Qt8FillRuleE{qreal}@Base 4:4.13.90
 (subst)_ZNK6Marble10GeoPainter18regionFromPolylineERKNS_17GeoDataLineStringE{qreal}@Base 4:4.13.90
 _ZNK6Marble10GoToDialog10metaObjectEv@Base 4:4.13.90
 _ZNK6Marble10GoToDialog11coordinatesEv@Base 4:4.13.90
 _ZNK6Marble10LatLonEdit10metaObjectEv@Base 4:4.13.90
 _ZNK6Marble10LatLonEdit5valueEv@Base 4:4.13.90
 _ZNK6Marble10LatLonEdit8notationEv@Base 4:4.13.90
 _ZNK6Marble10PopupLayer10metaObjectEv@Base 4:4.13.90
 _ZNK6Marble10PopupLayer11renderStateEv@Base 4:4.13.90
 _ZNK6Marble10PopupLayer14renderPositionEv@Base 4:4.13.90
 _ZNK6Marble10PopupLayer6zValueEv@Base 4:4.13.90
 _ZNK6Marble10PopupLayer7visibleEv@Base 4:4.13.90
 (subst)_ZNK6Marble10Quaternion12getSphericalER{qreal}S1_@Base 4:4.13.90
 _ZNK6Marble10Quaternion3expEv@Base 4:4.13.90
 _ZNK6Marble10Quaternion3logEv@Base 4:4.13.90
 _ZNK6Marble10Quaternion3yawEv@Base 4:4.13.90
 _ZNK6Marble10Quaternion4rollEv@Base 4:4.13.90
 _ZNK6Marble10Quaternion5pitchEv@Base 4:4.13.90
 _ZNK6Marble10Quaternion6lengthEv@Base 4:4.13.90
 _ZNK6Marble10Quaternion7inverseEv@Base 4:4.13.90
 (subst)_ZNK6Marble10Quaternion8toMatrixERA3_A4_{qreal}@Base 4:4.13.90
 _ZNK6Marble10QuaternioneqERKS0_@Base 4:4.13.90
 _ZNK6Marble10QuaternionmlERKS0_@Base 4:4.13.90
 (subst)_ZNK6Marble10QuaternionmlE{qreal}@Base 4:4.13.90
 _ZNK6Marble10QuaternionplERKS0_@Base 4:4.13.90
 _ZNK6Marble10SunLocator10metaObjectEv@Base 4:4.13.90
 (subst)_ZNK6Marble10SunLocator10shadePixelERj{qreal}@Base 4:4.13.90
 (subst)_ZNK6Marble10SunLocator19shadePixelCompositeERjRKj{qreal}@Base 4:4.13.90
 _ZNK6Marble10SunLocator6getLatEv@Base 4:4.13.90
 _ZNK6Marble10SunLocator6getLonEv@Base 4:4.13.90
 (subst)_ZNK6Marble10SunLocator7shadingE{qreal}{qreal}{qreal}@Base 4:4.13.90
 _ZNK6Marble10TourWidget10metaObjectEv@Base 4:4.13.90
 _ZNK6Marble11ClipPainter10isClippingEv@Base 4:4.13.90
 _ZNK6Marble11GeoDataData11displayNameEv@Base 4:4.13.90
 _ZNK6Marble11GeoDataData4nameEv@Base 4:4.13.90
 _ZNK6Marble11GeoDataData4packER11QDataStream@Base 4:4.13.90
 _ZNK6Marble11GeoDataData5valueEv@Base 4:4.13.90
 _ZNK6Marble11GeoDataData8nodeTypeEv@Base 4:4.13.90
 _ZNK6Marble11GeoDataDataeqERKS0_@Base 4:4.13.90
 _ZNK6Marble11GeoDataDataneERKS0_@Base 4:4.13.90
 _ZNK6Marble11GeoDataLink10viewFormatEv@Base 4:4.13.90
 _ZNK6Marble11GeoDataLink11refreshModeEv@Base 4:4.13.90
 _ZNK6Marble11GeoDataLink14viewBoundScaleEv@Base 4:4.13.90
 _ZNK6Marble11GeoDataLink15refreshIntervalEv@Base 4:4.13.90
 _ZNK6Marble11GeoDataLink15viewRefreshModeEv@Base 4:4.13.90
 _ZNK6Marble11GeoDataLink15viewRefreshTimeEv@Base 4:4.13.90
 _ZNK6Marble11GeoDataLink4hrefEv@Base 4:4.13.90
 _ZNK6Marble11GeoDataLink8nodeTypeEv@Base 4:4.13.90
 _ZNK6Marble11GeoDataLink9httpQueryEv@Base 4:4.13.90
 _ZNK6Marble11GeoDataTour8nodeTypeEv@Base 4:4.13.90
 _ZNK6Marble11GeoDataTour8playlistEv@Base 4:4.13.90
 _ZNK6Marble11GeoDataToureqERKS0_@Base 4:4.13.90
 _ZNK6Marble11GeoDataTourneERKS0_@Base 4:4.13.90
 _ZNK6Marble11GeoDataVec25xunitEv@Base 4:4.13.90
 _ZNK6Marble11GeoDataVec25yunitEv@Base 4:4.13.90
 _ZNK6Marble11GeoDataVec2eqERKS0_@Base 4:4.13.90
 _ZNK6Marble11GeoDataVec2neERKS0_@Base 4:4.13.90
 _ZNK6Marble11GeoDataWait8durationEv@Base 4:4.13.90
 _ZNK6Marble11GeoDataWait8nodeTypeEv@Base 4:4.13.90
 _ZNK6Marble11GeoDataWaiteqERKS0_@Base 4:4.13.90
 _ZNK6Marble11GeoDataWaitneERKS0_@Base 4:4.13.90
 _ZNK6Marble11GeoDocument17isGeoDataDocumentEv@Base 4:4.13.90
 _ZNK6Marble11GeoDocument18isGeoSceneDocumentEv@Base 4:4.13.90
 _ZNK6Marble11GeoSceneMap10labelColorEv@Base 4:4.13.90
 _ZNK6Marble11GeoSceneMap15backgroundColorEv@Base 4:4.13.90
 _ZNK6Marble11GeoSceneMap15hasVectorLayersEv@Base 4:4.13.90
 _ZNK6Marble11GeoSceneMap16hasTextureLayersEv@Base 4:4.13.90
 _ZNK6Marble11GeoSceneMap5layerERK7QString@Base 4:4.13.90
 _ZNK6Marble11GeoSceneMap6layersEv@Base 4:4.13.90
 _ZNK6Marble11GeoSceneMap7filtersEv@Base 4:4.13.90
 _ZNK6Marble11GeoSceneMap8nodeTypeEv@Base 4:4.13.90
 _ZNK6Marble11MarbleClock10metaObjectEv@Base 4:4.13.90
 _ZNK6Marble11MarbleClock11dayFractionEv@Base 4:4.13.90
 _ZNK6Marble11MarbleClock14updateIntervalEv@Base 4:4.13.90
 _ZNK6Marble11MarbleClock5speedEv@Base 4:4.13.90
 _ZNK6Marble11MarbleClock8dateTimeEv@Base 4:4.13.90
 _ZNK6Marble11MarbleClock8timezoneEv@Base 4:4.13.90
 _ZNK6Marble11MarbleModel10clockSpeedEv@Base 4:4.13.90
 _ZNK6Marble11MarbleModel10mapThemeIdEv@Base 4:4.13.90
 _ZNK6Marble11MarbleModel10metaObjectEv@Base 4:4.13.90
 _ZNK6Marble11MarbleModel10planetNameEv@Base 4:4.13.90
 _ZNK6Marble11MarbleModel10sunLocatorEv@Base 4:4.13.90
 _ZNK6Marble11MarbleModel11workOfflineEv@Base 4:4.13.90
 _ZNK6Marble11MarbleModel12planetRadiusEv@Base 4:4.13.90
 _ZNK6Marble11MarbleModel13clockDateTimeEv@Base 4:4.13.90
 _ZNK6Marble11MarbleModel13clockTimezoneEv@Base 4:4.13.90
 _ZNK6Marble11MarbleModel13pluginManagerEv@Base 4:4.13.90
 _ZNK6Marble11MarbleModel14elevationModelEv@Base 4:4.13.90
 _ZNK6Marble11MarbleModel14placemarkModelEv@Base 4:4.13.90
 _ZNK6Marble11MarbleModel14routingManagerEv@Base 4:4.13.90
 _ZNK6Marble11MarbleModel15downloadManagerEv@Base 4:4.13.90
 _ZNK6Marble11MarbleModel16positionTrackingEv@Base 4:4.13.90
 _ZNK6Marble11MarbleModel16trackedPlacemarkEv@Base 4:4.13.90
 _ZNK6Marble11MarbleModel18groundOverlayModelEv@Base 4:4.13.90
 _ZNK6Marble11MarbleModel24persistentTileCacheLimitEv@Base 4:4.13.90
 (subst)_ZNK6Marble11MarbleModel4homeER{qreal}S1_Ri@Base 4:4.13.90
 _ZNK6Marble11MarbleModel5clockEv@Base 4:4.13.90
 _ZNK6Marble11MarbleModel6planetEv@Base 4:4.13.90
 _ZNK6Marble11MarbleModel8mapThemeEv@Base 4:4.13.90
 _ZNK6Marble11MarbleModel8planetIdEv@Base 4:4.13.90
 _ZNK6Marble11MarbleModel9treeModelEv@Base 4:4.13.90
 _ZNK6Marble11RenderState4nameEv@Base 4:4.13.90
 _ZNK6Marble11RenderState6statusEv@Base 4:4.13.90
 _ZNK6Marble11RenderState7Private13minimumStatusENS_12RenderStatusES2_@Base 4:4.13.90
 _ZNK6Marble11RenderState7Private6statusEv@Base 4:4.13.90
 _ZNK6Marble11RenderState7Private8toStringERKS0_i@Base 4:4.13.90
 _ZNK6Marble11RenderState7childAtEi@Base 4:4.13.90
 _ZNK6Marble11RenderState8childrenEv@Base 4:4.13.90
 _ZNK6Marble11RenderStatecv7QStringEv@Base 4:4.13.90
 _ZNK6Marble11TileCreator10metaObjectEv@Base 4:4.13.90
 _ZNK6Marble11TileCreator10tileFormatEv@Base 4:4.13.90
 _ZNK6Marble11TileCreator11tileQualityEv@Base 4:4.13.90
 _ZNK6Marble11TileCreator17verifyExactResultEv@Base 4:4.13.90
 _ZNK6Marble11TileCreator6resumeEv@Base 4:4.13.90
 _ZNK6Marble12GeoDataAlias10sourceHrefEv@Base 4:4.13.90
 _ZNK6Marble12GeoDataAlias10targetHrefEv@Base 4:4.13.90
 _ZNK6Marble12GeoDataAlias8nodeTypeEv@Base 4:4.13.90
 _ZNK6Marble12GeoDataAliaseqERKS0_@Base 4:4.13.90
 _ZNK6Marble12GeoDataAliasneERKS0_@Base 4:4.13.90
 _ZNK6Marble12GeoDataFlyTo4viewEv@Base 4:4.13.90
 _ZNK6Marble12GeoDataFlyTo8durationEv@Base 4:4.13.90
 _ZNK6Marble12GeoDataFlyTo8nodeTypeEv@Base 4:4.13.90
 _ZNK6Marble12GeoDataFlyTo9flyToModeEv@Base 4:4.13.90
 _ZNK6Marble12GeoDataFlyToeqERKS0_@Base 4:4.13.90
 _ZNK6Marble12GeoDataFlyToneERKS0_@Base 4:4.13.90
 _ZNK6Marble12GeoDataModel10sourceHrefEv@Base 4:4.13.90
 _ZNK6Marble12GeoDataModel10targetHrefEv@Base 4:4.13.90
 _ZNK6Marble12GeoDataModel11coordinatesEv@Base 4:4.13.90
 _ZNK6Marble12GeoDataModel11orientationEv@Base 4:4.13.90
 _ZNK6Marble12GeoDataModel11resourceMapEv@Base 4:4.13.90
 _ZNK6Marble12GeoDataModel4linkEv@Base 4:4.13.90
 _ZNK6Marble12GeoDataModel5scaleEv@Base 4:4.13.90
 _ZNK6Marble12GeoDataModel8locationEv@Base 4:4.13.90
 _ZNK6Marble12GeoDataModel8nodeTypeEv@Base 4:4.13.90
 _ZNK6Marble12GeoDataModeleqERKS0_@Base 4:4.13.90
 _ZNK6Marble12GeoDataModelneERKS0_@Base 4:4.13.90
 _ZNK6Marble12GeoDataPoint11coordinatesEv@Base 4:4.13.90
 _ZNK6Marble12GeoDataPoint1pEv@Base 4:4.13.90
 _ZNK6Marble12GeoDataPoint4packER11QDataStream@Base 4:4.13.90
 _ZNK6Marble12GeoDataPoint8nodeTypeEv@Base 4:4.13.90
 _ZNK6Marble12GeoDataPointeqERKS0_@Base 4:4.13.90
 _ZNK6Marble12GeoDataPointneERKS0_@Base 4:4.13.90
 _ZNK6Marble12GeoDataScale1xEv@Base 4:4.13.90
 _ZNK6Marble12GeoDataScale1yEv@Base 4:4.13.90
 _ZNK6Marble12GeoDataScale1zEv@Base 4:4.13.90
 _ZNK6Marble12GeoDataScale8nodeTypeEv@Base 4:4.13.90
 _ZNK6Marble12GeoDataScaleeqERKS0_@Base 4:4.13.90
 _ZNK6Marble12GeoDataScaleneERKS0_@Base 4:4.13.90
 _ZNK6Marble12GeoDataStyle10labelStyleEv@Base 4:4.13.90
 _ZNK6Marble12GeoDataStyle12balloonStyleEv@Base 4:4.13.90
 _ZNK6Marble12GeoDataStyle4packER11QDataStream@Base 4:4.13.90
 _ZNK6Marble12GeoDataStyle8nodeTypeEv@Base 4:4.13.90
 _ZNK6Marble12GeoDataStyle9iconStyleEv@Base 4:4.13.90
 _ZNK6Marble12GeoDataStyle9lineStyleEv@Base 4:4.13.90
 _ZNK6Marble12GeoDataStyle9listStyleEv@Base 4:4.13.90
 _ZNK6Marble12GeoDataStyle9polyStyleEv@Base 4:4.13.90
 _ZNK6Marble12GeoDataStyleeqERKS0_@Base 4:4.13.90
 _ZNK6Marble12GeoDataStyleneERKS0_@Base 4:4.13.90
 _ZNK6Marble12GeoDataTrack10geometryIdEv@Base 4:4.13.90
 _ZNK6Marble12GeoDataTrack10lineStringEv@Base 4:4.13.90
 _ZNK6Marble12GeoDataTrack11interpolateEv@Base 4:4.13.90
 _ZNK6Marble12GeoDataTrack12extendedDataEv@Base 4:4.13.90
 _ZNK6Marble12GeoDataTrack12latLonAltBoxEv@Base 4:4.13.90
 _ZNK6Marble12GeoDataTrack13coordinatesAtERK9QDateTime@Base 4:4.13.90
 _ZNK6Marble12GeoDataTrack13coordinatesAtEi@Base 4:4.13.90
 _ZNK6Marble12GeoDataTrack15coordinatesListEv@Base 4:4.13.90
 _ZNK6Marble12GeoDataTrack4packER11QDataStream@Base 4:4.13.90
 _ZNK6Marble12GeoDataTrack4sizeEv@Base 4:4.13.90
 _ZNK6Marble12GeoDataTrack8lastWhenEv@Base 4:4.13.90
 _ZNK6Marble12GeoDataTrack8nodeTypeEv@Base 4:4.13.90
 _ZNK6Marble12GeoDataTrack8whenListEv@Base 4:4.13.90
 _ZNK6Marble12GeoDataTrack9firstWhenEv@Base 4:4.13.90
 _ZNK6Marble12GeoDataTrackeqERKS0_@Base 4:4.13.90
 _ZNK6Marble12GeoDataTrackneERKS0_@Base 4:4.13.90
 _ZNK6Marble12GeoSceneHead10mapThemeIdEv@Base 4:4.13.90
 _ZNK6Marble12GeoSceneHead11descriptionEv@Base 4:4.13.90
 _ZNK6Marble12GeoSceneHead4iconEv@Base 4:4.13.90
 _ZNK6Marble12GeoSceneHead4nameEv@Base 4:4.13.90
 _ZNK6Marble12GeoSceneHead4zoomEv@Base 4:4.13.90
 _ZNK6Marble12GeoSceneHead5themeEv@Base 4:4.13.90
 _ZNK6Marble12GeoSceneHead6radiusEv@Base 4:4.13.90
 _ZNK6Marble12GeoSceneHead6targetEv@Base 4:4.13.90
 _ZNK6Marble12GeoSceneHead7licenseEv@Base 4:4.13.90
 _ZNK6Marble12GeoSceneHead7visibleEv@Base 4:4.13.90
 _ZNK6Marble12GeoSceneHead8nodeTypeEv@Base 4:4.13.90
 _ZNK6Marble12GeoSceneIcon5colorEv@Base 4:4.13.90
 _ZNK6Marble12GeoSceneIcon6pixmapEv@Base 4:4.13.90
 _ZNK6Marble12GeoSceneItem4iconEv@Base 4:4.13.90
 _ZNK6Marble12GeoSceneItem4nameEv@Base 4:4.13.90
 _ZNK6Marble12GeoSceneItem4textEv@Base 4:4.13.90
 _ZNK6Marble12GeoSceneItem7spacingEv@Base 4:4.13.90
 _ZNK6Marble12GeoSceneItem8nodeTypeEv@Base 4:4.13.90
 _ZNK6Marble12GeoSceneItem9checkableEv@Base 4:4.13.90
 _ZNK6Marble12GeoSceneItem9connectToEv@Base 4:4.13.90
 _ZNK6Marble12GeoSceneZoom7maximumEv@Base 4:4.13.90
 _ZNK6Marble12GeoSceneZoom7minimumEv@Base 4:4.13.90
 _ZNK6Marble12GeoSceneZoom8discreteEv@Base 4:4.13.90
 _ZNK6Marble12GeoUriParser11coordinatesEv@Base 4:4.13.90
 _ZNK6Marble12GeoUriParser6geoUriEv@Base 4:4.13.90
 _ZNK6Marble12GeoUriParser6planetEv@Base 4:4.13.90
 _ZNK6Marble12LegendWidget10metaObjectEv@Base 4:4.13.90
 _ZNK6Marble12MarbleGlobal6localeEv@Base 4:4.13.90
 _ZNK6Marble12MarbleGlobal8profilesEv@Base 4:4.13.90
 _ZNK6Marble12MarbleLocale17measurementSystemEv@Base 4:4.13.90
 _ZNK6Marble12MarbleWidget10floatItemsEv@Base 4:4.13.90
 _ZNK6Marble12MarbleWidget10focusPointEv@Base 4:4.13.90
 _ZNK6Marble12MarbleWidget10mapQualityENS_11ViewContextE@Base 4:4.13.90
 _ZNK6Marble12MarbleWidget10mapThemeIdEv@Base 4:4.13.90
 _ZNK6Marble12MarbleWidget10metaObjectEv@Base 4:4.13.90
 _ZNK6Marble12MarbleWidget10projectionEv@Base 4:4.13.90
 _ZNK6Marble12MarbleWidget10showCitiesEv@Base 4:4.13.90
 _ZNK6Marble12MarbleWidget10showCloudsEv@Base 4:4.13.90
 _ZNK6Marble12MarbleWidget10showPlacesEv@Base 4:4.13.90
 _ZNK6Marble12MarbleWidget10showReliefEv@Base 4:4.13.90
 _ZNK6Marble12MarbleWidget10showRiversEv@Base 4:4.13.90
 _ZNK6Marble12MarbleWidget11defaultFontEv@Base 4:4.13.90
 _ZNK6Marble12MarbleWidget11maximumZoomEv@Base 4:4.13.90
 _ZNK6Marble12MarbleWidget11minimumZoomEv@Base 4:4.13.90
 _ZNK6Marble12MarbleWidget11renderStateEv@Base 4:4.13.90
 _ZNK6Marble12MarbleWidget11showBordersEv@Base 4:4.13.90
 _ZNK6Marble12MarbleWidget11showCompassEv@Base 4:4.13.90
 _ZNK6Marble12MarbleWidget11showTerrainEv@Base 4:4.13.90
 _ZNK6Marble12MarbleWidget11viewContextEv@Base 4:4.13.90
 _ZNK6Marble12MarbleWidget11whichItemAtERK6QPoint@Base 4:4.13.90
 _ZNK6Marble12MarbleWidget12inputHandlerEv@Base 4:4.13.90
 _ZNK6Marble12MarbleWidget12renderStatusEv@Base 4:4.13.90
 _ZNK6Marble12MarbleWidget12showIceLayerEv@Base 4:4.13.90
 _ZNK6Marble12MarbleWidget12showScaleBarEv@Base 4:4.13.90
 _ZNK6Marble12MarbleWidget12textureLayerEv@Base 4:4.13.90
 _ZNK6Marble12MarbleWidget13renderPluginsEv@Base 4:4.13.90
 _ZNK6Marble12MarbleWidget13showFrameRateEv@Base 4:4.13.90
 _ZNK6Marble12MarbleWidget13tileZoomLevelEv@Base 4:4.13.90
 _ZNK6Marble12MarbleWidget14centerLatitudeEv@Base 4:4.13.90
 _ZNK6Marble12MarbleWidget14distanceStringEv@Base 4:4.13.90
 (subst)_ZNK6Marble12MarbleWidget14geoCoordinatesEiiR{qreal}S1_NS_18GeoDataCoordinates4UnitE@Base 4:4.13.90
 _ZNK6Marble12MarbleWidget14showAtmosphereEv@Base 4:4.13.90
 _ZNK6Marble12MarbleWidget14showBackgroundEv@Base 4:4.13.90
 _ZNK6Marble12MarbleWidget14showCityLightsEv@Base 4:4.13.90
 _ZNK6Marble12MarbleWidget14showCrosshairsEv@Base 4:4.13.90
 _ZNK6Marble12MarbleWidget14showSunShadingEv@Base 4:4.13.90
 _ZNK6Marble12MarbleWidget14whichFeatureAtERK6QPoint@Base 4:4.13.90
 _ZNK6Marble12MarbleWidget15centerLongitudeEv@Base 4:4.13.90
 _ZNK6Marble12MarbleWidget15showOtherPlacesEv@Base 4:4.13.90
 _ZNK6Marble12MarbleWidget15showOverviewMapEv@Base 4:4.13.90
 _ZNK6Marble12MarbleWidget16defaultAngleUnitEv@Base 4:4.13.90
 (subst)_ZNK6Marble12MarbleWidget16distanceFromZoomE{qreal}@Base 4:4.13.90
 (subst)_ZNK6Marble12MarbleWidget16zoomFromDistanceE{qreal}@Base 4:4.13.90
 _ZNK6Marble12MarbleWidget17animationsEnabledEv@Base 4:4.13.90
 (subst)_ZNK6Marble12MarbleWidget17screenCoordinatesE{qreal}{qreal}R{qreal}S1_@Base 4:4.13.90
 (subst)_ZNK6Marble12MarbleWidget18distanceFromRadiusE{qreal}@Base 4:4.13.90
 (subst)_ZNK6Marble12MarbleWidget18radiusFromDistanceE{qreal}@Base 4:4.13.90
 _ZNK6Marble12MarbleWidget19writePluginSettingsER9QSettings@Base 4:4.13.90
 _ZNK6Marble12MarbleWidget22volatileTileCacheLimitEv@Base 4:4.13.90
 _ZNK6Marble12MarbleWidget23isLockedToSubSolarPointEv@Base 4:4.13.90
 _ZNK6Marble12MarbleWidget26isSubSolarPointIconVisibleEv@Base 4:4.13.90
 _ZNK6Marble12MarbleWidget4zoomEv@Base 4:4.13.90
 _ZNK6Marble12MarbleWidget5modelEv@Base 4:4.13.90
 _ZNK6Marble12MarbleWidget6lookAtEv@Base 4:4.13.90
 _ZNK6Marble12MarbleWidget6radiusEv@Base 4:4.13.90
 _ZNK6Marble12MarbleWidget8distanceEv@Base 4:4.13.90
 _ZNK6Marble12MarbleWidget8mapThemeEv@Base 4:4.13.90
 _ZNK6Marble12MarbleWidget8moveStepEv@Base 4:4.13.90
 _ZNK6Marble12MarbleWidget8showGridEv@Base 4:4.13.90
 _ZNK6Marble12MarbleWidget8viewportEv@Base 4:4.13.90
 _ZNK6Marble12MarbleWidget9floatItemERK7QString@Base 4:4.13.90
 _ZNK6Marble12MarbleWidget9mapRegionEv@Base 4:4.13.90
 _ZNK6Marble12MarbleWidget9showLakesEv@Base 4:4.13.90
 _ZNK6Marble12MovieCapture10metaObjectEv@Base 4:4.13.90
 _ZNK6Marble12MovieCapture11destinationEv@Base 4:4.13.90
 _ZNK6Marble12MovieCapture3fpsEv@Base 4:4.13.90
 _ZNK6Marble12RenderPlugin10metaObjectEv@Base 4:4.13.90
 _ZNK6Marble12RenderPlugin10renderTypeEv@Base 4:4.13.90
 _ZNK6Marble12RenderPlugin11marbleModelEv@Base 4:4.13.90
 _ZNK6Marble12RenderPlugin11renderStateEv@Base 4:4.13.90
 _ZNK6Marble12RenderPlugin11settingKeysEv@Base 4:4.13.90
 _ZNK6Marble12RenderPlugin12actionGroupsEv@Base 4:4.13.90
 _ZNK6Marble12RenderPlugin12runtimeTraceEv@Base 4:4.13.90
 _ZNK6Marble12RenderPlugin15isUserCheckableEv@Base 4:4.13.90
 _ZNK6Marble12RenderPlugin19toolbarActionGroupsEv@Base 4:4.13.90
 _ZNK6Marble12RenderPlugin6actionEv@Base 4:4.13.90
 _ZNK6Marble12RenderPlugin7enabledEv@Base 4:4.13.90
 _ZNK6Marble12RenderPlugin7settingERK7QString@Base 4:4.13.90
 _ZNK6Marble12RenderPlugin7visibleEv@Base 4:4.13.90
 _ZNK6Marble12RenderPlugin8settingsEv@Base 4:4.13.90
 _ZNK6Marble12RouteRequest10metaObjectEv@Base 4:4.13.90
 _ZNK6Marble12RouteRequest11destinationEv@Base 4:4.13.90
 _ZNK6Marble12RouteRequest14routingProfileEv@Base 4:4.13.90
 _ZNK6Marble12RouteRequest2atEi@Base 4:4.13.90
 _ZNK6Marble12RouteRequest4nameEi@Base 4:4.13.90
 _ZNK6Marble12RouteRequest4sizeEv@Base 4:4.13.90
 _ZNK6Marble12RouteRequest6pixmapEiii@Base 4:4.13.90
 _ZNK6Marble12RouteRequest6sourceEv@Base 4:4.13.90
 _ZNK6Marble12RouteRequest7visitedEi@Base 4:4.13.90
 _ZNK6Marble12RouteRequestixEi@Base 4:4.13.90
 _ZNK6Marble12RouteSegment10distanceToERKNS_18GeoDataCoordinatesERS1_S4_@Base 4:4.13.90
 _ZNK6Marble12RouteSegment10travelTimeEv@Base 4:4.13.90
 _ZNK6Marble12RouteSegment16nextRouteSegmentEv@Base 4:4.13.90
 _ZNK6Marble12RouteSegment17minimalDistanceToERKNS_18GeoDataCoordinatesE@Base 4:4.13.90
 _ZNK6Marble12RouteSegment4pathEv@Base 4:4.13.90
 _ZNK6Marble12RouteSegment6boundsEv@Base 4:4.13.90
 _ZNK6Marble12RouteSegment7isValidEv@Base 4:4.13.90
 _ZNK6Marble12RouteSegment8distanceEv@Base 4:4.13.90
 _ZNK6Marble12RouteSegment8maneuverEv@Base 4:4.13.90
 _ZNK6Marble12RouteSegmenteqERKS0_@Base 4:4.13.90
 _ZNK6Marble12RouteSegmentneERKS0_@Base 4:4.13.90
 _ZNK6Marble12RoutingModel10headerDataEiN2Qt11OrientationEi@Base 4:4.13.90
 _ZNK6Marble12RoutingModel10metaObjectEv@Base 4:4.13.90
 _ZNK6Marble12RoutingModel13rightNeighborERKNS_18GeoDataCoordinatesEPKNS_12RouteRequestE@Base 4:4.13.90
 _ZNK6Marble12RoutingModel17deviatedFromRouteEv@Base 4:4.13.90
 _ZNK6Marble12RoutingModel4dataERK11QModelIndexi@Base 4:4.13.90
 _ZNK6Marble12RoutingModel5routeEv@Base 4:4.13.90
 _ZNK6Marble12RoutingModel8rowCountERK11QModelIndex@Base 4:4.13.90
 _ZNK6Marble12RoutingModel9exportGpxEP9QIODevice@Base 4:4.13.90
 _ZNK6Marble12RoutingPoint3latEv@Base 4:4.13.90
 _ZNK6Marble12RoutingPoint3lonEv@Base 4:4.13.90
 _ZNK6Marble12RoutingPoint7bearingERKS0_@Base 4:4.13.90
 _ZNK6Marble12RoutingPoint8distanceERKS0_@Base 4:4.13.90
 _ZNK6Marble12SearchRunner10metaObjectEv@Base 4:4.13.90
 _ZNK6Marble12SearchRunner5modelEv@Base 4:4.13.90
 _ZNK6Marble12SearchWidget10metaObjectEv@Base 4:4.13.90
 _ZNK6Marble12TextureLayer10metaObjectEv@Base 4:4.13.90
 _ZNK6Marble12TextureLayer11renderStateEv@Base 4:4.13.90
 _ZNK6Marble12TextureLayer12runtimeTraceEv@Base 4:4.13.90
 _ZNK6Marble12TextureLayer12tileRowCountEi@Base 4:4.13.90
 _ZNK6Marble12TextureLayer13tileZoomLevelEv@Base 4:4.13.90
 _ZNK6Marble12TextureLayer14renderPositionEv@Base 4:4.13.90
 _ZNK6Marble12TextureLayer14showCityLightsEv@Base 4:4.13.90
 _ZNK6Marble12TextureLayer14showSunShadingEv@Base 4:4.13.90
 _ZNK6Marble12TextureLayer14tileProjectionEv@Base 4:4.13.90
 _ZNK6Marble12TextureLayer15tileColumnCountEi@Base 4:4.13.90
 _ZNK6Marble12TextureLayer18volatileCacheLimitEv@Base 4:4.13.90
 _ZNK6Marble12TextureLayer19preferredRadiusCeilEi@Base 4:4.13.90
 _ZNK6Marble12TextureLayer20preferredRadiusFloorEi@Base 4:4.13.90
 _ZNK6Marble12TextureLayer8tileSizeEv@Base 4:4.13.90
 _ZNK6Marble12TourPlayback10metaObjectEv@Base 4:4.13.90
 _ZNK6Marble12TourPlayback8durationEv@Base 4:4.13.90
 _ZNK6Marble12TourPlayback9isPlayingEv@Base 4:4.13.90
 _ZNK6Marble13DataMigration10metaObjectEv@Base 4:4.14.2
 _ZNK6Marble13GeoDataCamera11coordinatesEv@Base 4:4.13.90
 _ZNK6Marble13GeoDataCamera4copyEv@Base 4:4.13.90
 _ZNK6Marble13GeoDataCamera4rollEv@Base 4:4.13.90
 _ZNK6Marble13GeoDataCamera4tiltEv@Base 4:4.13.90
 _ZNK6Marble13GeoDataCamera7headingEv@Base 4:4.13.90
 _ZNK6Marble13GeoDataCamera8altitudeEv@Base 4:4.13.90
 _ZNK6Marble13GeoDataCamera8latitudeENS_18GeoDataCoordinates4UnitE@Base 4:4.13.90
 _ZNK6Marble13GeoDataCamera8nodeTypeEv@Base 4:4.13.90
 _ZNK6Marble13GeoDataCamera9longitudeENS_18GeoDataCoordinates4UnitE@Base 4:4.13.90
 _ZNK6Marble13GeoDataCameraeqERKS0_@Base 4:4.13.90
 _ZNK6Marble13GeoDataCameraneERKS0_@Base 4:4.13.90
 _ZNK6Marble13GeoDataChange8nodeTypeEv@Base 4:4.13.90
 _ZNK6Marble13GeoDataChangeeqERKS0_@Base 4:4.13.90
 _ZNK6Marble13GeoDataChangeneERKS0_@Base 4:4.13.90
 _ZNK6Marble13GeoDataCreate8nodeTypeEv@Base 4:4.13.90
 _ZNK6Marble13GeoDataCreateeqERKS0_@Base 4:4.13.90
 _ZNK6Marble13GeoDataCreateneERKS0_@Base 4:4.13.90
 _ZNK6Marble13GeoDataDelete8nodeTypeEv@Base 4:4.13.90
 _ZNK6Marble13GeoDataDeleteeqERKS0_@Base 4:4.13.90
 _ZNK6Marble13GeoDataDeleteneERKS0_@Base 4:4.13.90
 _ZNK6Marble13GeoDataFolder1pEv@Base 4:4.13.90
 _ZNK6Marble13GeoDataFoldereqERKS0_@Base 4:4.13.90
 _ZNK6Marble13GeoDataFolderneERKS0_@Base 4:4.13.90
 _ZNK6Marble13GeoDataLookAt11coordinatesEv@Base 4:4.13.90
 _ZNK6Marble13GeoDataLookAt4copyEv@Base 4:4.13.90
 _ZNK6Marble13GeoDataLookAt5rangeEv@Base 4:4.13.90
 _ZNK6Marble13GeoDataLookAt8altitudeEv@Base 4:4.13.90
 _ZNK6Marble13GeoDataLookAt8latitudeENS_18GeoDataCoordinates4UnitE@Base 4:4.13.90
 _ZNK6Marble13GeoDataLookAt8nodeTypeEv@Base 4:4.13.90
 _ZNK6Marble13GeoDataLookAt9longitudeENS_18GeoDataCoordinates4UnitE@Base 4:4.13.90
 _ZNK6Marble13GeoDataLookAteqERKS0_@Base 4:4.13.90
 _ZNK6Marble13GeoDataLookAtneERKS0_@Base 4:4.13.90
 _ZNK6Marble13GeoDataObject11resolvePathERK7QString@Base 4:4.13.90
 _ZNK6Marble13GeoDataObject2idEv@Base 4:4.13.90
 _ZNK6Marble13GeoDataObject4packER11QDataStream@Base 4:4.13.90
 _ZNK6Marble13GeoDataObject6equalsERKS0_@Base 4:4.13.90
 _ZNK6Marble13GeoDataObject6parentEv@Base 4:4.13.90
 _ZNK6Marble13GeoDataObject8targetIdEv@Base 4:4.13.90
 _ZNK6Marble13GeoDataParser14createDocumentEv@Base 4:4.13.90
 _ZNK6Marble13GeoDataParser14isValidElementERK7QString@Base 4:4.13.90
 _ZNK6Marble13GeoDataRegion12latLonAltBoxEv@Base 4:4.13.90
 _ZNK6Marble13GeoDataRegion3lodEv@Base 4:4.13.90
 _ZNK6Marble13GeoDataRegion4packER11QDataStream@Base 4:4.13.90
 _ZNK6Marble13GeoDataRegion8nodeTypeEv@Base 4:4.13.90
 _ZNK6Marble13GeoDataRegioneqERKS0_@Base 4:4.13.90
 _ZNK6Marble13GeoDataRegionneERKS0_@Base 4:4.13.90
 _ZNK6Marble13GeoDataSchema10schemaNameEv@Base 4:4.13.90
 _ZNK6Marble13GeoDataSchema11simpleFieldERK7QString@Base 4:4.13.90
 _ZNK6Marble13GeoDataSchema12simpleFieldsEv@Base 4:4.13.90
 _ZNK6Marble13GeoDataSchema4packER11QDataStream@Base 4:4.13.90
 _ZNK6Marble13GeoDataSchema8nodeTypeEv@Base 4:4.13.90
 _ZNK6Marble13GeoDataSchemaeqERKS0_@Base 4:4.13.90
 _ZNK6Marble13GeoDataSchemaneERKS0_@Base 4:4.13.90
 _ZNK6Marble13GeoDataUpdate10targetHrefEv@Base 4:4.13.90
 _ZNK6Marble13GeoDataUpdate6changeEv@Base 4:4.13.90
 _ZNK6Marble13GeoDataUpdate6createEv@Base 4:4.13.90
 _ZNK6Marble13GeoDataUpdate8nodeTypeEv@Base 4:4.13.90
 _ZNK6Marble13GeoDataUpdate9getDeleteEv@Base 4:4.13.90
 _ZNK6Marble13GeoDataUpdateeqERKS0_@Base 4:4.13.90
 _ZNK6Marble13GeoDataUpdateneERKS0_@Base 4:4.13.90
 _ZNK6Marble13GeoSceneLayer13groundDatasetEv@Base 4:4.13.90
 _ZNK6Marble13GeoSceneLayer4nameEv@Base 4:4.13.90
 _ZNK6Marble13GeoSceneLayer4roleEv@Base 4:4.13.90
 _ZNK6Marble13GeoSceneLayer6filterEv@Base 4:4.13.90
 _ZNK6Marble13GeoSceneLayer7backendEv@Base 4:4.13.90
 _ZNK6Marble13GeoSceneLayer7datasetERK7QString@Base 4:4.13.90
 _ZNK6Marble13GeoSceneLayer7isTiledEv@Base 4:4.13.90
 _ZNK6Marble13GeoSceneLayer8datasetsEv@Base 4:4.13.90
 _ZNK6Marble13GeoSceneLayer8nodeTypeEv@Base 4:4.13.90
 _ZNK6Marble13GeoSceneTiled10installMapEv@Base 4:4.13.90
 _ZNK6Marble13GeoSceneTiled10projectionEv@Base 4:4.13.90
 _ZNK6Marble13GeoSceneTiled11downloadUrlERKNS_6TileIdE@Base 4:4.13.90
 _ZNK6Marble13GeoSceneTiled12downloadUrlsEv@Base 4:4.13.90
 _ZNK6Marble13GeoSceneTiled12serverLayoutEv@Base 4:4.13.90
 _ZNK6Marble13GeoSceneTiled13levelZeroRowsEv@Base 4:4.13.90
 _ZNK6Marble13GeoSceneTiled13storageLayoutEv@Base 4:4.13.90
 _ZNK6Marble13GeoSceneTiled16downloadPoliciesEv@Base 4:4.13.90
 _ZNK6Marble13GeoSceneTiled16levelZeroColumnsEv@Base 4:4.13.90
 _ZNK6Marble13GeoSceneTiled16maximumTileLevelEv@Base 4:4.13.90
 _ZNK6Marble13GeoSceneTiled20relativeTileFileNameERKNS_6TileIdE@Base 4:4.13.90
 _ZNK6Marble13GeoSceneTiled8nodeTypeEv@Base 4:4.13.90
 _ZNK6Marble13GeoSceneTiled8themeStrEv@Base 4:4.13.90
 _ZNK6Marble13GeoSceneTiled8tileSizeEv@Base 4:4.13.90
 _ZNK6Marble13GeoSceneTiled9hostNamesEv@Base 4:4.13.90
 _ZNK6Marble13GeoSceneTiled9sourceDirEv@Base 4:4.13.90
 _ZNK6Marble13MapViewWidget10metaObjectEv@Base 4:4.13.90
 _ZNK6Marble13MapViewWidget7Private16currentThemeNameEv@Base 4:4.13.90
 _ZNK6Marble13MapViewWidget7Private16currentThemePathEv@Base 4:4.13.90
 _ZNK6Marble13NewstuffModel10metaObjectEv@Base 4:4.13.90
 _ZNK6Marble13NewstuffModel12registryFileEv@Base 4:4.13.90
 _ZNK6Marble13NewstuffModel15targetDirectoryEv@Base 4:4.13.90
 _ZNK6Marble13NewstuffModel4dataERK11QModelIndexi@Base 4:4.13.90
 _ZNK6Marble13NewstuffModel5countEv@Base 4:4.13.90
 _ZNK6Marble13NewstuffModel8providerEv@Base 4:4.13.90
 _ZNK6Marble13NewstuffModel8rowCountERK11QModelIndex@Base 4:4.13.90
 _ZNK6Marble13ParsingRunner10metaObjectEv@Base 4:4.13.90
 _ZNK6Marble13PluginManager10metaObjectEv@Base 4:4.13.90
 _ZNK6Marble13PluginManager13renderPluginsEv@Base 4:4.13.90
 _ZNK6Marble13PluginManager19searchRunnerPluginsEv@Base 4:4.13.90
 _ZNK6Marble13PluginManager20parsingRunnerPluginsEv@Base 4:4.13.90
 _ZNK6Marble13PluginManager20routingRunnerPluginsEv@Base 4:4.13.90
 _ZNK6Marble13PluginManager23positionProviderPluginsEv@Base 4:4.13.90
 _ZNK6Marble13PluginManager29reverseGeocodingRunnerPluginsEv@Base 4:4.13.90
 _ZNK6Marble13RoutingRunner10metaObjectEv@Base 4:4.13.90
 (subst)_ZNK6Marble13RoutingRunner10nameStringERK7QString{qreal}RK5QTime@Base 4:4.13.90
 (subst)_ZNK6Marble13RoutingRunner12lengthStringE{qreal}@Base 4:4.13.90
 _ZNK6Marble13RoutingRunner14durationStringERK5QTime@Base 4:4.13.90
 _ZNK6Marble13RoutingRunner5modelEv@Base 4:4.13.90
 (subst)_ZNK6Marble13RoutingRunner9routeDataE{qreal}RK5QTime@Base 4:4.13.90
 _ZNK6Marble13RoutingWidget10metaObjectEv@Base 4:4.13.90
 _ZNK6Marble13SpeakersModel10metaObjectEv@Base 4:4.13.90
 _ZNK6Marble13SpeakersModel4dataERK11QModelIndexi@Base 4:4.13.90
 _ZNK6Marble13SpeakersModel5countEv@Base 4:4.13.90
 _ZNK6Marble13SpeakersModel7isLocalEi@Base 4:4.13.90
 _ZNK6Marble13SpeakersModel8isRemoteEi@Base 4:4.13.90
 _ZNK6Marble13SpeakersModel8rowCountERK11QModelIndex@Base 4:4.13.90
 _ZNK6Marble14AutoNavigation10metaObjectEv@Base 4:4.13.90
 _ZNK6Marble14AutoNavigation12recenterModeEv@Base 4:4.13.90
 (subst)_ZNK6Marble14AutoNavigation7Private16findIntersectionE{qreal}{qreal}@Base 4:4.13.90
 _ZNK6Marble14AutoNavigation8autoZoomEv@Base 4:4.13.90
 _ZNK6Marble14ConflictDialog10metaObjectEv@Base 4:4.13.90
 _ZNK6Marble14DownloadRegion10metaObjectEv@Base 4:4.13.90
 _ZNK6Marble14DownloadRegion6regionEPKNS_12TextureLayerERKNS_19GeoDataLatLonAltBoxE@Base 4:4.13.90
 (subst)_ZNK6Marble14DownloadRegion8fromPathEPKNS_12TextureLayerE{qreal}RKNS_17GeoDataLineStringE@Base 4:4.13.90
 _ZNK6Marble14ElevationModel10metaObjectEv@Base 4:4.13.90
 (subst)_ZNK6Marble14ElevationModel13heightProfileE{qreal}{qreal}{qreal}{qreal}@Base 4:4.13.90
 (subst)_ZNK6Marble14ElevationModel6heightE{qreal}{qreal}@Base 4:4.13.90
 _ZNK6Marble14FileViewWidget10metaObjectEv@Base 4:4.13.90
 _ZNK6Marble14GeoDataFeature10popularityEv@Base 4:4.13.90
 _ZNK6Marble14GeoDataFeature11customStyleEv@Base 4:4.14.2
 _ZNK6Marble14GeoDataFeature11descriptionEv@Base 4:4.13.90
 _ZNK6Marble14GeoDataFeature11phoneNumberEv@Base 4:4.13.90
 _ZNK6Marble14GeoDataFeature12abstractViewEv@Base 4:4.13.90
 _ZNK6Marble14GeoDataFeature12extendedDataEv@Base 4:4.13.90
 _ZNK6Marble14GeoDataFeature14visualCategoryEv@Base 4:4.13.90
 _ZNK6Marble14GeoDataFeature17isGloballyVisibleEv@Base 4:4.13.90
 _ZNK6Marble14GeoDataFeature18descriptionIsCDATAEv@Base 4:4.13.90
 _ZNK6Marble14GeoDataFeature1pEv@Base 4:4.13.90
 _ZNK6Marble14GeoDataFeature4nameEv@Base 4:4.13.90
 _ZNK6Marble14GeoDataFeature4packER11QDataStream@Base 4:4.13.90
 _ZNK6Marble14GeoDataFeature4roleEv@Base 4:4.13.90
 _ZNK6Marble14GeoDataFeature5styleEv@Base 4:4.13.90
 _ZNK6Marble14GeoDataFeature6equalsERKS0_@Base 4:4.13.90
 _ZNK6Marble14GeoDataFeature6regionEv@Base 4:4.13.90
 _ZNK6Marble14GeoDataFeature7addressEv@Base 4:4.13.90
 _ZNK6Marble14GeoDataFeature7snippetEv@Base 4:4.13.90
 _ZNK6Marble14GeoDataFeature8nodeTypeEv@Base 4:4.13.90
 _ZNK6Marble14GeoDataFeature8styleMapEv@Base 4:4.13.90
 _ZNK6Marble14GeoDataFeature8styleUrlEv@Base 4:4.13.90
 _ZNK6Marble14GeoDataFeature8timeSpanEv@Base 4:4.13.90
 _ZNK6Marble14GeoDataFeature9featureIdEv@Base 4:4.13.90
 _ZNK6Marble14GeoDataFeature9isVisibleEv@Base 4:4.13.90
 _ZNK6Marble14GeoDataFeature9timeStampEv@Base 4:4.13.90
 _ZNK6Marble14GeoDataFeature9zoomLevelEv@Base 4:4.13.90
 _ZNK6Marble14GeoDataHotSpot4packER11QDataStream@Base 4:4.13.90
 _ZNK6Marble14GeoDataHotSpot7hotSpotERNS0_5UnitsES2_@Base 4:4.13.90
 _ZNK6Marble14GeoDataHotSpot8nodeTypeEv@Base 4:4.13.90
 _ZNK6Marble14GeoDataOverlay16absoluteIconFileEv@Base 4:4.13.90
 _ZNK6Marble14GeoDataOverlay4iconEv@Base 4:4.13.90
 _ZNK6Marble14GeoDataOverlay5colorEv@Base 4:4.13.90
 _ZNK6Marble14GeoDataOverlay6equalsERKS0_@Base 4:4.13.90
 _ZNK6Marble14GeoDataOverlay8iconFileEv@Base 4:4.13.90
 _ZNK6Marble14GeoDataOverlay9drawOrderEv@Base 4:4.13.90
 _ZNK6Marble14GeoDataPolygon10tessellateEv@Base 4:4.13.90
 _ZNK6Marble14GeoDataPolygon12latLonAltBoxEv@Base 4:4.13.90
 _ZNK6Marble14GeoDataPolygon13outerBoundaryEv@Base 4:4.13.90
 _ZNK6Marble14GeoDataPolygon15innerBoundariesEv@Base 4:4.13.90
 _ZNK6Marble14GeoDataPolygon17tessellationFlagsEv@Base 4:4.13.90
 _ZNK6Marble14GeoDataPolygon1pEv@Base 4:4.13.90
 _ZNK6Marble14GeoDataPolygon4packER11QDataStream@Base 4:4.13.90
 _ZNK6Marble14GeoDataPolygon8containsERKNS_18GeoDataCoordinatesE@Base 4:4.13.90
 _ZNK6Marble14GeoDataPolygon8isClosedEv@Base 4:4.13.90
 _ZNK6Marble14GeoDataPolygoneqERKS0_@Base 4:4.13.90
 _ZNK6Marble14GeoDataPolygonneERKS0_@Base 4:4.13.90
 _ZNK6Marble14GeoDataSnippet4textEv@Base 4:4.13.90
 _ZNK6Marble14GeoDataSnippet8maxLinesEv@Base 4:4.13.90
 _ZNK6Marble14GeoDataSnippeteqERKS0_@Base 4:4.13.90
 _ZNK6Marble14GeoDataSnippetneERKS0_@Base 4:4.13.90
 _ZNK6Marble14GeoSceneLegend8nodeTypeEv@Base 4:4.13.90
 _ZNK6Marble14GeoSceneLegend8sectionsEv@Base 4:4.13.90
 _ZNK6Marble14GeoSceneParser14createDocumentEv@Base 4:4.13.90
 _ZNK6Marble14GeoSceneParser14isValidElementERK7QString@Base 4:4.13.90
 _ZNK6Marble14GeoSceneVector10sourceFileEv@Base 4:4.13.90
 _ZNK6Marble14GeoSceneVector3penEv@Base 4:4.13.90
 _ZNK6Marble14GeoSceneVector5brushEv@Base 4:4.13.90
 _ZNK6Marble14GeoSceneVector7featureEv@Base 4:4.13.90
 _ZNK6Marble14GeoSceneVector8nodeTypeEv@Base 4:4.13.90
 _ZNK6Marble14LayerInterface11renderStateEv@Base 4:4.13.90
 _ZNK6Marble14LayerInterface12runtimeTraceEv@Base 4:4.13.90
 _ZNK6Marble14LayerInterface6zValueEv@Base 4:4.13.90
 _ZNK6Marble14MarbleLineEdit10metaObjectEv@Base 4:4.13.90
 _ZNK6Marble14RoutingManager10metaObjectEv@Base 4:4.13.90
 _ZNK6Marble14RoutingManager12lastOpenPathEv@Base 4:4.13.90
 _ZNK6Marble14RoutingManager12lastSavePathEv@Base 4:4.13.90
 _ZNK6Marble14RoutingManager12routingModelEv@Base 4:4.13.90
 _ZNK6Marble14RoutingManager13writeSettingsEv@Base 4:4.13.90
 _ZNK6Marble14RoutingManager14defaultProfileENS_14RoutingProfile13TransportTypeE@Base 4:4.13.90
 _ZNK6Marble14RoutingManager16adjustNavigationEv@Base 4:4.13.90
 _ZNK6Marble14RoutingManager18routeColorStandardEv@Base 4:4.13.90
 _ZNK6Marble14RoutingManager19guidanceModeEnabledEv@Base 4:4.13.90
 _ZNK6Marble14RoutingManager21routeColorAlternativeEv@Base 4:4.13.90
 _ZNK6Marble14RoutingManager21routeColorHighlightedEv@Base 4:4.13.90
 _ZNK6Marble14RoutingManager30showGuidanceModeStartupWarningEv@Base 4:4.13.90
 _ZNK6Marble14RoutingManager9saveRouteERK7QString@Base 4:4.13.90
 _ZNK6Marble14RoutingProfile13transportTypeEv@Base 4:4.13.90
 _ZNK6Marble14RoutingProfile14pluginSettingsEv@Base 4:4.13.90
 _ZNK6Marble14RoutingProfile4nameEv@Base 4:4.13.90
 _ZNK6Marble14RoutingProfileeqERKS0_@Base 4:4.13.90
 _ZNK6Marble14TinyWebBrowser10metaObjectEv@Base 4:4.13.90
 _ZNK6Marble14ViewportParams10focusPointEv@Base 4:4.13.90
 _ZNK6Marble14ViewportParams10planetAxisEv@Base 4:4.13.90
 _ZNK6Marble14ViewportParams10projectionEv@Base 4:4.13.90
 _ZNK6Marble14ViewportParams12latLonAltBoxERK5QRect@Base 4:4.13.90
 _ZNK6Marble14ViewportParams14centerLatitudeEv@Base 4:4.13.90
 (subst)_ZNK6Marble14ViewportParams14geoCoordinatesEiiR{qreal}S1_NS_18GeoDataCoordinates4UnitE@Base 4:4.13.90
 _ZNK6Marble14ViewportParams15centerLongitudeEv@Base 4:4.13.90
 _ZNK6Marble14ViewportParams16planetAxisMatrixEv@Base 4:4.13.90
 _ZNK6Marble14ViewportParams16viewLatLonAltBoxEv@Base 4:4.13.90
 _ZNK6Marble14ViewportParams17angularResolutionEv@Base 4:4.13.90
 (subst)_ZNK6Marble14ViewportParams17centerCoordinatesER{qreal}S1_@Base 4:4.13.90
 _ZNK6Marble14ViewportParams17currentProjectionEv@Base 4:4.13.90
 _ZNK6Marble14ViewportParams17mapCoversViewportEv@Base 4:4.13.90
 _ZNK6Marble14ViewportParams17screenCoordinatesERKNS_17GeoDataLineStringER7QVectorIP9QPolygonFE@Base 4:4.13.90
 (subst)_ZNK6Marble14ViewportParams17screenCoordinatesERKNS_18GeoDataCoordinatesEP{qreal}R{qreal}RiRK6QSizeFRb@Base 4:4.13.90
 (subst)_ZNK6Marble14ViewportParams17screenCoordinatesERKNS_18GeoDataCoordinatesER{qreal}S4_@Base 4:4.13.90
 (subst)_ZNK6Marble14ViewportParams17screenCoordinatesERKNS_18GeoDataCoordinatesER{qreal}S4_Rb@Base 4:4.13.90
 (subst)_ZNK6Marble14ViewportParams17screenCoordinatesE{qreal}{qreal}R{qreal}S1_@Base 4:4.13.90
 _ZNK6Marble14ViewportParams4sizeEv@Base 4:4.13.90
 _ZNK6Marble14ViewportParams5widthEv@Base 4:4.13.90
 _ZNK6Marble14ViewportParams6heightEv@Base 4:4.13.90
 _ZNK6Marble14ViewportParams6radiusEv@Base 4:4.13.90
 _ZNK6Marble14ViewportParams8mapShapeEv@Base 4:4.13.90
 _ZNK6Marble14ViewportParams8polarityEv@Base 4:4.13.90
 _ZNK6Marble14ViewportParams8resolvesERKNS_16GeoDataLatLonBoxE@Base 4:4.13.90
 _ZNK6Marble14ViewportParams8resolvesERKNS_18GeoDataCoordinatesES3_@Base 4:4.13.90
 _ZNK6Marble14ViewportParams8resolvesERKNS_19GeoDataLatLonAltBoxE@Base 4:4.13.90
 _ZNK6Marble14ViewportParams9mapRegionEv@Base 4:4.13.90
 _ZNK6Marble14WaypointParser5parseER11QTextStream@Base 4:4.13.90
 (optional=templinst)_ZNK6Marble14WaypointParser9readFieldI7QStringEET_NS0_5FieldERK11QStringListRKS3_@Base 4:4.13.90
 _ZNK6Marble15BookmarkManager10metaObjectEv@Base 4:4.13.90
 _ZNK6Marble15BookmarkManager12bookmarkFileEv@Base 4:4.13.90
 _ZNK6Marble15BookmarkManager13showBookmarksEv@Base 4:4.13.90
 _ZNK6Marble15BookmarkManager7foldersEv@Base 4:4.13.90
 _ZNK6Marble15BookmarkManager8documentEv@Base 4:4.13.90
 _ZNK6Marble15CloudRouteModel10metaObjectEv@Base 4:4.13.90
 _ZNK6Marble15CloudRouteModel13isDownloadingERK11QModelIndex@Base 4:4.13.90
 _ZNK6Marble15CloudRouteModel14downloadedSizeEv@Base 4:4.13.90
 _ZNK6Marble15CloudRouteModel15downloadingItemEv@Base 4:4.13.90
 _ZNK6Marble15CloudRouteModel4dataERK11QModelIndexi@Base 4:4.13.90
 _ZNK6Marble15CloudRouteModel7previewERK11QModelIndex@Base 4:4.13.90
 _ZNK6Marble15CloudRouteModel8isCachedERK11QModelIndex@Base 4:4.13.90
 _ZNK6Marble15CloudRouteModel8rowCountERK11QModelIndex@Base 4:4.13.90
 _ZNK6Marble15CloudRouteModel9totalSizeEv@Base 4:4.13.90
 _ZNK6Marble15GeoDataAccuracyeqERKS0_@Base 4:4.13.90
 _ZNK6Marble15GeoDataAccuracyneERKS0_@Base 4:4.13.90
 _ZNK6Marble15GeoDataDocument12documentRoleEv@Base 4:4.13.90
 _ZNK6Marble15GeoDataDocument18networkLinkControlEv@Base 4:4.13.90
 _ZNK6Marble15GeoDataDocument1pEv@Base 4:4.13.90
 _ZNK6Marble15GeoDataDocument4packER11QDataStream@Base 4:4.13.90
 _ZNK6Marble15GeoDataDocument5styleERK7QString@Base 4:4.13.90
 _ZNK6Marble15GeoDataDocument6schemaERK7QString@Base 4:4.13.90
 _ZNK6Marble15GeoDataDocument6stylesEv@Base 4:4.13.90
 _ZNK6Marble15GeoDataDocument7baseUriEv@Base 4:4.13.90
 _ZNK6Marble15GeoDataDocument7schemasEv@Base 4:4.13.90
 _ZNK6Marble15GeoDataDocument8fileNameEv@Base 4:4.13.90
 _ZNK6Marble15GeoDataDocument8propertyEv@Base 4:4.13.90
 _ZNK6Marble15GeoDataDocument8styleMapERK7QString@Base 4:4.13.90
 _ZNK6Marble15GeoDataDocument9styleMapsEv@Base 4:4.13.90
 _ZNK6Marble15GeoDataDocumenteqERKS0_@Base 4:4.13.90
 _ZNK6Marble15GeoDataDocumentneERKS0_@Base 4:4.13.90
 _ZNK6Marble15GeoDataGeometry10geometryIdEv@Base 4:4.13.90
 _ZNK6Marble15GeoDataGeometry12altitudeModeEv@Base 4:4.13.90
 _ZNK6Marble15GeoDataGeometry12latLonAltBoxEv@Base 4:4.13.90
 _ZNK6Marble15GeoDataGeometry1pEv@Base 4:4.13.90
 _ZNK6Marble15GeoDataGeometry4packER11QDataStream@Base 4:4.13.90
 _ZNK6Marble15GeoDataGeometry6equalsERKS0_@Base 4:4.13.90
 _ZNK6Marble15GeoDataGeometry7extrudeEv@Base 4:4.13.90
 _ZNK6Marble15GeoDataGeometry8nodeTypeEv@Base 4:4.13.90
 _ZNK6Marble15GeoDataItemIcon4iconEv@Base 4:4.13.90
 _ZNK6Marble15GeoDataItemIcon5stateEv@Base 4:4.13.90
 _ZNK6Marble15GeoDataItemIcon8iconPathEv@Base 4:4.13.90
 _ZNK6Marble15GeoDataItemIcon8nodeTypeEv@Base 4:4.13.90
 _ZNK6Marble15GeoDataItemIconeqERKS0_@Base 4:4.13.90
 _ZNK6Marble15GeoDataItemIconneERKS0_@Base 4:4.13.90
 _ZNK6Marble15GeoDataLocation8altitudeEv@Base 4:4.13.90
 _ZNK6Marble15GeoDataLocation8latitudeENS_18GeoDataCoordinates4UnitE@Base 4:4.13.90
 _ZNK6Marble15GeoDataLocation8nodeTypeEv@Base 4:4.13.90
 _ZNK6Marble15GeoDataLocation9longitudeENS_18GeoDataCoordinates4UnitE@Base 4:4.13.90
 _ZNK6Marble15GeoDataLocationeqERKS0_@Base 4:4.13.90
 _ZNK6Marble15GeoDataLocationneERKS0_@Base 4:4.13.90
 _ZNK6Marble15GeoDataPlaylist4sizeEv@Base 4:4.13.90
 _ZNK6Marble15GeoDataPlaylist8nodeTypeEv@Base 4:4.13.90
 _ZNK6Marble15GeoDataPlaylist9primitiveEi@Base 4:4.13.90
 _ZNK6Marble15GeoDataPlaylisteqERKS0_@Base 4:4.13.90
 _ZNK6Marble15GeoDataPlaylistneERKS0_@Base 4:4.13.90
 _ZNK6Marble15GeoDataSoundCue12delayedStartEv@Base 4:4.13.90
 _ZNK6Marble15GeoDataSoundCue4hrefEv@Base 4:4.13.90
 _ZNK6Marble15GeoDataSoundCue8nodeTypeEv@Base 4:4.13.90
 _ZNK6Marble15GeoDataSoundCueeqERKS0_@Base 4:4.13.90
 _ZNK6Marble15GeoDataSoundCueneERKS0_@Base 4:4.13.90
 _ZNK6Marble15GeoDataStyleMap4packER11QDataStream@Base 4:4.13.90
 _ZNK6Marble15GeoDataStyleMap7lastKeyEv@Base 4:4.13.90
 _ZNK6Marble15GeoDataStyleMap8nodeTypeEv@Base 4:4.13.90
 _ZNK6Marble15GeoDataStyleMapeqERKS0_@Base 4:4.13.90
 _ZNK6Marble15GeoDataStyleMapneERKS0_@Base 4:4.13.90
 _ZNK6Marble15GeoDataTimeSpan3endEv@Base 4:4.13.90
 _ZNK6Marble15GeoDataTimeSpan4packER11QDataStream@Base 4:4.13.90
 _ZNK6Marble15GeoDataTimeSpan5beginEv@Base 4:4.13.90
 _ZNK6Marble15GeoDataTimeSpan7isValidEv@Base 4:4.13.90
 _ZNK6Marble15GeoDataTimeSpan8nodeTypeEv@Base 4:4.13.90
 _ZNK6Marble15GeoDataTimeSpaneqERKS0_@Base 4:4.13.90
 _ZNK6Marble15GeoDataTimeSpanneERKS0_@Base 4:4.13.90
 _ZNK6Marble15GeoGraphicsItem12latLonAltBoxEv@Base 4:4.13.90
 _ZNK6Marble15GeoGraphicsItem12minZoomLevelEv@Base 4:4.13.90
 _ZNK6Marble15GeoGraphicsItem1pEv@Base 4:4.13.90
 _ZNK6Marble15GeoGraphicsItem5flagsEv@Base 4:4.13.90
 _ZNK6Marble15GeoGraphicsItem5styleEv@Base 4:4.13.90
 _ZNK6Marble15GeoGraphicsItem6zValueEv@Base 4:4.13.90
 _ZNK6Marble15GeoGraphicsItem7featureEv@Base 4:4.13.90
 _ZNK6Marble15GeoGraphicsItem7visibleEv@Base 4:4.13.90
 _ZNK6Marble15GeoSceneGeodata10sourceFileEv@Base 4:4.13.90
 _ZNK6Marble15GeoSceneGeodata3penEv@Base 4:4.13.90
 _ZNK6Marble15GeoSceneGeodata5alphaEv@Base 4:4.13.90
 _ZNK6Marble15GeoSceneGeodata5brushEv@Base 4:4.13.90
 _ZNK6Marble15GeoSceneGeodata6colorsEv@Base 4:4.13.90
 _ZNK6Marble15GeoSceneGeodata8colorizeEv@Base 4:4.13.90
 _ZNK6Marble15GeoSceneGeodata8nodeTypeEv@Base 4:4.13.90
 _ZNK6Marble15GeoSceneGeodata8propertyEv@Base 4:4.13.90
 _ZNK6Marble15GeoSceneGeodataeqERKS0_@Base 4:4.13.90
 _ZNK6Marble15GeoSceneLicense11attributionEv@Base 4:4.13.90
 _ZNK6Marble15GeoSceneLicense12shortLicenseEv@Base 4:4.13.90
 _ZNK6Marble15GeoSceneLicense7licenseEv@Base 4:4.13.90
 _ZNK6Marble15GeoSceneSection4nameEv@Base 4:4.13.90
 _ZNK6Marble15GeoSceneSection5itemsEv@Base 4:4.13.90
 _ZNK6Marble15GeoSceneSection5radioEv@Base 4:4.13.90
 _ZNK6Marble15GeoSceneSection7headingEv@Base 4:4.13.90
 _ZNK6Marble15GeoSceneSection7spacingEv@Base 4:4.13.90
 _ZNK6Marble15GeoSceneSection8nodeTypeEv@Base 4:4.13.90
 _ZNK6Marble15GeoSceneSection9checkableEv@Base 4:4.13.90
 _ZNK6Marble15GeoSceneSection9connectToEv@Base 4:4.13.90
 _ZNK6Marble15LatLonBoxWidget10metaObjectEv@Base 4:4.13.90
 _ZNK6Marble15LatLonBoxWidget9latLonBoxEv@Base 4:4.13.90
 _ZNK6Marble15MapThemeManager10metaObjectEv@Base 4:4.13.90
 _ZNK6Marble15MapThemeManager11mapThemeIdsEv@Base 4:4.13.90
 _ZNK6Marble15MarbleNavigator10metaObjectEv@Base 4:4.13.90
 _ZNK6Marble15MarbleNavigator11minimumZoomEv@Base 4:4.13.90
 _ZNK6Marble15PluginInterface13aboutDataTextEv@Base 4:4.13.90
 _ZNK6Marble15RoutingWaypoint12junctionTypeEv@Base 4:4.13.90
 _ZNK6Marble15RoutingWaypoint15junctionTypeRawEv@Base 4:4.13.90
 _ZNK6Marble15RoutingWaypoint16secondsRemainingEv@Base 4:4.13.90
 _ZNK6Marble15RoutingWaypoint5pointEv@Base 4:4.13.90
 _ZNK6Marble15RoutingWaypoint8roadNameEv@Base 4:4.13.90
 _ZNK6Marble15RoutingWaypoint8roadTypeEv@Base 4:4.13.90
 _ZNK6Marble16CloudSyncManager10metaObjectEv@Base 4:4.13.90
 _ZNK6Marble16CloudSyncManager11workOfflineEv@Base 4:4.13.90
 _ZNK6Marble16CloudSyncManager13isSyncEnabledEv@Base 4:4.13.90
 _ZNK6Marble16CloudSyncManager14owncloudServerEv@Base 4:4.13.90
 _ZNK6Marble16CloudSyncManager16owncloudPasswordEv@Base 4:4.13.90
 _ZNK6Marble16CloudSyncManager16owncloudUsernameEv@Base 4:4.13.90
 _ZNK6Marble16CloudSyncManager17statusDescriptionEv@Base 4:4.13.90
 _ZNK6Marble16CloudSyncManager6apiUrlEv@Base 4:4.13.90
 _ZNK6Marble16CloudSyncManager6statusEv@Base 4:4.13.90
 _ZNK6Marble16CloudSyncManager7apiPathEv@Base 4:4.13.90
 _ZNK6Marble16GeoDataContainer10constBeginEv@Base 4:4.13.90
 _ZNK6Marble16GeoDataContainer10folderListEv@Base 4:4.13.90
 _ZNK6Marble16GeoDataContainer11featureListEv@Base 4:4.13.90
 _ZNK6Marble16GeoDataContainer12latLonAltBoxEv@Base 4:4.13.90
 _ZNK6Marble16GeoDataContainer13childPositionEPKNS_14GeoDataFeatureE@Base 4:4.13.90
 _ZNK6Marble16GeoDataContainer13placemarkListEv@Base 4:4.13.90
 _ZNK6Marble16GeoDataContainer1pEv@Base 4:4.13.90
 _ZNK6Marble16GeoDataContainer2atEi@Base 4:4.13.90
 _ZNK6Marble16GeoDataContainer4lastEv@Base 4:4.13.90
 _ZNK6Marble16GeoDataContainer4packER11QDataStream@Base 4:4.13.90
 _ZNK6Marble16GeoDataContainer4sizeEv@Base 4:4.13.90
 _ZNK6Marble16GeoDataContainer5childEi@Base 4:4.13.90
 _ZNK6Marble16GeoDataContainer5firstEv@Base 4:4.13.90
 _ZNK6Marble16GeoDataContainer6equalsERKS0_@Base 4:4.13.90
 _ZNK6Marble16GeoDataContainer8constEndEv@Base 4:4.13.90
 _ZNK6Marble16GeoDataIconStyle4iconEv@Base 4:4.13.90
 _ZNK6Marble16GeoDataIconStyle4packER11QDataStream@Base 4:4.13.90
 _ZNK6Marble16GeoDataIconStyle5scaleEv@Base 4:4.13.90
 _ZNK6Marble16GeoDataIconStyle7headingEv@Base 4:4.13.90
 _ZNK6Marble16GeoDataIconStyle7hotSpotERNS_14GeoDataHotSpot5UnitsES3_@Base 4:4.13.90
 _ZNK6Marble16GeoDataIconStyle8iconPathEv@Base 4:4.13.90
 _ZNK6Marble16GeoDataIconStyle8nodeTypeEv@Base 4:4.13.90
 _ZNK6Marble16GeoDataIconStyleeqERKS0_@Base 4:4.13.90
 _ZNK6Marble16GeoDataIconStyleneERKS0_@Base 4:4.13.90
 (subst)_ZNK6Marble16GeoDataLatLonBox10boundariesER{qreal}S1_S1_S1_NS_18GeoDataCoordinates4UnitE@Base 4:4.13.90
 _ZNK6Marble16GeoDataLatLonBox10intersectsERKS0_@Base 4:4.13.90
 _ZNK6Marble16GeoDataLatLonBox12containsPoleENS_4PoleE@Base 4:4.13.90
 _ZNK6Marble16GeoDataLatLonBox15crossesDateLineEv@Base 4:4.13.90
 _ZNK6Marble16GeoDataLatLonBox24toCircumscribedRectangleEv@Base 4:4.13.90
 _ZNK6Marble16GeoDataLatLonBox4eastENS_18GeoDataCoordinates4UnitE@Base 4:4.13.90
 _ZNK6Marble16GeoDataLatLonBox4packER11QDataStream@Base 4:4.13.90
 _ZNK6Marble16GeoDataLatLonBox4westENS_18GeoDataCoordinates4UnitE@Base 4:4.13.90
 _ZNK6Marble16GeoDataLatLonBox5northENS_18GeoDataCoordinates4UnitE@Base 4:4.13.90
 _ZNK6Marble16GeoDataLatLonBox5southENS_18GeoDataCoordinates4UnitE@Base 4:4.13.90
 _ZNK6Marble16GeoDataLatLonBox5widthENS_18GeoDataCoordinates4UnitE@Base 4:4.13.90
 _ZNK6Marble16GeoDataLatLonBox6centerEv@Base 4:4.13.90
 _ZNK6Marble16GeoDataLatLonBox6heightENS_18GeoDataCoordinates4UnitE@Base 4:4.13.90
 _ZNK6Marble16GeoDataLatLonBox6isNullEv@Base 4:4.13.90
 _ZNK6Marble16GeoDataLatLonBox6unitedERKS0_@Base 4:4.13.90
 _ZNK6Marble16GeoDataLatLonBox7isEmptyEv@Base 4:4.13.90
 _ZNK6Marble16GeoDataLatLonBox8containsERKNS_18GeoDataCoordinatesE@Base 4:4.13.90
 _ZNK6Marble16GeoDataLatLonBox8containsERKS0_@Base 4:4.13.90
 _ZNK6Marble16GeoDataLatLonBox8nodeTypeEv@Base 4:4.13.90
 _ZNK6Marble16GeoDataLatLonBox8rotationENS_18GeoDataCoordinates4UnitE@Base 4:4.13.90
 _ZNK6Marble16GeoDataLatLonBox8toStringENS_18GeoDataCoordinates4UnitE@Base 4:4.13.90
 _ZNK6Marble16GeoDataLatLonBoxorERKS0_@Base 4:4.13.90
 _ZNK6Marble16GeoDataLineStyle10backgroundEv@Base 4:4.13.90
 _ZNK6Marble16GeoDataLineStyle11dashPatternEv@Base 4:4.13.90
 _ZNK6Marble16GeoDataLineStyle13physicalWidthEv@Base 4:4.13.90
 _ZNK6Marble16GeoDataLineStyle4packER11QDataStream@Base 4:4.13.90
 _ZNK6Marble16GeoDataLineStyle5widthEv@Base 4:4.13.90
 _ZNK6Marble16GeoDataLineStyle8capStyleEv@Base 4:4.13.90
 _ZNK6Marble16GeoDataLineStyle8nodeTypeEv@Base 4:4.13.90
 _ZNK6Marble16GeoDataLineStyle8penStyleEv@Base 4:4.13.90
 _ZNK6Marble16GeoDataLineStyleeqERKS0_@Base 4:4.13.90
 _ZNK6Marble16GeoDataLineStyleneERKS0_@Base 4:4.13.90
 _ZNK6Marble16GeoDataListStyle10constBeginEv@Base 4:4.13.90
 _ZNK6Marble16GeoDataListStyle12itemIconListEv@Base 4:4.13.90
 _ZNK6Marble16GeoDataListStyle12listItemTypeEv@Base 4:4.13.90
 _ZNK6Marble16GeoDataListStyle13childPositionEPKNS_15GeoDataItemIconE@Base 4:4.13.90
 _ZNK6Marble16GeoDataListStyle15backgroundColorEv@Base 4:4.13.90
 _ZNK6Marble16GeoDataListStyle2atEi@Base 4:4.13.90
 _ZNK6Marble16GeoDataListStyle4lastEv@Base 4:4.13.90
 _ZNK6Marble16GeoDataListStyle4packER11QDataStream@Base 4:4.13.90
 _ZNK6Marble16GeoDataListStyle4sizeEv@Base 4:4.13.90
 _ZNK6Marble16GeoDataListStyle5childEi@Base 4:4.13.90
 _ZNK6Marble16GeoDataListStyle5firstEv@Base 4:4.13.90
 _ZNK6Marble16GeoDataListStyle8constEndEv@Base 4:4.13.90
 _ZNK6Marble16GeoDataListStyle8nodeTypeEv@Base 4:4.13.90
 _ZNK6Marble16GeoDataListStyleeqERKS0_@Base 4:4.13.90
 _ZNK6Marble16GeoDataListStyleneERKS0_@Base 4:4.13.90
 _ZNK6Marble16GeoDataPlacemark10coordinateERK9QDateTimePb@Base 4:4.13.90
 (subst)_ZNK6Marble16GeoDataPlacemark10coordinateER{qreal}S1_S1_@Base 4:4.13.90
 _ZNK6Marble16GeoDataPlacemark10populationEv@Base 4:4.13.90
 _ZNK6Marble16GeoDataPlacemark11countryCodeEv@Base 4:4.13.90
 _ZNK6Marble16GeoDataPlacemark16isBalloonVisibleEv@Base 4:4.13.90
 _ZNK6Marble16GeoDataPlacemark1pEv@Base 4:4.13.90
 _ZNK6Marble16GeoDataPlacemark4areaEv@Base 4:4.13.90
 _ZNK6Marble16GeoDataPlacemark4packER11QDataStream@Base 4:4.13.90
 _ZNK6Marble16GeoDataPlacemark4packER16QXmlStreamWriter@Base 4:4.13.90
 _ZNK6Marble16GeoDataPlacemark5stateEv@Base 4:4.13.90
 _ZNK6Marble16GeoDataPlacemark6lookAtEv@Base 4:4.13.90
 _ZNK6Marble16GeoDataPlacemark8geometryEv@Base 4:4.13.90
 _ZNK6Marble16GeoDataPlacemarkeqERKS0_@Base 4:4.13.90
 _ZNK6Marble16GeoDataPlacemarklsER16QXmlStreamWriter@Base 4:4.13.90
 _ZNK6Marble16GeoDataPlacemarkneERKS0_@Base 4:4.13.90
 _ZNK6Marble16GeoDataPolyStyle10brushStyleEv@Base 4:4.13.90
 _ZNK6Marble16GeoDataPolyStyle10colorIndexEv@Base 4:4.13.90
 _ZNK6Marble16GeoDataPolyStyle4fillEv@Base 4:4.13.90
 _ZNK6Marble16GeoDataPolyStyle4packER11QDataStream@Base 4:4.13.90
 _ZNK6Marble16GeoDataPolyStyle7outlineEv@Base 4:4.13.90
 _ZNK6Marble16GeoDataPolyStyle8nodeTypeEv@Base 4:4.13.90
 _ZNK6Marble16GeoDataPolyStyleeqERKS0_@Base 4:4.13.90
 _ZNK6Marble16GeoDataPolyStyleneERKS0_@Base 4:4.13.90
 _ZNK6Marble16GeoDataTimeStamp10resolutionEv@Base 4:4.13.90
 _ZNK6Marble16GeoDataTimeStamp4packER11QDataStream@Base 4:4.13.90
 _ZNK6Marble16GeoDataTimeStamp4whenEv@Base 4:4.13.90
 _ZNK6Marble16GeoDataTimeStamp8nodeTypeEv@Base 4:4.13.90
 _ZNK6Marble16GeoDataTimeStampeqERKS0_@Base 4:4.13.90
 _ZNK6Marble16GeoDataTimeStampneERKS0_@Base 4:4.13.90
 _ZNK6Marble16GeoDataTreeModel10headerDataEiN2Qt11OrientationEi@Base 4:4.13.90
 _ZNK6Marble16GeoDataTreeModel10metaObjectEv@Base 4:4.13.90
 _ZNK6Marble16GeoDataTreeModel11columnCountERK11QModelIndex@Base 4:4.13.90
 _ZNK6Marble16GeoDataTreeModel11hasChildrenERK11QModelIndex@Base 4:4.13.90
 _ZNK6Marble16GeoDataTreeModel4dataERK11QModelIndexi@Base 4:4.13.90
 _ZNK6Marble16GeoDataTreeModel5flagsERK11QModelIndex@Base 4:4.13.90
 _ZNK6Marble16GeoDataTreeModel5indexEiiRK11QModelIndex@Base 4:4.13.90
 _ZNK6Marble16GeoDataTreeModel6parentERK11QModelIndex@Base 4:4.13.90
 _ZNK6Marble16GeoDataTreeModel8rowCountERK11QModelIndex@Base 4:4.13.90
 _ZNK6Marble16GeoGraphicsScene10metaObjectEv@Base 4:4.13.90
 _ZNK6Marble16GeoGraphicsScene5itemsERKNS_16GeoDataLatLonBoxEi@Base 4:4.13.90
 _ZNK6Marble16GeoSceneDocument10metaObjectEv@Base 4:4.13.90
 _ZNK6Marble16GeoSceneDocument3mapEv@Base 4:4.13.90
 _ZNK6Marble16GeoSceneDocument4headEv@Base 4:4.13.90
 _ZNK6Marble16GeoSceneDocument6legendEv@Base 4:4.13.90
 _ZNK6Marble16GeoSceneDocument8nodeTypeEv@Base 4:4.13.90
 _ZNK6Marble16GeoSceneDocument8settingsEv@Base 4:4.13.90
 _ZNK6Marble16GeoSceneProperty10metaObjectEv@Base 4:4.13.90
 _ZNK6Marble16GeoSceneProperty12defaultValueEv@Base 4:4.13.90
 _ZNK6Marble16GeoSceneProperty4nameEv@Base 4:4.13.90
 _ZNK6Marble16GeoSceneProperty5valueEv@Base 4:4.13.90
 _ZNK6Marble16GeoSceneProperty8nodeTypeEv@Base 4:4.13.90
 _ZNK6Marble16GeoSceneProperty9availableEv@Base 4:4.13.90
 _ZNK6Marble16GeoSceneSettings10metaObjectEv@Base 4:4.13.90
 _ZNK6Marble16GeoSceneSettings13allPropertiesEv@Base 4:4.13.90
 _ZNK6Marble16GeoSceneSettings13propertyValueERK7QStringRb@Base 4:4.13.90
 _ZNK6Marble16GeoSceneSettings17propertyAvailableERK7QStringRb@Base 4:4.13.90
 _ZNK6Marble16GeoSceneSettings5groupERK7QString@Base 4:4.13.90
 _ZNK6Marble16GeoSceneSettings8nodeTypeEv@Base 4:4.13.90
 _ZNK6Marble16GeoSceneSettings8propertyERK7QString@Base 4:4.13.90
 _ZNK6Marble16MarbleControlBox10metaObjectEv@Base 4:4.13.90
 _ZNK6Marble16NavigationWidget10metaObjectEv@Base 4:4.13.90
 _ZNK6Marble16PositionTracking10metaObjectEv@Base 4:4.13.90
 _ZNK6Marble16PositionTracking12isTrackEmptyEv@Base 4:4.13.90
 _ZNK6Marble16PositionTracking12trackVisibleEv@Base 4:4.13.90
 _ZNK6Marble16PositionTracking15currentLocationEv@Base 4:4.13.90
 _ZNK6Marble16PositionTracking5errorEv@Base 4:4.13.90
 _ZNK6Marble16PositionTracking5speedEv@Base 4:4.13.90
 (subst)_ZNK6Marble16PositionTracking6lengthE{qreal}@Base 4:4.13.90
 _ZNK6Marble16PositionTracking6statusEv@Base 4:4.13.90
 _ZNK6Marble16PositionTracking8accuracyEv@Base 4:4.13.90
 _ZNK6Marble16PositionTracking9directionEv@Base 4:4.13.90
 _ZNK6Marble16PositionTracking9timestampEv@Base 4:4.13.90
 _ZNK6Marble16RouteSyncManager10metaObjectEv@Base 4:4.13.90
 _ZNK6Marble16RouteSyncManager15cachedRouteListEv@Base 4:4.13.90
 _ZNK6Marble16RouteSyncManager17generateTimestampEv@Base 4:4.13.90
 _ZNK6Marble16RouteSyncManager18isRouteSyncEnabledEv@Base 4:4.13.90
 _ZNK6Marble16RouteSyncManager20saveDisplayedToCacheEv@Base 4:4.13.90
 _ZNK6Marble16SunControlWidget10metaObjectEv@Base 4:4.13.90
 _ZNK6Marble17AbstractFloatItem10metaObjectEv@Base 4:4.13.90
 _ZNK6Marble17AbstractFloatItem10renderTypeEv@Base 4:4.13.90
 _ZNK6Marble17AbstractFloatItem12renderPolicyEv@Base 4:4.13.90
 _ZNK6Marble17AbstractFloatItem14positionLockedEv@Base 4:4.13.90
 _ZNK6Marble17AbstractFloatItem14renderPositionEv@Base 4:4.13.90
 _ZNK6Marble17AbstractFloatItem3penEv@Base 4:4.13.90
 _ZNK6Marble17AbstractFloatItem4fontEv@Base 4:4.13.90
 _ZNK6Marble17AbstractFloatItem7visibleEv@Base 4:4.13.90
 _ZNK6Marble17AbstractFloatItem8settingsEv@Base 4:4.13.90
 _ZNK6Marble17FrameGraphicsItem10backgroundEv@Base 4:4.13.90
 _ZNK6Marble17FrameGraphicsItem10marginLeftEv@Base 4:4.13.90
 _ZNK6Marble17FrameGraphicsItem11borderBrushEv@Base 4:4.13.90
 _ZNK6Marble17FrameGraphicsItem11borderStyleEv@Base 4:4.13.90
 _ZNK6Marble17FrameGraphicsItem11borderWidthEv@Base 4:4.13.90
 _ZNK6Marble17FrameGraphicsItem11contentRectEv@Base 4:4.13.90
 _ZNK6Marble17FrameGraphicsItem11contentSizeEv@Base 4:4.13.90
 _ZNK6Marble17FrameGraphicsItem11marginRightEv@Base 4:4.13.90
 _ZNK6Marble17FrameGraphicsItem11paintedRectEv@Base 4:4.13.90
 _ZNK6Marble17FrameGraphicsItem12marginBottomEv@Base 4:4.13.90
 _ZNK6Marble17FrameGraphicsItem15backgroundShapeEv@Base 4:4.13.90
 _ZNK6Marble17FrameGraphicsItem5frameEv@Base 4:4.13.90
 _ZNK6Marble17FrameGraphicsItem6marginEv@Base 4:4.13.90
 _ZNK6Marble17FrameGraphicsItem7paddingEv@Base 4:4.13.90
 _ZNK6Marble17FrameGraphicsItem9marginTopEv@Base 4:4.13.90
 _ZNK6Marble17GeoDataColorStyle12paintedColorEv@Base 4:4.13.90
 _ZNK6Marble17GeoDataColorStyle4packER11QDataStream@Base 4:4.13.90
 _ZNK6Marble17GeoDataColorStyle5colorEv@Base 4:4.13.90
 _ZNK6Marble17GeoDataColorStyle8nodeTypeEv@Base 4:4.13.90
 _ZNK6Marble17GeoDataColorStyle9colorModeEv@Base 4:4.13.90
 _ZNK6Marble17GeoDataColorStyleeqERKS0_@Base 4:4.13.90
 _ZNK6Marble17GeoDataColorStyleneERKS0_@Base 4:4.13.90
 _ZNK6Marble17GeoDataLabelStyle4fontEv@Base 4:4.13.90
 _ZNK6Marble17GeoDataLabelStyle4glowEv@Base 4:4.13.90
 _ZNK6Marble17GeoDataLabelStyle4packER11QDataStream@Base 4:4.13.90
 _ZNK6Marble17GeoDataLabelStyle5scaleEv@Base 4:4.13.90
 _ZNK6Marble17GeoDataLabelStyle8nodeTypeEv@Base 4:4.13.90
 _ZNK6Marble17GeoDataLabelStyle9alignmentEv@Base 4:4.13.90
 _ZNK6Marble17GeoDataLabelStyleeqERKS0_@Base 4:4.13.90
 _ZNK6Marble17GeoDataLabelStyleneERKS0_@Base 4:4.13.90
 _ZNK6Marble17GeoDataLatLonQuad10bottomLeftEv@Base 4:4.13.90
 _ZNK6Marble17GeoDataLatLonQuad11bottomRightEv@Base 4:4.13.90
 _ZNK6Marble17GeoDataLatLonQuad15topLeftLatitudeENS_18GeoDataCoordinates4UnitE@Base 4:4.13.90
 _ZNK6Marble17GeoDataLatLonQuad16topLeftLongitudeENS_18GeoDataCoordinates4UnitE@Base 4:4.13.90
 _ZNK6Marble17GeoDataLatLonQuad16topRightLatitudeENS_18GeoDataCoordinates4UnitE@Base 4:4.13.90
 _ZNK6Marble17GeoDataLatLonQuad17topRightLongitudeENS_18GeoDataCoordinates4UnitE@Base 4:4.13.90
 _ZNK6Marble17GeoDataLatLonQuad18bottomLeftLatitudeENS_18GeoDataCoordinates4UnitE@Base 4:4.13.90
 _ZNK6Marble17GeoDataLatLonQuad19bottomLeftLongitudeENS_18GeoDataCoordinates4UnitE@Base 4:4.13.90
 _ZNK6Marble17GeoDataLatLonQuad19bottomRightLatitudeENS_18GeoDataCoordinates4UnitE@Base 4:4.13.90
 _ZNK6Marble17GeoDataLatLonQuad20bottomRightLongitudeENS_18GeoDataCoordinates4UnitE@Base 4:4.13.90
 _ZNK6Marble17GeoDataLatLonQuad7isValidEv@Base 4:4.13.90
 _ZNK6Marble17GeoDataLatLonQuad7topLeftEv@Base 4:4.13.90
 _ZNK6Marble17GeoDataLatLonQuad8nodeTypeEv@Base 4:4.13.90
 _ZNK6Marble17GeoDataLatLonQuad8topRightEv@Base 4:4.13.90
 _ZNK6Marble17GeoDataLatLonQuadeqERKS0_@Base 4:4.13.90
 _ZNK6Marble17GeoDataLatLonQuadneERKS0_@Base 4:4.13.90
 _ZNK6Marble17GeoDataLineString10constBeginEv@Base 4:4.13.90
 _ZNK6Marble17GeoDataLineString10tessellateEv@Base 4:4.13.90
 _ZNK6Marble17GeoDataLineString12latLonAltBoxEv@Base 4:4.13.90
 _ZNK6Marble17GeoDataLineString12toNormalizedEv@Base 4:4.13.90
 _ZNK6Marble17GeoDataLineString15toPoleCorrectedEv@Base 4:4.13.90
 _ZNK6Marble17GeoDataLineString16toRangeCorrectedEv@Base 4:4.13.90
 _ZNK6Marble17GeoDataLineString17tessellationFlagsEv@Base 4:4.13.90
 _ZNK6Marble17GeoDataLineString19toDateLineCorrectedEv@Base 4:4.13.90
 _ZNK6Marble17GeoDataLineString1pEv@Base 4:4.13.90
 _ZNK6Marble17GeoDataLineString2atEi@Base 4:4.13.90
 _ZNK6Marble17GeoDataLineString3endEv@Base 4:4.13.90
 _ZNK6Marble17GeoDataLineString4lastEv@Base 4:4.13.90
 _ZNK6Marble17GeoDataLineString4packER11QDataStream@Base 4:4.13.90
 _ZNK6Marble17GeoDataLineString4sizeEv@Base 4:4.13.90
 _ZNK6Marble17GeoDataLineString5beginEv@Base 4:4.13.90
 _ZNK6Marble17GeoDataLineString5firstEv@Base 4:4.13.90
 (subst)_ZNK6Marble17GeoDataLineString6lengthE{qreal}i@Base 4:4.13.90
 _ZNK6Marble17GeoDataLineString7isEmptyEv@Base 4:4.13.90
 _ZNK6Marble17GeoDataLineString8constEndEv@Base 4:4.13.90
 _ZNK6Marble17GeoDataLineString8isClosedEv@Base 4:4.13.90
 _ZNK6Marble17GeoDataLineStringeqERKS0_@Base 4:4.13.90
 _ZNK6Marble17GeoDataLineStringixEi@Base 4:4.13.90
 _ZNK6Marble17GeoDataLineStringneERKS0_@Base 4:4.13.90
 _ZNK6Marble17GeoDataLinearRing11isClockwiseEv@Base 4:4.13.90
 (subst)_ZNK6Marble17GeoDataLinearRing6lengthE{qreal}i@Base 4:4.13.90
 _ZNK6Marble17GeoDataLinearRing8containsERKNS_18GeoDataCoordinatesE@Base 4:4.13.90
 _ZNK6Marble17GeoDataLinearRing8isClosedEv@Base 4:4.13.90
 _ZNK6Marble17GeoDataLinearRingeqERKS0_@Base 4:4.13.90
 _ZNK6Marble17GeoDataLinearRingneERKS0_@Base 4:4.13.90
 _ZNK6Marble17GeoDataMultiTrack10constBeginEv@Base 4:4.13.90
 _ZNK6Marble17GeoDataMultiTrack12latLonAltBoxEv@Base 4:4.13.90
 _ZNK6Marble17GeoDataMultiTrack13childPositionEPKNS_12GeoDataTrackE@Base 4:4.13.90
 _ZNK6Marble17GeoDataMultiTrack1pEv@Base 4:4.13.90
 _ZNK6Marble17GeoDataMultiTrack2atEi@Base 4:4.13.90
 _ZNK6Marble17GeoDataMultiTrack4lastEv@Base 4:4.13.90
 _ZNK6Marble17GeoDataMultiTrack4packER11QDataStream@Base 4:4.13.90
 _ZNK6Marble17GeoDataMultiTrack4sizeEv@Base 4:4.13.90
 _ZNK6Marble17GeoDataMultiTrack5childEi@Base 4:4.13.90
 _ZNK6Marble17GeoDataMultiTrack5firstEv@Base 4:4.13.90
 _ZNK6Marble17GeoDataMultiTrack6vectorEv@Base 4:4.13.90
 _ZNK6Marble17GeoDataMultiTrack8constEndEv@Base 4:4.13.90
 _ZNK6Marble17GeoDataMultiTrackeqERKS0_@Base 4:4.13.90
 _ZNK6Marble17GeoDataMultiTrackixEi@Base 4:4.13.90
 _ZNK6Marble17GeoDataMultiTrackneERKS0_@Base 4:4.13.90
 _ZNK6Marble17GeoDataViewVolume4nearEv@Base 4:4.13.90
 _ZNK6Marble17GeoDataViewVolume6topFovEv@Base 4:4.13.90
 _ZNK6Marble17GeoDataViewVolume7leftFovEv@Base 4:4.13.90
 _ZNK6Marble17GeoDataViewVolume8nodeTypeEv@Base 4:4.13.90
 _ZNK6Marble17GeoDataViewVolume8rightFovEv@Base 4:4.13.90
 _ZNK6Marble17GeoDataViewVolume9bottomFovEv@Base 4:4.13.90
 _ZNK6Marble17GeoDataViewVolumeeqERKS0_@Base 4:4.13.90
 _ZNK6Marble17GeoDataViewVolumeneERKS0_@Base 4:4.13.90
 _ZNK6Marble17LabelGraphicsItem11minimumSizeEv@Base 4:4.13.90
 _ZNK6Marble17LabelGraphicsItem4iconEv@Base 4:4.13.90
 _ZNK6Marble17LabelGraphicsItem4textEv@Base 4:4.13.90
 _ZNK6Marble17LabelGraphicsItem5imageEv@Base 4:4.13.90
 _ZNK6Marble17MarbleAboutDialog10metaObjectEv@Base 4:4.13.90
 _ZNK6Marble17ParseRunnerPlugin10metaObjectEv@Base 4:4.13.90
 _ZNK6Marble17ParseRunnerPlugin4iconEv@Base 4:4.13.90
 _ZNK6Marble17PluginAboutDialog10metaObjectEv@Base 4:4.13.90
 _ZNK6Marble17RenderPluginModel10metaObjectEv@Base 4:4.13.90
 _ZNK6Marble17RenderPluginModel13pluginAuthorsERK11QModelIndex@Base 4:4.13.90
 _ZNK6Marble17SearchInputWidget10metaObjectEv@Base 4:4.13.90
 _ZNK6Marble17TileCoordsPyramid10tilesCountEv@Base 4:4.13.90
 _ZNK6Marble17TileCoordsPyramid11bottomLevelEv@Base 4:4.13.90
 _ZNK6Marble17TileCoordsPyramid6coordsEi@Base 4:4.13.90
 _ZNK6Marble17TileCoordsPyramid8topLevelEv@Base 4:4.13.90
 _ZNK6Marble17TileCreatorDialog10metaObjectEv@Base 4:4.13.90
 _ZNK6Marble17TimeControlWidget10metaObjectEv@Base 4:4.13.90
 _ZNK6Marble18AbstractDataPlugin10metaObjectEv@Base 4:4.13.90
 _ZNK6Marble18AbstractDataPlugin10renderTypeEv@Base 4:4.13.90
 _ZNK6Marble18AbstractDataPlugin12backendTypesEv@Base 4:4.13.90
 _ZNK6Marble18AbstractDataPlugin12renderPolicyEv@Base 4:4.13.90
 _ZNK6Marble18AbstractDataPlugin13isInitializedEv@Base 4:4.13.90
 _ZNK6Marble18AbstractDataPlugin13numberOfItemsEv@Base 4:4.13.90
 _ZNK6Marble18AbstractDataPlugin14renderPositionEv@Base 4:4.13.90
 _ZNK6Marble18AbstractDataPlugin19isFavoriteItemsOnlyEv@Base 4:4.13.90
 _ZNK6Marble18AbstractDataPlugin5modelEv@Base 4:4.13.90
 _ZNK6Marble18AbstractProjection11maxValidLatEv@Base 4:4.13.90
 _ZNK6Marble18AbstractProjection11minValidLatEv@Base 4:4.13.90
 _ZNK6Marble18AbstractProjection11repeatableXEv@Base 4:4.13.90
 _ZNK6Marble18AbstractProjection12latLonAltBoxERK5QRectPKNS_14ViewportParamsE@Base 4:4.13.90
 _ZNK6Marble18AbstractProjection16isOrientedNormalEv@Base 4:4.13.90
 _ZNK6Marble18AbstractProjection16preservationTypeEv@Base 4:4.13.90
 _ZNK6Marble18AbstractProjection16traversablePolesEv@Base 4:4.13.90
 (subst)_ZNK6Marble18AbstractProjection17screenCoordinatesERKNS_18GeoDataCoordinatesEPKNS_14ViewportParamsER{qreal}S7_@Base 4:4.13.90
 (subst)_ZNK6Marble18AbstractProjection17screenCoordinatesE{qreal}{qreal}PKNS_14ViewportParamsER{qreal}S4_@Base 4:4.13.90
 _ZNK6Marble18AbstractProjection19traversableDateLineEv@Base 4:4.13.90
 _ZNK6Marble18AbstractProjection6maxLatEv@Base 4:4.13.90
 _ZNK6Marble18AbstractProjection6minLatEv@Base 4:4.13.90
 _ZNK6Marble18AbstractProjection9mapRegionEPKNS_14ViewportParamsE@Base 4:4.13.90
 _ZNK6Marble18CacheStoragePolicy10cacheLimitEv@Base 4:4.13.90
 _ZNK6Marble18CacheStoragePolicy10fileExistsERK7QString@Base 4:4.13.90
 _ZNK6Marble18CacheStoragePolicy10metaObjectEv@Base 4:4.13.90
 _ZNK6Marble18CacheStoragePolicy16lastErrorMessageEv@Base 4:4.13.90
 _ZNK6Marble18EditBookmarkDialog10metaObjectEv@Base 4:4.13.90
 _ZNK6Marble18EditBookmarkDialog11coordinatesEv@Base 4:4.13.90
 _ZNK6Marble18EditBookmarkDialog11descriptionEv@Base 4:4.13.90
 _ZNK6Marble18EditBookmarkDialog4nameEv@Base 4:4.13.90
 _ZNK6Marble18EditBookmarkDialog5rangeEv@Base 4:4.13.90
 _ZNK6Marble18EditBookmarkDialog6folderEv@Base 4:4.13.90
 _ZNK6Marble18EditBookmarkDialog8bookmarkEv@Base 4:4.13.90
 _ZNK6Marble18GeoDataCoordinates10quaternionEv@Base 4:4.13.90
 _ZNK6Marble18GeoDataCoordinates11interpolateERKS0_S2_S2_d@Base 4:4.13.90
 _ZNK6Marble18GeoDataCoordinates11interpolateERKS0_d@Base 4:4.13.90
 _ZNK6Marble18GeoDataCoordinates11latToStringEv@Base 4:4.13.90
 _ZNK6Marble18GeoDataCoordinates11lonToStringEv@Base 4:4.13.90
 (subst)_ZNK6Marble18GeoDataCoordinates13moveByBearingE{qreal}{qreal}@Base 4:4.13.90
 (subst)_ZNK6Marble18GeoDataCoordinates14geoCoordinatesER{qreal}S1_NS0_4UnitE@Base 4:4.13.90
 (subst)_ZNK6Marble18GeoDataCoordinates14geoCoordinatesER{qreal}S1_S1_NS0_4UnitE@Base 4:4.13.90
 _ZNK6Marble18GeoDataCoordinates4packER11QDataStream@Base 4:4.13.90
 _ZNK6Marble18GeoDataCoordinates6detailEv@Base 4:4.13.90
 _ZNK6Marble18GeoDataCoordinates6isPoleENS_4PoleE@Base 4:4.13.90
 _ZNK6Marble18GeoDataCoordinates7bearingERKS0_NS0_4UnitENS0_11BearingTypeE@Base 4:4.13.90
 _ZNK6Marble18GeoDataCoordinates7isValidEv@Base 4:4.13.90
 _ZNK6Marble18GeoDataCoordinates8altitudeEv@Base 4:4.13.90
 _ZNK6Marble18GeoDataCoordinates8latitudeENS0_4UnitE@Base 4:4.13.90
 _ZNK6Marble18GeoDataCoordinates8toStringENS0_8NotationEi@Base 4:4.13.90
 _ZNK6Marble18GeoDataCoordinates8toStringEv@Base 4:4.13.90
 _ZNK6Marble18GeoDataCoordinates9longitudeENS0_4UnitE@Base 4:4.13.90
 _ZNK6Marble18GeoDataCoordinateseqERKS0_@Base 4:4.13.90
 _ZNK6Marble18GeoDataCoordinatesneERKS0_@Base 4:4.13.90
 _ZNK6Marble18GeoDataNetworkLink17refreshVisibilityEv@Base 4:4.13.90
 _ZNK6Marble18GeoDataNetworkLink4linkEv@Base 4:4.13.90
 _ZNK6Marble18GeoDataNetworkLink8nodeTypeEv@Base 4:4.13.90
 _ZNK6Marble18GeoDataNetworkLink9flyToViewEv@Base 4:4.13.90
 _ZNK6Marble18GeoDataNetworkLinkeqERKS0_@Base 4:4.13.90
 _ZNK6Marble18GeoDataNetworkLinkneERKS0_@Base 4:4.13.90
 _ZNK6Marble18GeoDataOrientation4rollEv@Base 4:4.13.90
 _ZNK6Marble18GeoDataOrientation4tiltEv@Base 4:4.13.90
 _ZNK6Marble18GeoDataOrientation7headingEv@Base 4:4.13.90
 _ZNK6Marble18GeoDataOrientation8nodeTypeEv@Base 4:4.13.90
 _ZNK6Marble18GeoDataOrientationeqERKS0_@Base 4:4.13.90
 _ZNK6Marble18GeoDataOrientationneERKS0_@Base 4:4.13.90
 _ZNK6Marble18GeoDataResourceMap10sourceHrefEv@Base 4:4.13.90
 _ZNK6Marble18GeoDataResourceMap10targetHrefEv@Base 4:4.13.90
 _ZNK6Marble18GeoDataResourceMap5aliasEv@Base 4:4.13.90
 _ZNK6Marble18GeoDataResourceMap8nodeTypeEv@Base 4:4.13.90
 _ZNK6Marble18GeoDataResourceMapeqERKS0_@Base 4:4.13.90
 _ZNK6Marble18GeoDataResourceMapneERKS0_@Base 4:4.13.90
 _ZNK6Marble18GeoDataSimpleField11displayNameEv@Base 4:4.13.90
 _ZNK6Marble18GeoDataSimpleField4nameEv@Base 4:4.13.90
 _ZNK6Marble18GeoDataSimpleField4packER11QDataStream@Base 4:4.13.90
 _ZNK6Marble18GeoDataSimpleField4typeEv@Base 4:4.13.90
 _ZNK6Marble18GeoDataSimpleField8nodeTypeEv@Base 4:4.13.90
 _ZNK6Marble18GeoDataSimpleFieldeqERKS0_@Base 4:4.13.90
 _ZNK6Marble18GeoDataSimpleFieldneERKS0_@Base 4:4.13.90
 _ZNK6Marble18GeoDataTourControl8nodeTypeEv@Base 4:4.13.90
 _ZNK6Marble18GeoDataTourControl8playModeEv@Base 4:4.13.90
 _ZNK6Marble18GeoDataTourControleqERKS0_@Base 4:4.13.90
 _ZNK6Marble18GeoDataTourControlneERKS0_@Base 4:4.13.90
 _ZNK6Marble18MarbleGraphicsItem11contentRectEv@Base 4:4.13.90
 _ZNK6Marble18MarbleGraphicsItem11contentSizeEv@Base 4:4.13.90
 _ZNK6Marble18MarbleGraphicsItem1pEv@Base 4:4.13.90
 _ZNK6Marble18MarbleGraphicsItem4sizeEv@Base 4:4.13.90
 _ZNK6Marble18MarbleGraphicsItem6layoutEv@Base 4:4.13.90
 _ZNK6Marble18MarbleGraphicsItem7visibleEv@Base 4:4.13.90
 _ZNK6Marble18MarbleGraphicsItem8containsERK7QPointF@Base 4:4.13.90
 _ZNK6Marble18MarbleGraphicsItem9cacheModeEv@Base 4:4.13.90
 _ZNK6Marble18MarbleInputHandler10metaObjectEv@Base 4:4.13.90
 _ZNK6Marble18MarbleInputHandler19panViaArrowsEnabledEv@Base 4:4.13.90
 _ZNK6Marble18MarbleInputHandler25isMouseButtonPopupEnabledEN2Qt11MouseButtonE@Base 4:4.13.90
 _ZNK6Marble18MarbleInputHandler25isPositionSignalConnectedEv@Base 4:4.13.90
 _ZNK6Marble18MarbleInputHandler28inertialEarthRotationEnabledEv@Base 4:4.13.90
 _ZNK6Marble18MovieCaptureDialog10metaObjectEv@Base 4:4.13.90
 _ZNK6Marble18PrintOptionsWidget10metaObjectEv@Base 4:4.13.90
 _ZNK6Marble18PrintOptionsWidget11printLegendEv@Base 4:4.13.90
 _ZNK6Marble18PrintOptionsWidget15printBackgroundEv@Base 4:4.13.90
 _ZNK6Marble18PrintOptionsWidget17printRouteSummaryEv@Base 4:4.13.90
 _ZNK6Marble18PrintOptionsWidget24printDrivingInstructionsEv@Base 4:4.13.90
 _ZNK6Marble18PrintOptionsWidget30printDrivingInstructionsAdviceEv@Base 4:4.13.90
 _ZNK6Marble18PrintOptionsWidget8printMapEv@Base 4:4.13.90
 _ZNK6Marble18RoutingInstruction11predecessorEv@Base 4:4.13.90
 _ZNK6Marble18RoutingInstruction11secondsLeftEv@Base 4:4.13.90
 _ZNK6Marble18RoutingInstruction13distanceToEndEv@Base 4:4.13.90
 _ZNK6Marble18RoutingInstruction15instructionTextEv@Base 4:4.13.90
 _ZNK6Marble18RoutingInstruction17angleToPredecssorEv@Base 4:4.13.90
 _ZNK6Marble18RoutingInstruction17distanceFromStartEv@Base 4:4.13.90
 _ZNK6Marble18RoutingInstruction18intersectionPointsEv@Base 4:4.13.90
 _ZNK6Marble18RoutingInstruction19nextRoadInstructionEv@Base 4:4.13.90
 _ZNK6Marble18RoutingInstruction20roundaboutExitNumberEv@Base 4:4.13.90
 _ZNK6Marble18RoutingInstruction22totalDurationRemainingEv@Base 4:4.13.90
 _ZNK6Marble18RoutingInstruction23nextDistanceInstructionEv@Base 4:4.13.90
 _ZNK6Marble18RoutingInstruction6pointsEv@Base 4:4.13.90
 _ZNK6Marble18RoutingInstruction8distanceEv@Base 4:4.13.90
 _ZNK6Marble18RoutingInstruction8roadNameEv@Base 4:4.13.90
 _ZNK6Marble18RoutingInstruction8roadTypeEv@Base 4:4.13.90
 _ZNK6Marble18RoutingInstruction8turnTypeEv@Base 4:4.13.90
 _ZNK6Marble18RoutingInstruction9successorEv@Base 4:4.13.90
 _ZNK6Marble18ScreenGraphicsItem16positivePositionEv@Base 4:4.13.90
 _ZNK6Marble18ScreenGraphicsItem17absolutePositionsEv@Base 4:4.13.90
 _ZNK6Marble18ScreenGraphicsItem1pEv@Base 4:4.13.90
 _ZNK6Marble18ScreenGraphicsItem5flagsEv@Base 4:4.13.90
 _ZNK6Marble18ScreenGraphicsItem8positionEv@Base 4:4.13.90
 _ZNK6Marble18SearchRunnerPlugin10metaObjectEv@Base 4:4.13.90
 _ZNK6Marble18SearchRunnerPlugin14canWorkOfflineEv@Base 4:4.13.90
 _ZNK6Marble18SearchRunnerPlugin21supportsCelestialBodyERK7QString@Base 4:4.13.90
 _ZNK6Marble18SearchRunnerPlugin4iconEv@Base 4:4.13.90
 _ZNK6Marble18SearchRunnerPlugin7canWorkEv@Base 4:4.13.90
 _ZNK6Marble18WidgetGraphicsItem6widgetEv@Base 4:4.13.90
 _ZNK6Marble19BookmarkSyncManager10metaObjectEv@Base 4:4.13.90
 _ZNK6Marble19BookmarkSyncManager21isBookmarkSyncEnabledEv@Base 4:4.13.90
 _ZNK6Marble19BookmarkSyncManager7Private11endpointUrlERK7QString@Base 4:4.13.90
 _ZNK6Marble19BookmarkSyncManager7Private13findPlacemarkEPNS_16GeoDataContainerERKNS_16GeoDataPlacemarkE@Base 4:4.13.90
 _ZNK6Marble19BookmarkSyncManager7Private17lastSyncedKmlPathEv@Base 4:4.13.90
 _ZNK6Marble19BookmarkSyncManager7Private19determineDiffStatusERNS_8DiffItemEPNS_15GeoDataDocumentE@Base 4:4.13.90
 _ZNK6Marble19BookmarkSyncManager7Private22cloudBookmarksModifiedERK7QString@Base 4:4.13.90
 _ZNK6Marble19BookmarkSyncManager8lastSyncEv@Base 4:4.13.90
 _ZNK6Marble19GeoDataAbstractView11coordinatesEv@Base 4:4.13.90
 _ZNK6Marble19GeoDataAbstractView12altitudeModeEv@Base 4:4.13.90
 _ZNK6Marble19GeoDataAbstractView6equalsERKS0_@Base 4:4.13.90
 _ZNK6Marble19GeoDataAbstractView8timeSpanEv@Base 4:4.13.90
 _ZNK6Marble19GeoDataAbstractView9timeStampEv@Base 4:4.13.90
 _ZNK6Marble19GeoDataBalloonStyle11displayModeEv@Base 4:4.13.90
 _ZNK6Marble19GeoDataBalloonStyle15backgroundColorEv@Base 4:4.13.90
 _ZNK6Marble19GeoDataBalloonStyle4packER11QDataStream@Base 4:4.13.90
 _ZNK6Marble19GeoDataBalloonStyle4textEv@Base 4:4.13.90
 _ZNK6Marble19GeoDataBalloonStyle8nodeTypeEv@Base 4:4.13.90
 _ZNK6Marble19GeoDataBalloonStyle9textColorEv@Base 4:4.13.90
 _ZNK6Marble19GeoDataBalloonStyleeqERKS0_@Base 4:4.13.90
 _ZNK6Marble19GeoDataBalloonStyleneERKS0_@Base 4:4.13.90
 _ZNK6Marble19GeoDataExtendedData10constBeginEv@Base 4:4.13.90
 _ZNK6Marble19GeoDataExtendedData15simpleArrayDataERK7QString@Base 4:4.13.90
 _ZNK6Marble19GeoDataExtendedData4packER11QDataStream@Base 4:4.13.90
 _ZNK6Marble19GeoDataExtendedData4sizeEv@Base 4:4.13.90
 _ZNK6Marble19GeoDataExtendedData5valueERK7QString@Base 4:4.13.90
 _ZNK6Marble19GeoDataExtendedData7isEmptyEv@Base 4:4.13.90
 _ZNK6Marble19GeoDataExtendedData8constEndEv@Base 4:4.13.90
 _ZNK6Marble19GeoDataExtendedData8containsERK7QString@Base 4:4.13.90
 _ZNK6Marble19GeoDataExtendedData8nodeTypeEv@Base 4:4.13.90
 _ZNK6Marble19GeoDataExtendedData8valueRefERK7QString@Base 4:4.13.90
 _ZNK6Marble19GeoDataExtendedDataeqERKS0_@Base 4:4.13.90
 _ZNK6Marble19GeoDataExtendedDataneERKS0_@Base 4:4.13.90
 _ZNK6Marble19GeoDataImagePyramid10gridOriginEv@Base 4:4.13.90
 _ZNK6Marble19GeoDataImagePyramid8maxWidthEv@Base 4:4.13.90
 _ZNK6Marble19GeoDataImagePyramid8nodeTypeEv@Base 4:4.13.90
 _ZNK6Marble19GeoDataImagePyramid8tileSizeEv@Base 4:4.13.90
 _ZNK6Marble19GeoDataImagePyramid9maxHeightEv@Base 4:4.13.90
 _ZNK6Marble19GeoDataLatLonAltBox10intersectsERKS0_@Base 4:4.13.90
 _ZNK6Marble19GeoDataLatLonAltBox11maxAltitudeEv@Base 4:4.13.90
 _ZNK6Marble19GeoDataLatLonAltBox11minAltitudeEv@Base 4:4.13.90
 _ZNK6Marble19GeoDataLatLonAltBox12altitudeModeEv@Base 4:4.13.90
 _ZNK6Marble19GeoDataLatLonAltBox4packER11QDataStream@Base 4:4.13.90
 _ZNK6Marble19GeoDataLatLonAltBox6centerEv@Base 4:4.13.90
 _ZNK6Marble19GeoDataLatLonAltBox6isNullEv@Base 4:4.13.90
 _ZNK6Marble19GeoDataLatLonAltBox8containsERKNS_18GeoDataCoordinatesE@Base 4:4.13.90
 _ZNK6Marble19GeoDataLatLonAltBox8containsERKS0_@Base 4:4.13.90
 _ZNK6Marble19GeoDataLatLonAltBox8nodeTypeEv@Base 4:4.13.90
 _ZNK6Marble19GeoDataLatLonAltBox8toStringENS_18GeoDataCoordinates4UnitE@Base 4:4.13.90
 _ZNK6Marble19GeoDataPhotoOverlay10viewVolumeEv@Base 4:4.13.90
 _ZNK6Marble19GeoDataPhotoOverlay12imagePyramidEv@Base 4:4.13.90
 _ZNK6Marble19GeoDataPhotoOverlay5pointEv@Base 4:4.13.90
 _ZNK6Marble19GeoDataPhotoOverlay5shapeEv@Base 4:4.13.90
 _ZNK6Marble19GeoDataPhotoOverlay8nodeTypeEv@Base 4:4.13.90
 _ZNK6Marble19GeoDataPhotoOverlay8rotationEv@Base 4:4.13.90
 _ZNK6Marble19GeoDataPhotoOverlayeqERKS0_@Base 4:4.13.90
 _ZNK6Marble19GeoDataPhotoOverlayneERKS0_@Base 4:4.13.90
 _ZNK6Marble19HttpDownloadManager10metaObjectEv@Base 4:4.13.90
 _ZNK6Marble19HttpDownloadManager17hasDownloadPolicyERKNS_14DownloadPolicyE@Base 4:4.13.90
 _ZNK6Marble19MarbleLegendBrowser10metaObjectEv@Base 4:4.13.90
 _ZNK6Marble19MarbleLegendBrowser8sizeHintEv@Base 4:4.13.90
 _ZNK6Marble19RoutingRunnerPlugin10metaObjectEv@Base 4:4.13.90
 _ZNK6Marble19RoutingRunnerPlugin13statusMessageEv@Base 4:4.13.90
 _ZNK6Marble19RoutingRunnerPlugin14canWorkOfflineEv@Base 4:4.13.90
 _ZNK6Marble19RoutingRunnerPlugin16supportsTemplateENS_20RoutingProfilesModel15ProfileTemplateE@Base 4:4.13.90
 _ZNK6Marble19RoutingRunnerPlugin16templateSettingsENS_20RoutingProfilesModel15ProfileTemplateE@Base 4:4.13.90
 _ZNK6Marble19RoutingRunnerPlugin21supportsCelestialBodyERK7QString@Base 4:4.13.90
 _ZNK6Marble19RoutingRunnerPlugin4iconEv@Base 4:4.13.90
 _ZNK6Marble19RoutingRunnerPlugin7canWorkEv@Base 4:4.13.90
 _ZNK6Marble19SearchRunnerManager10metaObjectEv@Base 4:4.13.90
 (optional=templinst)_ZNK6Marble19SearchRunnerManager7Private7pluginsIKNS_18SearchRunnerPluginEEE5QListIPT_ERKS8_@Base 4:4.13.90
 _ZNK6Marble20AbstractWorkerThread10metaObjectEv@Base 4:4.13.90
 _ZNK6Marble20DownloadRegionDialog10metaObjectEv@Base 4:4.13.90
 _ZNK6Marble20DownloadRegionDialog6regionEv@Base 4:4.13.90
 _ZNK6Marble20DownloadRegionDialog7Private15hasTextureLayerEv@Base 4:4.13.90
 _ZNK6Marble20DownloadRegionDialog7Private8hasRouteEv@Base 4:4.13.90
 _ZNK6Marble20ExternalEditorDialog10metaObjectEv@Base 4:4.13.90
 _ZNK6Marble20ExternalEditorDialog11saveDefaultEv@Base 4:4.13.90
 _ZNK6Marble20ExternalEditorDialog14externalEditorEv@Base 4:4.13.90
 _ZNK6Marble20GeoDataGroundOverlay10latLonQuadEv@Base 4:4.13.90
 _ZNK6Marble20GeoDataGroundOverlay12altitudeModeEv@Base 4:4.13.90
 _ZNK6Marble20GeoDataGroundOverlay8altitudeEv@Base 4:4.13.90
 _ZNK6Marble20GeoDataGroundOverlay8nodeTypeEv@Base 4:4.13.90
 _ZNK6Marble20GeoDataGroundOverlay9latLonBoxEv@Base 4:4.13.90
 _ZNK6Marble20GeoDataGroundOverlayeqERKS0_@Base 4:4.13.90
 _ZNK6Marble20GeoDataGroundOverlayneERKS0_@Base 4:4.13.90
 _ZNK6Marble20GeoDataMultiGeometry10constBeginEv@Base 4:4.13.90
 _ZNK6Marble20GeoDataMultiGeometry12latLonAltBoxEv@Base 4:4.13.90
 _ZNK6Marble20GeoDataMultiGeometry13childPositionEPKNS_15GeoDataGeometryE@Base 4:4.13.90
 _ZNK6Marble20GeoDataMultiGeometry1pEv@Base 4:4.13.90
 _ZNK6Marble20GeoDataMultiGeometry2atEi@Base 4:4.13.90
 _ZNK6Marble20GeoDataMultiGeometry4lastEv@Base 4:4.13.90
 _ZNK6Marble20GeoDataMultiGeometry4packER11QDataStream@Base 4:4.13.90
 _ZNK6Marble20GeoDataMultiGeometry4sizeEv@Base 4:4.13.90
 _ZNK6Marble20GeoDataMultiGeometry5childEi@Base 4:4.13.90
 _ZNK6Marble20GeoDataMultiGeometry5firstEv@Base 4:4.13.90
 _ZNK6Marble20GeoDataMultiGeometry6vectorEv@Base 4:4.13.90
 _ZNK6Marble20GeoDataMultiGeometry8constEndEv@Base 4:4.13.90
 _ZNK6Marble20GeoDataMultiGeometryixEi@Base 4:4.13.90
 _ZNK6Marble20GeoDataScreenOverlay10rotationXYEv@Base 4:4.13.90
 _ZNK6Marble20GeoDataScreenOverlay4sizeEv@Base 4:4.13.90
 _ZNK6Marble20GeoDataScreenOverlay8nodeTypeEv@Base 4:4.13.90
 _ZNK6Marble20GeoDataScreenOverlay8rotationEv@Base 4:4.13.90
 _ZNK6Marble20GeoDataScreenOverlay8screenXYEv@Base 4:4.13.90
 _ZNK6Marble20GeoDataScreenOverlay9overlayXYEv@Base 4:4.13.90
 _ZNK6Marble20GeoDataScreenOverlayeqERKS0_@Base 4:4.13.90
 _ZNK6Marble20GeoDataScreenOverlayneERKS0_@Base 4:4.13.90
 _ZNK6Marble20GeoDataStyleSelector4packER11QDataStream@Base 4:4.13.90
 _ZNK6Marble20GeoDataStyleSelector8nodeTypeEv@Base 4:4.13.90
 _ZNK6Marble20GeoDataStyleSelectoreqERKS0_@Base 4:4.13.90
 _ZNK6Marble20GeoDataStyleSelectorneERKS0_@Base 4:4.13.90
 _ZNK6Marble20GeoDataTimePrimitive4packER11QDataStream@Base 4:4.13.90
 _ZNK6Marble20GeoDataTimePrimitive8nodeTypeEv@Base 4:4.13.90
 _ZNK6Marble20GeoPhotoGraphicsItem12latLonAltBoxEv@Base 4:4.13.90
 _ZNK6Marble20GeoPhotoGraphicsItem5photoEv@Base 4:4.13.90
 _ZNK6Marble20GeoPhotoGraphicsItem5pointEv@Base 4:4.13.90
 _ZNK6Marble20GeoPhotoGraphicsItem9photoPathEv@Base 4:4.13.90
 _ZNK6Marble20GeoPointGraphicsItem12latLonAltBoxEv@Base 4:4.13.90
 _ZNK6Marble20GeoPointGraphicsItem5pointEv@Base 4:4.13.90
 _ZNK6Marble20MarblePlacemarkModel10metaObjectEv@Base 4:4.13.90
 _ZNK6Marble20MarblePlacemarkModel11approxMatchERK11QModelIndexiRK8QVarianti6QFlagsIN2Qt9MatchFlagEE@Base 4:4.13.90
 _ZNK6Marble20MarblePlacemarkModel11columnCountERK11QModelIndex@Base 4:4.13.90
 _ZNK6Marble20MarblePlacemarkModel4dataERK11QModelIndexi@Base 4:4.13.90
 _ZNK6Marble20MarblePlacemarkModel8rowCountERK11QModelIndex@Base 4:4.13.90
 _ZNK6Marble20ParsingRunnerManager10metaObjectEv@Base 4:4.13.90
 _ZNK6Marble20QtMarbleConfigDialog10metaObjectEv@Base 4:4.13.90
 _ZNK6Marble20QtMarbleConfigDialog10syncRoutesEv@Base 4:4.13.90
 _ZNK6Marble20QtMarbleConfigDialog10systemTimeEv@Base 4:4.13.90
 _ZNK6Marble20QtMarbleConfigDialog11syncBackendEv@Base 4:4.13.90
 _ZNK6Marble20QtMarbleConfigDialog11syncEnabledEv@Base 4:4.13.90
 _ZNK6Marble20QtMarbleConfigDialog12stillQualityEv@Base 4:4.13.90
 _ZNK6Marble20QtMarbleConfigDialog13syncBookmarksEv@Base 4:4.13.90
 _ZNK6Marble20QtMarbleConfigDialog14chosenTimezoneEv@Base 4:4.13.90
 _ZNK6Marble20QtMarbleConfigDialog14customTimezoneEv@Base 4:4.13.90
 _ZNK6Marble20QtMarbleConfigDialog14graphicsSystemEv@Base 4:4.13.90
 _ZNK6Marble20QtMarbleConfigDialog14owncloudServerEv@Base 4:4.13.90
 _ZNK6Marble20QtMarbleConfigDialog14systemTimezoneEv@Base 4:4.13.90
 _ZNK6Marble20QtMarbleConfigDialog15lastSessionTimeEv@Base 4:4.13.90
 _ZNK6Marble20QtMarbleConfigDialog16animationQualityEv@Base 4:4.13.90
 _ZNK6Marble20QtMarbleConfigDialog16owncloudPasswordEv@Base 4:4.13.90
 _ZNK6Marble20QtMarbleConfigDialog16owncloudUsernameEv@Base 4:4.13.90
 _ZNK6Marble20QtMarbleConfigDialog17externalMapEditorEv@Base 4:4.13.90
 _ZNK6Marble20QtMarbleConfigDialog17measurementSystemEv@Base 4:4.13.90
 _ZNK6Marble20QtMarbleConfigDialog19animateTargetVoyageEv@Base 4:4.13.90
 _ZNK6Marble20QtMarbleConfigDialog21inertialEarthRotationEv@Base 4:4.13.90
 _ZNK6Marble20QtMarbleConfigDialog22volatileTileCacheLimitEv@Base 4:4.13.90
 _ZNK6Marble20QtMarbleConfigDialog24persistentTileCacheLimitEv@Base 4:4.13.90
 _ZNK6Marble20QtMarbleConfigDialog3UTCEv@Base 4:4.13.90
 _ZNK6Marble20QtMarbleConfigDialog7mapFontEv@Base 4:4.13.90
 _ZNK6Marble20QtMarbleConfigDialog8proxyUrlEv@Base 4:4.13.90
 _ZNK6Marble20QtMarbleConfigDialog9angleUnitEv@Base 4:4.13.90
 _ZNK6Marble20QtMarbleConfigDialog9onStartupEv@Base 4:4.13.90
 _ZNK6Marble20QtMarbleConfigDialog9proxyAuthEv@Base 4:4.13.90
 _ZNK6Marble20QtMarbleConfigDialog9proxyPassEv@Base 4:4.13.90
 _ZNK6Marble20QtMarbleConfigDialog9proxyPortEv@Base 4:4.13.90
 _ZNK6Marble20QtMarbleConfigDialog9proxyTypeEv@Base 4:4.13.90
 _ZNK6Marble20QtMarbleConfigDialog9proxyUserEv@Base 4:4.13.90
 _ZNK6Marble20RoutingProfilesModel10metaObjectEv@Base 4:4.13.90
 _ZNK6Marble20RoutingProfilesModel4dataERK11QModelIndexi@Base 4:4.13.90
 _ZNK6Marble20RoutingProfilesModel8profilesEv@Base 4:4.13.90
 _ZNK6Marble20RoutingProfilesModel8rowCountERK11QModelIndex@Base 4:4.13.90
 _ZNK6Marble20RoutingRunnerManager10metaObjectEv@Base 4:4.13.90
 (optional=templinst)_ZNK6Marble20RoutingRunnerManager7Private7pluginsINS_19RoutingRunnerPluginEEE5QListIPT_ERKS7_@Base 4:4.13.90
 _ZNK6Marble20TileLevelRangeWidget10metaObjectEv@Base 4:4.13.90
 _ZNK6Marble20TileLevelRangeWidget11bottomLevelEv@Base 4:4.13.90
 _ZNK6Marble20TileLevelRangeWidget8sizeHintEv@Base 4:4.13.90
 _ZNK6Marble20TileLevelRangeWidget8topLevelEv@Base 4:4.13.90
 _ZNK6Marble20VoiceNavigationModel10metaObjectEv@Base 4:4.13.90
 _ZNK6Marble20VoiceNavigationModel11instructionEv@Base 4:4.13.90
 _ZNK6Marble20VoiceNavigationModel16isSpeakerEnabledEv@Base 4:4.13.90
 _ZNK6Marble20VoiceNavigationModel7previewEv@Base 4:4.13.90
 _ZNK6Marble20VoiceNavigationModel7speakerEv@Base 4:4.13.90
 _ZNK6Marble21BillboardGraphicsItem10coordinateEv@Base 4:4.13.90
 _ZNK6Marble21BillboardGraphicsItem12containsRectERK7QPointF@Base 4:4.13.90
 _ZNK6Marble21BillboardGraphicsItem13boundingRectsEv@Base 4:4.13.90
 _ZNK6Marble21BillboardGraphicsItem1pEv@Base 4:4.13.90
 _ZNK6Marble21BillboardGraphicsItem9alignmentEv@Base 4:4.13.90
 _ZNK6Marble21BillboardGraphicsItem9positionsEv@Base 4:4.13.90
 _ZNK6Marble21BookmarkManagerDialog10metaObjectEv@Base 4:4.13.90
 _ZNK6Marble21CurrentLocationWidget10metaObjectEv@Base 4:4.13.90
 _ZNK6Marble21CurrentLocationWidget12lastOpenPathEv@Base 4:4.13.90
 _ZNK6Marble21CurrentLocationWidget12lastSavePathEv@Base 4:4.13.90
 _ZNK6Marble21CurrentLocationWidget12recenterModeEv@Base 4:4.13.90
 _ZNK6Marble21CurrentLocationWidget12trackVisibleEv@Base 4:4.13.90
 _ZNK6Marble21CurrentLocationWidget8autoZoomEv@Base 4:4.13.90
 _ZNK6Marble21GeoDataAnimatedUpdate6updateEv@Base 4:4.13.90
 _ZNK6Marble21GeoDataAnimatedUpdate8durationEv@Base 4:4.13.90
 _ZNK6Marble21GeoDataAnimatedUpdate8nodeTypeEv@Base 4:4.13.90
 _ZNK6Marble21GeoDataAnimatedUpdateeqERKS0_@Base 4:4.13.90
 _ZNK6Marble21GeoDataAnimatedUpdateneERKS0_@Base 4:4.13.90
 _ZNK6Marble21MarbleWidgetPopupMenu10metaObjectEv@Base 4:4.13.90
 _ZNK6Marble21MarbleWidgetPopupMenu13mousePositionEv@Base 4:4.13.90
 _ZNK6Marble21MarbleWidgetPopupMenu7Private16mouseCoordinatesEP7QAction@Base 4:4.13.90
 _ZNK6Marble21RoutingProfilesWidget10metaObjectEv@Base 4:4.13.90
 _ZNK6Marble22AbstractDataPluginItem10isFavoriteEv@Base 4:4.13.90
 _ZNK6Marble22AbstractDataPluginItem10metaObjectEv@Base 4:4.13.90
 _ZNK6Marble22AbstractDataPluginItem22addedAngularResolutionEv@Base 4:4.13.90
 _ZNK6Marble22AbstractDataPluginItem2idEv@Base 4:4.13.90
 _ZNK6Marble22AbstractDataPluginItem6targetEv@Base 4:4.13.90
 _ZNK6Marble22AbstractDataPluginItem7toolTipEv@Base 4:4.13.90
 _ZNK6Marble22AbstractDataPluginItem8isStickyEv@Base 4:4.13.90
 _ZNK6Marble22AlternativeRoutesModel10headerDataEiN2Qt11OrientationEi@Base 4:4.13.90
 _ZNK6Marble22AlternativeRoutesModel10metaObjectEv@Base 4:4.13.90
 _ZNK6Marble22AlternativeRoutesModel4dataERK11QModelIndexi@Base 4:4.13.90
 _ZNK6Marble22AlternativeRoutesModel8rowCountERK11QModelIndex@Base 4:4.13.90
 _ZNK6Marble22GeoDataSimpleArrayData10valuesListEv@Base 4:4.13.90
 _ZNK6Marble22GeoDataSimpleArrayData4packER11QDataStream@Base 4:4.13.90
 _ZNK6Marble22GeoDataSimpleArrayData4sizeEv@Base 4:4.13.90
 _ZNK6Marble22GeoDataSimpleArrayData7valueAtEi@Base 4:4.13.90
 _ZNK6Marble22GeoDataSimpleArrayData8nodeTypeEv@Base 4:4.13.90
 _ZNK6Marble22GeoDataSimpleArrayDataeqERKS0_@Base 4:4.13.90
 _ZNK6Marble22GeoDataSimpleArrayDataneERKS0_@Base 4:4.13.90
 _ZNK6Marble22GeoPolygonGraphicsItem12latLonAltBoxEv@Base 4:4.13.90
 _ZNK6Marble22MapThemeDownloadDialog10metaObjectEv@Base 4:4.13.90
 _ZNK6Marble22PositionProviderPlugin10metaObjectEv@Base 4:4.13.90
 _ZNK6Marble22PositionProviderPlugin11marbleModelEv@Base 4:4.13.90
 _ZNK6Marble22PositionProviderPlugin13statusChangedENS_22PositionProviderStatusE@Base 4:4.13.90
 _ZNK6Marble22PositionProviderPlugin15positionChangedENS_18GeoDataCoordinatesENS_15GeoDataAccuracyE@Base 4:4.13.90
 _ZNK6Marble22ReverseGeocodingRunner10metaObjectEv@Base 4:4.13.90
 _ZNK6Marble22ReverseGeocodingRunner5modelEv@Base 4:4.13.90
 _ZNK6Marble23AbstractDataPluginModel10fileExistsERK7QString@Base 4:4.13.90
 _ZNK6Marble23AbstractDataPluginModel10fileExistsERK7QStringS3_@Base 4:4.13.90
 _ZNK6Marble23AbstractDataPluginModel10itemExistsERK7QString@Base 4:4.13.90
 _ZNK6Marble23AbstractDataPluginModel10metaObjectEv@Base 4:4.13.90
 _ZNK6Marble23AbstractDataPluginModel11marbleModelEv@Base 4:4.13.90
 _ZNK6Marble23AbstractDataPluginModel13favoriteItemsEv@Base 4:4.13.90
 _ZNK6Marble23AbstractDataPluginModel16generateFilenameERK7QStringS3_@Base 4:4.13.90
 _ZNK6Marble23AbstractDataPluginModel16generateFilepathERK7QStringS3_@Base 4:4.13.90
 _ZNK6Marble23AbstractDataPluginModel19isFavoriteItemsOnlyEv@Base 4:4.13.90
 _ZNK6Marble23AbstractDataPluginModel8findItemERK7QString@Base 4:4.13.90
 _ZNK6Marble23GeoSceneAbstractDataset10fileFormatEv@Base 4:4.13.90
 _ZNK6Marble23GeoSceneAbstractDataset4nameEv@Base 4:4.13.90
 _ZNK6Marble23GeoSceneAbstractDataset6expireEv@Base 4:4.13.90
 _ZNK6Marble23NewBookmarkFolderDialog10folderNameEv@Base 4:4.13.90
 _ZNK6Marble23NewBookmarkFolderDialog10metaObjectEv@Base 4:4.13.90
 _ZNK6Marble24MarbleGraphicsGridLayout7spacingEv@Base 4:4.13.90
 _ZNK6Marble24MarbleGraphicsGridLayout9alignmentEPNS_18ScreenGraphicsItemE@Base 4:4.13.90
 _ZNK6Marble24MarbleGraphicsGridLayout9alignmentEv@Base 4:4.13.90
 _ZNK6Marble25GeoDataNetworkLinkControl11linkSnippetEv@Base 4:4.13.90
 _ZNK6Marble25GeoDataNetworkLinkControl12abstractViewEv@Base 4:4.13.90
 _ZNK6Marble25GeoDataNetworkLinkControl15linkDescriptionEv@Base 4:4.13.90
 _ZNK6Marble25GeoDataNetworkLinkControl16maxSessionLengthEv@Base 4:4.13.90
 _ZNK6Marble25GeoDataNetworkLinkControl16minRefreshPeriodEv@Base 4:4.13.90
 _ZNK6Marble25GeoDataNetworkLinkControl6cookieEv@Base 4:4.13.90
 _ZNK6Marble25GeoDataNetworkLinkControl6updateEv@Base 4:4.13.90
 _ZNK6Marble25GeoDataNetworkLinkControl7expiresEv@Base 4:4.13.90
 _ZNK6Marble25GeoDataNetworkLinkControl7messageEv@Base 4:4.13.90
 _ZNK6Marble25GeoDataNetworkLinkControl8linkNameEv@Base 4:4.13.90
 _ZNK6Marble25GeoDataNetworkLinkControl8maxLinesEv@Base 4:4.13.90
 _ZNK6Marble25GeoDataNetworkLinkControl8nodeTypeEv@Base 4:4.13.90
 _ZNK6Marble25GeoDataNetworkLinkControleqERKS0_@Base 4:4.13.90
 _ZNK6Marble25GeoDataNetworkLinkControlneERKS0_@Base 4:4.13.90
 _ZNK6Marble25GeoLineStringGraphicsItem12latLonAltBoxEv@Base 4:4.13.90
 _ZNK6Marble25MarbleDefaultInputHandler10metaObjectEv@Base 4:4.13.90
 _ZNK6Marble25ScreenOverlayGraphicsItem13screenOverlayEv@Base 4:4.13.90
 _ZNK6Marble26MarblePluginSettingsWidget10metaObjectEv@Base 4:4.13.90
 _ZNK6Marble28ReverseGeocodingRunnerPlugin10metaObjectEv@Base 4:4.13.90
 _ZNK6Marble28ReverseGeocodingRunnerPlugin14canWorkOfflineEv@Base 4:4.13.90
 _ZNK6Marble28ReverseGeocodingRunnerPlugin21supportsCelestialBodyERK7QString@Base 4:4.13.90
 _ZNK6Marble28ReverseGeocodingRunnerPlugin4iconEv@Base 4:4.13.90
 _ZNK6Marble28ReverseGeocodingRunnerPlugin7canWorkEv@Base 4:4.13.90
 _ZNK6Marble29ReverseGeocodingRunnerManager10metaObjectEv@Base 4:4.13.90
 _ZNK6Marble29ReverseGeocodingRunnerManager7Private7pluginsERK5QListIPKNS_28ReverseGeocodingRunnerPluginEE@Base 4:4.13.90
 _ZNK6Marble31PositionProviderPluginInterface5errorEv@Base 4:4.13.90
 _ZNK6Marble5Route10travelTimeEv@Base 4:4.13.90
 _ZNK6Marble5Route10turnPointsEv@Base 4:4.13.90
 _ZNK6Marble5Route14currentSegmentEv@Base 4:4.13.90
 _ZNK6Marble5Route14updatePositionEv@Base 4:4.13.90
 _ZNK6Marble5Route15currentWaypointEv@Base 4:4.13.90
 _ZNK6Marble5Route15positionOnRouteEv@Base 4:4.13.90
 _ZNK6Marble5Route2atEi@Base 4:4.13.90
 _ZNK6Marble5Route4pathEv@Base 4:4.13.90
 _ZNK6Marble5Route4sizeEv@Base 4:4.13.90
 _ZNK6Marble5Route6boundsEv@Base 4:4.13.90
 _ZNK6Marble5Route8distanceEv@Base 4:4.13.90
 _ZNK6Marble5Route8positionEv@Base 4:4.13.90
 _ZNK6Marble5Route9waypointsEv@Base 4:4.13.90
 _ZNK6Marble6Planet13hasAtmosphereEv@Base 4:4.13.90
 _ZNK6Marble6Planet15atmosphereColorEv@Base 4:4.13.90
 _ZNK6Marble6Planet2PiEv@Base 4:4.13.90
 _ZNK6Marble6Planet2idEv@Base 4:4.13.90
 _ZNK6Marble6Planet3C_1Ev@Base 4:4.13.90
 _ZNK6Marble6Planet3C_2Ev@Base 4:4.13.90
 _ZNK6Marble6Planet3C_3Ev@Base 4:4.13.90
 _ZNK6Marble6Planet3C_4Ev@Base 4:4.13.90
 _ZNK6Marble6Planet3C_5Ev@Base 4:4.13.90
 _ZNK6Marble6Planet3C_6Ev@Base 4:4.13.90
 _ZNK6Marble6Planet3M_0Ev@Base 4:4.13.90
 _ZNK6Marble6Planet3M_1Ev@Base 4:4.13.90
 _ZNK6Marble6Planet4nameEv@Base 4:4.13.90
 _ZNK6Marble6Planet6radiusEv@Base 4:4.13.90
 _ZNK6Marble6Planet7epsilonEv@Base 4:4.13.90
 _ZNK6Marble6Planet7theta_0Ev@Base 4:4.13.90
 _ZNK6Marble6Planet7theta_1Ev@Base 4:4.13.90
 _ZNK6Marble6TileId11toLatLonBoxEPKNS_13GeoSceneTiledE@Base 4:4.13.90
 _ZNK6Marble7GeoNode8nodeTypeEv@Base 4:4.13.90
 _ZNK6Marble7HttpJob10metaObjectEv@Base 4:4.13.90
 _ZNK6Marble7HttpJob11initiatorIdEv@Base 4:4.13.90
 _ZNK6Marble7HttpJob13downloadUsageEv@Base 4:4.13.90
 _ZNK6Marble7HttpJob19destinationFileNameEv@Base 4:4.13.90
 _ZNK6Marble7HttpJob20setUserAgentPluginIdERK7QString@Base 4:4.13.90
 _ZNK6Marble7HttpJob9sourceUrlEv@Base 4:4.13.90
 _ZNK6Marble7HttpJob9userAgentEv@Base 4:4.13.90
 _ZNK6Marble8Maneuver11hasWaypointEv@Base 4:4.13.90
 _ZNK6Marble8Maneuver13waypointIndexEv@Base 4:4.13.90
 _ZNK6Marble8Maneuver15directionPixmapEv@Base 4:4.13.90
 _ZNK6Marble8Maneuver15instructionTextEv@Base 4:4.13.90
 _ZNK6Marble8Maneuver8positionEv@Base 4:4.13.90
 _ZNK6Marble8Maneuver8roadNameEv@Base 4:4.13.90
 _ZNK6Marble8Maneuver8waypointEv@Base 4:4.13.90
 _ZNK6Marble8Maneuver9directionEv@Base 4:4.13.90
 _ZNK6Marble8ManeuvereqERKS0_@Base 4:4.13.90
 _ZNK6Marble8ManeuverneERKS0_@Base 4:4.13.90
 _ZNK6Marble9GeoParser13parentElementEj@Base 4:4.13.90
 _ZNK6Marble9GeoParser14isValidElementERK7QString@Base 4:4.13.90
 _ZNK6Marble9GeoParser9attributeEPKc@Base 4:4.13.90
 _ZNK6Marble9MapWizard10metaObjectEv@Base 4:4.13.90
 _ZNK6Marble9MapWizard10wmsServersEv@Base 4:4.13.90
 _ZNK6Marble9MapWizard16staticUrlServersEv@Base 4:4.13.90
 _ZNK6Marble9MapWizard6nextIdEv@Base 4:4.13.90
 _ZNK6Marble9MarbleMap10floatItemsEv@Base 4:4.13.90
 _ZNK6Marble9MarbleMap10mapQualityENS_11ViewContextE@Base 4:4.13.90
 _ZNK6Marble9MarbleMap10mapQualityEv@Base 4:4.13.90
 _ZNK6Marble9MarbleMap10mapThemeIdEv@Base 4:4.13.90
 _ZNK6Marble9MarbleMap10metaObjectEv@Base 4:4.13.90
 _ZNK6Marble9MarbleMap10projectionEv@Base 4:4.13.90
 _ZNK6Marble9MarbleMap10showCitiesEv@Base 4:4.13.90
 _ZNK6Marble9MarbleMap10showCloudsEv@Base 4:4.13.90
 _ZNK6Marble9MarbleMap10showPlacesEv@Base 4:4.13.90
 _ZNK6Marble9MarbleMap10showReliefEv@Base 4:4.13.90
 _ZNK6Marble9MarbleMap10showRiversEv@Base 4:4.13.90
 _ZNK6Marble9MarbleMap11dataPluginsEv@Base 4:4.13.90
 _ZNK6Marble9MarbleMap11defaultFontEv@Base 4:4.13.90
 _ZNK6Marble9MarbleMap11maximumZoomEv@Base 4:4.13.90
 _ZNK6Marble9MarbleMap11minimumZoomEv@Base 4:4.13.90
 _ZNK6Marble9MarbleMap11renderStateEv@Base 4:4.13.90
 _ZNK6Marble9MarbleMap11showBordersEv@Base 4:4.13.90
 _ZNK6Marble9MarbleMap11showCompassEv@Base 4:4.13.90
 _ZNK6Marble9MarbleMap11showTerrainEv@Base 4:4.13.90
 _ZNK6Marble9MarbleMap11viewContextEv@Base 4:4.13.90
 _ZNK6Marble9MarbleMap11whichItemAtERK6QPoint@Base 4:4.13.90
 _ZNK6Marble9MarbleMap12renderStatusEv@Base 4:4.13.90
 _ZNK6Marble9MarbleMap12showIceLayerEv@Base 4:4.13.90
 _ZNK6Marble9MarbleMap12showScaleBarEv@Base 4:4.13.90
 _ZNK6Marble9MarbleMap12textureLayerEv@Base 4:4.13.90
 _ZNK6Marble9MarbleMap13propertyValueERK7QString@Base 4:4.13.90
 _ZNK6Marble9MarbleMap13renderPluginsEv@Base 4:4.13.90
 _ZNK6Marble9MarbleMap13showFrameRateEv@Base 4:4.13.90
 _ZNK6Marble9MarbleMap13tileZoomLevelEv@Base 4:4.13.90
 _ZNK6Marble9MarbleMap14centerLatitudeEv@Base 4:4.13.90
 (subst)_ZNK6Marble9MarbleMap14geoCoordinatesEiiR{qreal}S1_NS_18GeoDataCoordinates4UnitE@Base 4:4.13.90
 _ZNK6Marble9MarbleMap14showAtmosphereEv@Base 4:4.13.90
 _ZNK6Marble9MarbleMap14showBackgroundEv@Base 4:4.13.90
 _ZNK6Marble9MarbleMap14showCityLightsEv@Base 4:4.13.90
 _ZNK6Marble9MarbleMap14showCrosshairsEv@Base 4:4.13.90
 _ZNK6Marble9MarbleMap14showSunShadingEv@Base 4:4.13.90
 _ZNK6Marble9MarbleMap14whichFeatureAtERK6QPoint@Base 4:4.13.90
 _ZNK6Marble9MarbleMap15centerLongitudeEv@Base 4:4.13.90
 _ZNK6Marble9MarbleMap15showOtherPlacesEv@Base 4:4.13.90
 _ZNK6Marble9MarbleMap15showOverviewMapEv@Base 4:4.13.90
 _ZNK6Marble9MarbleMap16defaultAngleUnitEv@Base 4:4.13.90
 (subst)_ZNK6Marble9MarbleMap17screenCoordinatesE{qreal}{qreal}R{qreal}S1_@Base 4:4.13.90
 _ZNK6Marble9MarbleMap22volatileTileCacheLimitEv@Base 4:4.13.90
 _ZNK6Marble9MarbleMap23isLockedToSubSolarPointEv@Base 4:4.13.90
 _ZNK6Marble9MarbleMap26isSubSolarPointIconVisibleEv@Base 4:4.13.90
 _ZNK6Marble9MarbleMap4sizeEv@Base 4:4.13.90
 _ZNK6Marble9MarbleMap5modelEv@Base 4:4.13.90
 _ZNK6Marble9MarbleMap5widthEv@Base 4:4.13.90
 _ZNK6Marble9MarbleMap6heightEv@Base 4:4.13.90
 _ZNK6Marble9MarbleMap6radiusEv@Base 4:4.13.90
 _ZNK6Marble9MarbleMap8showGridEv@Base 4:4.13.90
 _ZNK6Marble9MarbleMap8viewportEv@Base 4:4.13.90
 _ZNK6Marble9MarbleMap9floatItemERK7QString@Base 4:4.13.90
 _ZNK6Marble9MarbleMap9showLakesEv@Base 4:4.13.90
 _ZNK6Marble9MergeItem10metaObjectEv@Base 4:4.13.90
 _ZNK6Marble9MergeItem10placemarkAEv@Base 4:4.13.90
 _ZNK6Marble9MergeItem10placemarkBEv@Base 4:4.13.90
 _ZNK6Marble9MergeItem10resolutionEv@Base 4:4.13.90
 _ZNK6Marble9MergeItem12descriptionAEv@Base 4:4.13.90
 _ZNK6Marble9MergeItem12descriptionBEv@Base 4:4.13.90
 _ZNK6Marble9MergeItem5nameAEv@Base 4:4.13.90
 _ZNK6Marble9MergeItem5nameBEv@Base 4:4.13.90
 _ZNK6Marble9MergeItem5pathAEv@Base 4:4.13.90
 _ZNK6Marble9MergeItem5pathBEv@Base 4:4.13.90
 _ZNK6Marble9MergeItem7actionBEv@Base 4:4.13.90
 _ZTI13MarbleWebView@Base 4:4.13.90
 _ZTI22KDescendantsProxyModel@Base 4:4.13.90
 _ZTIN6Marble10GeoDataLodE@Base 4:4.13.90
 _ZTIN6Marble10GoToDialogE@Base 4:4.13.90
 _ZTIN6Marble10LatLonEditE@Base 4:4.13.90
 _ZTIN6Marble10PopupLayerE@Base 4:4.13.90
 _ZTIN6Marble10SunLocatorE@Base 4:4.13.90
 _ZTIN6Marble10TourWidgetE@Base 4:4.13.90
 _ZTIN6Marble11GeoDataDataE@Base 4:4.13.90
 _ZTIN6Marble11GeoDataLinkE@Base 4:4.13.90
 _ZTIN6Marble11GeoDataTourE@Base 4:4.13.90
 _ZTIN6Marble11GeoDataWaitE@Base 4:4.13.90
 _ZTIN6Marble11GeoDocumentE@Base 4:4.13.90
 _ZTIN6Marble11GeoSceneMapE@Base 4:4.13.90
 _ZTIN6Marble11MarbleClockE@Base 4:4.13.90
 _ZTIN6Marble11MarbleModelE@Base 4:4.13.90
 _ZTIN6Marble11TileCreatorE@Base 4:4.13.90
 _ZTIN6Marble12GeoDataAliasE@Base 4:4.13.90
 _ZTIN6Marble12GeoDataFlyToE@Base 4:4.13.90
 _ZTIN6Marble12GeoDataModelE@Base 4:4.13.90
 _ZTIN6Marble12GeoDataPointE@Base 4:4.13.90
 _ZTIN6Marble12GeoDataScaleE@Base 4:4.13.90
 _ZTIN6Marble12GeoDataStyleE@Base 4:4.13.90
 _ZTIN6Marble12GeoDataTrackE@Base 4:4.13.90
 _ZTIN6Marble12GeoSceneHeadE@Base 4:4.13.90
 _ZTIN6Marble12GeoSceneIconE@Base 4:4.13.90
 _ZTIN6Marble12GeoSceneItemE@Base 4:4.13.90
 _ZTIN6Marble12GeoSceneZoomE@Base 4:4.13.90
 _ZTIN6Marble12LegendWidgetE@Base 4:4.13.90
 _ZTIN6Marble12MarbleWidget16CustomPaintLayerE@Base 4:4.13.90
 _ZTIN6Marble12MarbleWidgetE@Base 4:4.13.90
 _ZTIN6Marble12MovieCaptureE@Base 4:4.13.90
 _ZTIN6Marble12RenderPluginE@Base 4:4.13.90
 _ZTIN6Marble12RouteRequestE@Base 4:4.13.90
 _ZTIN6Marble12RoutingModelE@Base 4:4.13.90
 _ZTIN6Marble12SearchRunnerE@Base 4:4.13.90
 _ZTIN6Marble12SearchWidgetE@Base 4:4.13.90
 _ZTIN6Marble12TextureLayerE@Base 4:4.13.90
 _ZTIN6Marble12TourPlaybackE@Base 4:4.13.90
 _ZTIN6Marble13DataMigrationE@Base 4:4.14.2
 _ZTIN6Marble13GeoDataCameraE@Base 4:4.13.90
 _ZTIN6Marble13GeoDataChangeE@Base 4:4.13.90
 _ZTIN6Marble13GeoDataCreateE@Base 4:4.13.90
 _ZTIN6Marble13GeoDataDeleteE@Base 4:4.13.90
 _ZTIN6Marble13GeoDataFolderE@Base 4:4.13.90
 _ZTIN6Marble13GeoDataLookAtE@Base 4:4.13.90
 _ZTIN6Marble13GeoDataObjectE@Base 4:4.13.90
 _ZTIN6Marble13GeoDataParserE@Base 4:4.13.90
 _ZTIN6Marble13GeoDataRegionE@Base 4:4.13.90
 _ZTIN6Marble13GeoDataSchemaE@Base 4:4.13.90
 _ZTIN6Marble13GeoDataUpdateE@Base 4:4.13.90
 _ZTIN6Marble13GeoSceneLayerE@Base 4:4.13.90
 _ZTIN6Marble13GeoSceneTiledE@Base 4:4.13.90
 _ZTIN6Marble13GeoTagHandlerE@Base 4:4.13.90
 _ZTIN6Marble13MapViewWidgetE@Base 4:4.13.90
 _ZTIN6Marble13NewstuffModelE@Base 4:4.13.90
 _ZTIN6Marble13ParsingRunnerE@Base 4:4.13.90
 _ZTIN6Marble13PluginManagerE@Base 4:4.13.90
 _ZTIN6Marble13RoutingRunnerE@Base 4:4.13.90
 _ZTIN6Marble13RoutingWidgetE@Base 4:4.13.90
 _ZTIN6Marble13SpeakersModelE@Base 4:4.13.90
 _ZTIN6Marble14AutoNavigationE@Base 4:4.13.90
 _ZTIN6Marble14ConflictDialogE@Base 4:4.13.90
 _ZTIN6Marble14DownloadRegionE@Base 4:4.13.90
 _ZTIN6Marble14ElevationModelE@Base 4:4.13.90
 _ZTIN6Marble14FileViewWidgetE@Base 4:4.13.90
 _ZTIN6Marble14GeoDataFeatureE@Base 4:4.13.90
 _ZTIN6Marble14GeoDataHotSpotE@Base 4:4.13.90
 _ZTIN6Marble14GeoDataOverlayE@Base 4:4.13.90
 _ZTIN6Marble14GeoDataPolygonE@Base 4:4.13.90
 _ZTIN6Marble14GeoSceneLegendE@Base 4:4.13.90
 _ZTIN6Marble14GeoSceneParserE@Base 4:4.13.90
 _ZTIN6Marble14GeoSceneVectorE@Base 4:4.13.90
 _ZTIN6Marble14LayerInterfaceE@Base 4:4.13.90
 _ZTIN6Marble14MarbleLineEditE@Base 4:4.13.90
 _ZTIN6Marble14RoutingManagerE@Base 4:4.13.90
 _ZTIN6Marble14TinyWebBrowserE@Base 4:4.13.90
 _ZTIN6Marble15BookmarkManagerE@Base 4:4.13.90
 _ZTIN6Marble15CloudRouteModelE@Base 4:4.13.90
 _ZTIN6Marble15GeoDataDocumentE@Base 4:4.13.90
 _ZTIN6Marble15GeoDataGeometryE@Base 4:4.13.90
 _ZTIN6Marble15GeoDataItemIconE@Base 4:4.13.90
 _ZTIN6Marble15GeoDataLocationE@Base 4:4.13.90
 _ZTIN6Marble15GeoDataPlaylistE@Base 4:4.13.90
 _ZTIN6Marble15GeoDataSoundCueE@Base 4:4.13.90
 _ZTIN6Marble15GeoDataStyleMapE@Base 4:4.13.90
 _ZTIN6Marble15GeoDataTimeSpanE@Base 4:4.13.90
 _ZTIN6Marble15GeoGraphicsItemE@Base 4:4.13.90
 _ZTIN6Marble15GeoSceneGeodataE@Base 4:4.13.90
 _ZTIN6Marble15GeoSceneLicenseE@Base 4:4.13.90
 _ZTIN6Marble15GeoSceneSectionE@Base 4:4.13.90
 _ZTIN6Marble15LatLonBoxWidgetE@Base 4:4.13.90
 _ZTIN6Marble15MapThemeManagerE@Base 4:4.13.90
 _ZTIN6Marble15MarbleNavigatorE@Base 4:4.13.90
 _ZTIN6Marble15PluginInterfaceE@Base 4:4.13.90
 _ZTIN6Marble16CloudSyncManagerE@Base 4:4.13.90
 _ZTIN6Marble16GeoDataContainerE@Base 4:4.13.90
 _ZTIN6Marble16GeoDataIconStyleE@Base 4:4.13.90
 _ZTIN6Marble16GeoDataLatLonBoxE@Base 4:4.13.90
 _ZTIN6Marble16GeoDataLineStyleE@Base 4:4.13.90
 _ZTIN6Marble16GeoDataListStyleE@Base 4:4.13.90
 _ZTIN6Marble16GeoDataPlacemarkE@Base 4:4.13.90
 _ZTIN6Marble16GeoDataPolyStyleE@Base 4:4.13.90
 _ZTIN6Marble16GeoDataTimeStampE@Base 4:4.13.90
 _ZTIN6Marble16GeoDataTreeModelE@Base 4:4.13.90
 _ZTIN6Marble16GeoGraphicsSceneE@Base 4:4.13.90
 _ZTIN6Marble16GeoSceneDocumentE@Base 4:4.13.90
 _ZTIN6Marble16GeoScenePropertyE@Base 4:4.13.90
 _ZTIN6Marble16GeoSceneSettingsE@Base 4:4.13.90
 _ZTIN6Marble16MarbleControlBoxE@Base 4:4.13.90
 _ZTIN6Marble16NavigationWidgetE@Base 4:4.13.90
 _ZTIN6Marble16PositionTrackingE@Base 4:4.13.90
 _ZTIN6Marble16RouteSyncManagerE@Base 4:4.13.90
 _ZTIN6Marble16SunControlWidgetE@Base 4:4.13.90
 _ZTIN6Marble17AbstractFloatItemE@Base 4:4.13.90
 _ZTIN6Marble17FrameGraphicsItemE@Base 4:4.13.90
 _ZTIN6Marble17GeoDataColorStyleE@Base 4:4.13.90
 _ZTIN6Marble17GeoDataLabelStyleE@Base 4:4.13.90
 _ZTIN6Marble17GeoDataLatLonQuadE@Base 4:4.13.90
 _ZTIN6Marble17GeoDataLineStringE@Base 4:4.13.90
 _ZTIN6Marble17GeoDataLinearRingE@Base 4:4.13.90
 _ZTIN6Marble17GeoDataMultiTrackE@Base 4:4.13.90
 _ZTIN6Marble17GeoDataViewVolumeE@Base 4:4.13.90
 _ZTIN6Marble17LabelGraphicsItemE@Base 4:4.13.90
 _ZTIN6Marble17MarbleAboutDialogE@Base 4:4.13.90
 _ZTIN6Marble17ParseRunnerPluginE@Base 4:4.13.90
 _ZTIN6Marble17PluginAboutDialogE@Base 4:4.13.90
 _ZTIN6Marble17RenderPluginModelE@Base 4:4.13.90
 _ZTIN6Marble17SearchInputWidgetE@Base 4:4.13.90
 _ZTIN6Marble17TileCreatorDialogE@Base 4:4.13.90
 _ZTIN6Marble17TileCreatorSourceE@Base 4:4.13.90
 _ZTIN6Marble17TimeControlWidgetE@Base 4:4.13.90
 _ZTIN6Marble18AbstractDataPluginE@Base 4:4.13.90
 _ZTIN6Marble18AbstractProjectionE@Base 4:4.13.90
 _ZTIN6Marble18CacheStoragePolicyE@Base 4:4.13.90
 _ZTIN6Marble18EditBookmarkDialogE@Base 4:4.13.90
 _ZTIN6Marble18GeoDataCoordinatesE@Base 4:4.13.90
 _ZTIN6Marble18GeoDataNetworkLinkE@Base 4:4.13.90
 _ZTIN6Marble18GeoDataOrientationE@Base 4:4.13.90
 _ZTIN6Marble18GeoDataResourceMapE@Base 4:4.13.90
 _ZTIN6Marble18GeoDataSimpleFieldE@Base 4:4.13.90
 _ZTIN6Marble18GeoDataTourControlE@Base 4:4.13.90
 _ZTIN6Marble18MarbleGraphicsItemE@Base 4:4.13.90
 _ZTIN6Marble18MarbleInputHandlerE@Base 4:4.13.90
 _ZTIN6Marble18MovieCaptureDialogE@Base 4:4.13.90
 _ZTIN6Marble18PrintOptionsWidgetE@Base 4:4.13.90
 _ZTIN6Marble18ScreenGraphicsItemE@Base 4:4.13.90
 _ZTIN6Marble18SearchRunnerPluginE@Base 4:4.13.90
 _ZTIN6Marble18WidgetGraphicsItemE@Base 4:4.13.90
 _ZTIN6Marble19BookmarkSyncManagerE@Base 4:4.13.90
 _ZTIN6Marble19GeoDataAbstractViewE@Base 4:4.13.90
 _ZTIN6Marble19GeoDataBalloonStyleE@Base 4:4.13.90
 _ZTIN6Marble19GeoDataExtendedDataE@Base 4:4.13.90
 _ZTIN6Marble19GeoDataImagePyramidE@Base 4:4.13.90
 _ZTIN6Marble19GeoDataLatLonAltBoxE@Base 4:4.13.90
 _ZTIN6Marble19GeoDataPhotoOverlayE@Base 4:4.13.90
 _ZTIN6Marble19HttpDownloadManagerE@Base 4:4.13.90
 _ZTIN6Marble19MarbleLegendBrowserE@Base 4:4.13.90
 _ZTIN6Marble19RoutingRunnerPluginE@Base 4:4.13.90
 _ZTIN6Marble19SearchRunnerManagerE@Base 4:4.13.90
 _ZTIN6Marble20AbstractWorkerThreadE@Base 4:4.13.90
 _ZTIN6Marble20DownloadRegionDialogE@Base 4:4.13.90
 _ZTIN6Marble20ExternalEditorDialogE@Base 4:4.13.90
 _ZTIN6Marble20GeoDataGroundOverlayE@Base 4:4.13.90
 _ZTIN6Marble20GeoDataMultiGeometryE@Base 4:4.13.90
 _ZTIN6Marble20GeoDataScreenOverlayE@Base 4:4.13.90
 _ZTIN6Marble20GeoDataStyleSelectorE@Base 4:4.13.90
 _ZTIN6Marble20GeoDataTimePrimitiveE@Base 4:4.13.90
 _ZTIN6Marble20GeoDataTourPrimitiveE@Base 4:4.13.90
 _ZTIN6Marble20GeoPhotoGraphicsItemE@Base 4:4.13.90
 _ZTIN6Marble20GeoPointGraphicsItemE@Base 4:4.13.90
 _ZTIN6Marble20GeoTrackGraphicsItemE@Base 4:4.13.90
 _ZTIN6Marble20MarblePlacemarkModelE@Base 4:4.13.90
 _ZTIN6Marble20ParsingRunnerManagerE@Base 4:4.13.90
 _ZTIN6Marble20QtMarbleConfigDialogE@Base 4:4.13.90
 _ZTIN6Marble20RoutingProfilesModelE@Base 4:4.13.90
 _ZTIN6Marble20RoutingRunnerManagerE@Base 4:4.13.90
 _ZTIN6Marble20TileLevelRangeWidgetE@Base 4:4.13.90
 _ZTIN6Marble20VoiceNavigationModelE@Base 4:4.13.90
 _ZTIN6Marble21BillboardGraphicsItem7PrivateE@Base 4:4.13.90
 _ZTIN6Marble21BillboardGraphicsItemE@Base 4:4.13.90
 _ZTIN6Marble21BookmarkManagerDialogE@Base 4:4.13.90
 _ZTIN6Marble21CurrentLocationWidgetE@Base 4:4.13.90
 _ZTIN6Marble21GeoDataAnimatedUpdateE@Base 4:4.13.90
 _ZTIN6Marble21MarbleWidgetPopupMenuE@Base 4:4.13.90
 _ZTIN6Marble21RoutingProfilesWidgetE@Base 4:4.13.90
 _ZTIN6Marble22AbstractDataPluginItemE@Base 4:4.13.90
 _ZTIN6Marble22AlternativeRoutesModelE@Base 4:4.13.90
 _ZTIN6Marble22GeoDataSimpleArrayDataE@Base 4:4.13.90
 _ZTIN6Marble22GeoPolygonGraphicsItemE@Base 4:4.13.90
 _ZTIN6Marble22MapThemeDownloadDialogE@Base 4:4.13.90
 _ZTIN6Marble22PositionProviderPluginE@Base 4:4.13.90
 _ZTIN6Marble22ReverseGeocodingRunnerE@Base 4:4.13.90
 _ZTIN6Marble23AbstractDataPluginModelE@Base 4:4.13.90
 _ZTIN6Marble23GeoSceneAbstractDatasetE@Base 4:4.13.90
 _ZTIN6Marble23NewBookmarkFolderDialogE@Base 4:4.13.90
 _ZTIN6Marble24MarbleGraphicsGridLayoutE@Base 4:4.13.90
 _ZTIN6Marble25GeoDataNetworkLinkControlE@Base 4:4.13.90
 _ZTIN6Marble25GeoLineStringGraphicsItemE@Base 4:4.13.90
 _ZTIN6Marble25MarbleDefaultInputHandlerE@Base 4:4.13.90
 _ZTIN6Marble25ScreenOverlayGraphicsItemE@Base 4:4.13.90
 _ZTIN6Marble26MarblePluginSettingsWidgetE@Base 4:4.13.90
 _ZTIN6Marble28AbstractMarbleGraphicsLayoutE@Base 4:4.13.90
 _ZTIN6Marble28DialogConfigurationInterfaceE@Base 4:4.13.90
 _ZTIN6Marble28ReverseGeocodingRunnerPluginE@Base 4:4.13.90
 _ZTIN6Marble29ReverseGeocodingRunnerManagerE@Base 4:4.13.90
 _ZTIN6Marble31PositionProviderPluginInterfaceE@Base 4:4.13.90
 _ZTIN6Marble7GeoNodeE@Base 4:4.13.90
 _ZTIN6Marble7HttpJobE@Base 4:4.13.90
 _ZTIN6Marble9GeoParserE@Base 4:4.13.90
 _ZTIN6Marble9MapWizardE@Base 4:4.13.90
 _ZTIN6Marble9MarbleMap16CustomPaintLayerE@Base 4:4.13.90
 _ZTIN6Marble9MarbleMapE@Base 4:4.13.90
 _ZTIN6Marble9MergeItemE@Base 4:4.13.90
 _ZTS13MarbleWebView@Base 4:4.13.90
 _ZTS22KDescendantsProxyModel@Base 4:4.13.90
 _ZTSN6Marble10GeoDataLodE@Base 4:4.13.90
 _ZTSN6Marble10GoToDialogE@Base 4:4.13.90
 _ZTSN6Marble10LatLonEditE@Base 4:4.13.90
 _ZTSN6Marble10PopupLayerE@Base 4:4.13.90
 _ZTSN6Marble10SunLocatorE@Base 4:4.13.90
 _ZTSN6Marble10TourWidgetE@Base 4:4.13.90
 _ZTSN6Marble11GeoDataDataE@Base 4:4.13.90
 _ZTSN6Marble11GeoDataLinkE@Base 4:4.13.90
 _ZTSN6Marble11GeoDataTourE@Base 4:4.13.90
 _ZTSN6Marble11GeoDataWaitE@Base 4:4.13.90
 _ZTSN6Marble11GeoDocumentE@Base 4:4.13.90
 _ZTSN6Marble11GeoSceneMapE@Base 4:4.13.90
 _ZTSN6Marble11MarbleClockE@Base 4:4.13.90
 _ZTSN6Marble11MarbleModelE@Base 4:4.13.90
 _ZTSN6Marble11TileCreatorE@Base 4:4.13.90
 _ZTSN6Marble12GeoDataAliasE@Base 4:4.13.90
 _ZTSN6Marble12GeoDataFlyToE@Base 4:4.13.90
 _ZTSN6Marble12GeoDataModelE@Base 4:4.13.90
 _ZTSN6Marble12GeoDataPointE@Base 4:4.13.90
 _ZTSN6Marble12GeoDataScaleE@Base 4:4.13.90
 _ZTSN6Marble12GeoDataStyleE@Base 4:4.13.90
 _ZTSN6Marble12GeoDataTrackE@Base 4:4.13.90
 _ZTSN6Marble12GeoSceneHeadE@Base 4:4.13.90
 _ZTSN6Marble12GeoSceneIconE@Base 4:4.13.90
 _ZTSN6Marble12GeoSceneItemE@Base 4:4.13.90
 _ZTSN6Marble12GeoSceneZoomE@Base 4:4.13.90
 _ZTSN6Marble12LegendWidgetE@Base 4:4.13.90
 _ZTSN6Marble12MarbleWidget16CustomPaintLayerE@Base 4:4.13.90
 _ZTSN6Marble12MarbleWidgetE@Base 4:4.13.90
 _ZTSN6Marble12MovieCaptureE@Base 4:4.13.90
 _ZTSN6Marble12RenderPluginE@Base 4:4.13.90
 _ZTSN6Marble12RouteRequestE@Base 4:4.13.90
 _ZTSN6Marble12RoutingModelE@Base 4:4.13.90
 _ZTSN6Marble12SearchRunnerE@Base 4:4.13.90
 _ZTSN6Marble12SearchWidgetE@Base 4:4.13.90
 _ZTSN6Marble12TextureLayerE@Base 4:4.13.90
 _ZTSN6Marble12TourPlaybackE@Base 4:4.13.90
 _ZTSN6Marble13DataMigrationE@Base 4:4.14.2
 _ZTSN6Marble13GeoDataCameraE@Base 4:4.13.90
 _ZTSN6Marble13GeoDataChangeE@Base 4:4.13.90
 _ZTSN6Marble13GeoDataCreateE@Base 4:4.13.90
 _ZTSN6Marble13GeoDataDeleteE@Base 4:4.13.90
 _ZTSN6Marble13GeoDataFolderE@Base 4:4.13.90
 _ZTSN6Marble13GeoDataLookAtE@Base 4:4.13.90
 _ZTSN6Marble13GeoDataObjectE@Base 4:4.13.90
 _ZTSN6Marble13GeoDataParserE@Base 4:4.13.90
 _ZTSN6Marble13GeoDataRegionE@Base 4:4.13.90
 _ZTSN6Marble13GeoDataSchemaE@Base 4:4.13.90
 _ZTSN6Marble13GeoDataUpdateE@Base 4:4.13.90
 _ZTSN6Marble13GeoSceneLayerE@Base 4:4.13.90
 _ZTSN6Marble13GeoSceneTiledE@Base 4:4.13.90
 _ZTSN6Marble13GeoTagHandlerE@Base 4:4.13.90
 _ZTSN6Marble13MapViewWidgetE@Base 4:4.13.90
 _ZTSN6Marble13NewstuffModelE@Base 4:4.13.90
 _ZTSN6Marble13ParsingRunnerE@Base 4:4.13.90
 _ZTSN6Marble13PluginManagerE@Base 4:4.13.90
 _ZTSN6Marble13RoutingRunnerE@Base 4:4.13.90
 _ZTSN6Marble13RoutingWidgetE@Base 4:4.13.90
 _ZTSN6Marble13SpeakersModelE@Base 4:4.13.90
 _ZTSN6Marble14AutoNavigationE@Base 4:4.13.90
 _ZTSN6Marble14ConflictDialogE@Base 4:4.13.90
 _ZTSN6Marble14DownloadRegionE@Base 4:4.13.90
 _ZTSN6Marble14ElevationModelE@Base 4:4.13.90
 _ZTSN6Marble14FileViewWidgetE@Base 4:4.13.90
 _ZTSN6Marble14GeoDataFeatureE@Base 4:4.13.90
 _ZTSN6Marble14GeoDataHotSpotE@Base 4:4.13.90
 _ZTSN6Marble14GeoDataOverlayE@Base 4:4.13.90
 _ZTSN6Marble14GeoDataPolygonE@Base 4:4.13.90
 _ZTSN6Marble14GeoSceneLegendE@Base 4:4.13.90
 _ZTSN6Marble14GeoSceneParserE@Base 4:4.13.90
 _ZTSN6Marble14GeoSceneVectorE@Base 4:4.13.90
 _ZTSN6Marble14LayerInterfaceE@Base 4:4.13.90
 _ZTSN6Marble14MarbleLineEditE@Base 4:4.13.90
 _ZTSN6Marble14RoutingManagerE@Base 4:4.13.90
 _ZTSN6Marble14TinyWebBrowserE@Base 4:4.13.90
 _ZTSN6Marble15BookmarkManagerE@Base 4:4.13.90
 _ZTSN6Marble15CloudRouteModelE@Base 4:4.13.90
 _ZTSN6Marble15GeoDataDocumentE@Base 4:4.13.90
 _ZTSN6Marble15GeoDataGeometryE@Base 4:4.13.90
 _ZTSN6Marble15GeoDataItemIconE@Base 4:4.13.90
 _ZTSN6Marble15GeoDataLocationE@Base 4:4.13.90
 _ZTSN6Marble15GeoDataPlaylistE@Base 4:4.13.90
 _ZTSN6Marble15GeoDataSoundCueE@Base 4:4.13.90
 _ZTSN6Marble15GeoDataStyleMapE@Base 4:4.13.90
 _ZTSN6Marble15GeoDataTimeSpanE@Base 4:4.13.90
 _ZTSN6Marble15GeoGraphicsItemE@Base 4:4.13.90
 _ZTSN6Marble15GeoSceneGeodataE@Base 4:4.13.90
 _ZTSN6Marble15GeoSceneLicenseE@Base 4:4.13.90
 _ZTSN6Marble15GeoSceneSectionE@Base 4:4.13.90
 _ZTSN6Marble15LatLonBoxWidgetE@Base 4:4.13.90
 _ZTSN6Marble15MapThemeManagerE@Base 4:4.13.90
 _ZTSN6Marble15MarbleNavigatorE@Base 4:4.13.90
 _ZTSN6Marble15PluginInterfaceE@Base 4:4.13.90
 _ZTSN6Marble16CloudSyncManagerE@Base 4:4.13.90
 _ZTSN6Marble16GeoDataContainerE@Base 4:4.13.90
 _ZTSN6Marble16GeoDataIconStyleE@Base 4:4.13.90
 _ZTSN6Marble16GeoDataLatLonBoxE@Base 4:4.13.90
 _ZTSN6Marble16GeoDataLineStyleE@Base 4:4.13.90
 _ZTSN6Marble16GeoDataListStyleE@Base 4:4.13.90
 _ZTSN6Marble16GeoDataPlacemarkE@Base 4:4.13.90
 _ZTSN6Marble16GeoDataPolyStyleE@Base 4:4.13.90
 _ZTSN6Marble16GeoDataTimeStampE@Base 4:4.13.90
 _ZTSN6Marble16GeoDataTreeModelE@Base 4:4.13.90
 _ZTSN6Marble16GeoGraphicsSceneE@Base 4:4.13.90
 _ZTSN6Marble16GeoSceneDocumentE@Base 4:4.13.90
 _ZTSN6Marble16GeoScenePropertyE@Base 4:4.13.90
 _ZTSN6Marble16GeoSceneSettingsE@Base 4:4.13.90
 _ZTSN6Marble16MarbleControlBoxE@Base 4:4.13.90
 _ZTSN6Marble16NavigationWidgetE@Base 4:4.13.90
 _ZTSN6Marble16PositionTrackingE@Base 4:4.13.90
 _ZTSN6Marble16RouteSyncManagerE@Base 4:4.13.90
 _ZTSN6Marble16SunControlWidgetE@Base 4:4.13.90
 _ZTSN6Marble17AbstractFloatItemE@Base 4:4.13.90
 _ZTSN6Marble17FrameGraphicsItemE@Base 4:4.13.90
 _ZTSN6Marble17GeoDataColorStyleE@Base 4:4.13.90
 _ZTSN6Marble17GeoDataLabelStyleE@Base 4:4.13.90
 _ZTSN6Marble17GeoDataLatLonQuadE@Base 4:4.13.90
 _ZTSN6Marble17GeoDataLineStringE@Base 4:4.13.90
 _ZTSN6Marble17GeoDataLinearRingE@Base 4:4.13.90
 _ZTSN6Marble17GeoDataMultiTrackE@Base 4:4.13.90
 _ZTSN6Marble17GeoDataViewVolumeE@Base 4:4.13.90
 _ZTSN6Marble17LabelGraphicsItemE@Base 4:4.13.90
 _ZTSN6Marble17MarbleAboutDialogE@Base 4:4.13.90
 _ZTSN6Marble17ParseRunnerPluginE@Base 4:4.13.90
 _ZTSN6Marble17PluginAboutDialogE@Base 4:4.13.90
 _ZTSN6Marble17RenderPluginModelE@Base 4:4.13.90
 _ZTSN6Marble17SearchInputWidgetE@Base 4:4.13.90
 _ZTSN6Marble17TileCreatorDialogE@Base 4:4.13.90
 _ZTSN6Marble17TileCreatorSourceE@Base 4:4.13.90
 _ZTSN6Marble17TimeControlWidgetE@Base 4:4.13.90
 _ZTSN6Marble18AbstractDataPluginE@Base 4:4.13.90
 _ZTSN6Marble18AbstractProjectionE@Base 4:4.13.90
 _ZTSN6Marble18CacheStoragePolicyE@Base 4:4.13.90
 _ZTSN6Marble18EditBookmarkDialogE@Base 4:4.13.90
 _ZTSN6Marble18GeoDataCoordinatesE@Base 4:4.13.90
 _ZTSN6Marble18GeoDataNetworkLinkE@Base 4:4.13.90
 _ZTSN6Marble18GeoDataOrientationE@Base 4:4.13.90
 _ZTSN6Marble18GeoDataResourceMapE@Base 4:4.13.90
 _ZTSN6Marble18GeoDataSimpleFieldE@Base 4:4.13.90
 _ZTSN6Marble18GeoDataTourControlE@Base 4:4.13.90
 _ZTSN6Marble18MarbleGraphicsItemE@Base 4:4.13.90
 _ZTSN6Marble18MarbleInputHandlerE@Base 4:4.13.90
 _ZTSN6Marble18MovieCaptureDialogE@Base 4:4.13.90
 _ZTSN6Marble18PrintOptionsWidgetE@Base 4:4.13.90
 _ZTSN6Marble18ScreenGraphicsItemE@Base 4:4.13.90
 _ZTSN6Marble18SearchRunnerPluginE@Base 4:4.13.90
 _ZTSN6Marble18WidgetGraphicsItemE@Base 4:4.13.90
 _ZTSN6Marble19BookmarkSyncManagerE@Base 4:4.13.90
 _ZTSN6Marble19GeoDataAbstractViewE@Base 4:4.13.90
 _ZTSN6Marble19GeoDataBalloonStyleE@Base 4:4.13.90
 _ZTSN6Marble19GeoDataExtendedDataE@Base 4:4.13.90
 _ZTSN6Marble19GeoDataImagePyramidE@Base 4:4.13.90
 _ZTSN6Marble19GeoDataLatLonAltBoxE@Base 4:4.13.90
 _ZTSN6Marble19GeoDataPhotoOverlayE@Base 4:4.13.90
 _ZTSN6Marble19HttpDownloadManagerE@Base 4:4.13.90
 _ZTSN6Marble19MarbleLegendBrowserE@Base 4:4.13.90
 _ZTSN6Marble19RoutingRunnerPluginE@Base 4:4.13.90
 _ZTSN6Marble19SearchRunnerManagerE@Base 4:4.13.90
 _ZTSN6Marble20AbstractWorkerThreadE@Base 4:4.13.90
 _ZTSN6Marble20DownloadRegionDialogE@Base 4:4.13.90
 _ZTSN6Marble20ExternalEditorDialogE@Base 4:4.13.90
 _ZTSN6Marble20GeoDataGroundOverlayE@Base 4:4.13.90
 _ZTSN6Marble20GeoDataMultiGeometryE@Base 4:4.13.90
 _ZTSN6Marble20GeoDataScreenOverlayE@Base 4:4.13.90
 _ZTSN6Marble20GeoDataStyleSelectorE@Base 4:4.13.90
 _ZTSN6Marble20GeoDataTimePrimitiveE@Base 4:4.13.90
 _ZTSN6Marble20GeoDataTourPrimitiveE@Base 4:4.13.90
 _ZTSN6Marble20GeoPhotoGraphicsItemE@Base 4:4.13.90
 _ZTSN6Marble20GeoPointGraphicsItemE@Base 4:4.13.90
 _ZTSN6Marble20GeoTrackGraphicsItemE@Base 4:4.13.90
 _ZTSN6Marble20MarblePlacemarkModelE@Base 4:4.13.90
 _ZTSN6Marble20ParsingRunnerManagerE@Base 4:4.13.90
 _ZTSN6Marble20QtMarbleConfigDialogE@Base 4:4.13.90
 _ZTSN6Marble20RoutingProfilesModelE@Base 4:4.13.90
 _ZTSN6Marble20RoutingRunnerManagerE@Base 4:4.13.90
 _ZTSN6Marble20TileLevelRangeWidgetE@Base 4:4.13.90
 _ZTSN6Marble20VoiceNavigationModelE@Base 4:4.13.90
 _ZTSN6Marble21BillboardGraphicsItem7PrivateE@Base 4:4.13.90
 _ZTSN6Marble21BillboardGraphicsItemE@Base 4:4.13.90
 _ZTSN6Marble21BookmarkManagerDialogE@Base 4:4.13.90
 _ZTSN6Marble21CurrentLocationWidgetE@Base 4:4.13.90
 _ZTSN6Marble21GeoDataAnimatedUpdateE@Base 4:4.13.90
 _ZTSN6Marble21MarbleWidgetPopupMenuE@Base 4:4.13.90
 _ZTSN6Marble21RoutingProfilesWidgetE@Base 4:4.13.90
 _ZTSN6Marble22AbstractDataPluginItemE@Base 4:4.13.90
 _ZTSN6Marble22AlternativeRoutesModelE@Base 4:4.13.90
 _ZTSN6Marble22GeoDataSimpleArrayDataE@Base 4:4.13.90
 _ZTSN6Marble22GeoPolygonGraphicsItemE@Base 4:4.13.90
 _ZTSN6Marble22MapThemeDownloadDialogE@Base 4:4.13.90
 _ZTSN6Marble22PositionProviderPluginE@Base 4:4.13.90
 _ZTSN6Marble22ReverseGeocodingRunnerE@Base 4:4.13.90
 _ZTSN6Marble23AbstractDataPluginModelE@Base 4:4.13.90
 _ZTSN6Marble23GeoSceneAbstractDatasetE@Base 4:4.13.90
 _ZTSN6Marble23NewBookmarkFolderDialogE@Base 4:4.13.90
 _ZTSN6Marble24MarbleGraphicsGridLayoutE@Base 4:4.13.90
 _ZTSN6Marble25GeoDataNetworkLinkControlE@Base 4:4.13.90
 _ZTSN6Marble25GeoLineStringGraphicsItemE@Base 4:4.13.90
 _ZTSN6Marble25MarbleDefaultInputHandlerE@Base 4:4.13.90
 _ZTSN6Marble25ScreenOverlayGraphicsItemE@Base 4:4.13.90
 _ZTSN6Marble26MarblePluginSettingsWidgetE@Base 4:4.13.90
 _ZTSN6Marble28AbstractMarbleGraphicsLayoutE@Base 4:4.13.90
 _ZTSN6Marble28DialogConfigurationInterfaceE@Base 4:4.13.90
 _ZTSN6Marble28ReverseGeocodingRunnerPluginE@Base 4:4.13.90
 _ZTSN6Marble29ReverseGeocodingRunnerManagerE@Base 4:4.13.90
 _ZTSN6Marble31PositionProviderPluginInterfaceE@Base 4:4.13.90
 _ZTSN6Marble7GeoNodeE@Base 4:4.13.90
 _ZTSN6Marble7HttpJobE@Base 4:4.13.90
 _ZTSN6Marble9GeoParserE@Base 4:4.13.90
 _ZTSN6Marble9MapWizardE@Base 4:4.13.90
 _ZTSN6Marble9MarbleMap16CustomPaintLayerE@Base 4:4.13.90
 _ZTSN6Marble9MarbleMapE@Base 4:4.13.90
 _ZTSN6Marble9MergeItemE@Base 4:4.13.90
 _ZTV13MarbleWebView@Base 4:4.13.90
 _ZTV22KDescendantsProxyModel@Base 4:4.13.90
 _ZTVN6Marble10GeoDataLodE@Base 4:4.13.90
 _ZTVN6Marble10GoToDialogE@Base 4:4.13.90
 _ZTVN6Marble10LatLonEditE@Base 4:4.13.90
 _ZTVN6Marble10PopupLayerE@Base 4:4.13.90
 _ZTVN6Marble10SunLocatorE@Base 4:4.13.90
 _ZTVN6Marble10TourWidgetE@Base 4:4.13.90
 _ZTVN6Marble11GeoDataDataE@Base 4:4.13.90
 _ZTVN6Marble11GeoDataLinkE@Base 4:4.13.90
 _ZTVN6Marble11GeoDataTourE@Base 4:4.13.90
 _ZTVN6Marble11GeoDataWaitE@Base 4:4.13.90
 _ZTVN6Marble11GeoDocumentE@Base 4:4.13.90
 _ZTVN6Marble11GeoSceneMapE@Base 4:4.13.90
 _ZTVN6Marble11MarbleClockE@Base 4:4.13.90
 _ZTVN6Marble11MarbleModelE@Base 4:4.13.90
 _ZTVN6Marble11TileCreatorE@Base 4:4.13.90
 _ZTVN6Marble12GeoDataAliasE@Base 4:4.13.90
 _ZTVN6Marble12GeoDataFlyToE@Base 4:4.13.90
 _ZTVN6Marble12GeoDataModelE@Base 4:4.13.90
 _ZTVN6Marble12GeoDataPointE@Base 4:4.13.90
 _ZTVN6Marble12GeoDataScaleE@Base 4:4.13.90
 _ZTVN6Marble12GeoDataStyleE@Base 4:4.13.90
 _ZTVN6Marble12GeoDataTrackE@Base 4:4.13.90
 _ZTVN6Marble12GeoSceneHeadE@Base 4:4.13.90
 _ZTVN6Marble12GeoSceneIconE@Base 4:4.13.90
 _ZTVN6Marble12GeoSceneItemE@Base 4:4.13.90
 _ZTVN6Marble12GeoSceneZoomE@Base 4:4.13.90
 _ZTVN6Marble12LegendWidgetE@Base 4:4.13.90
 _ZTVN6Marble12MarbleWidget16CustomPaintLayerE@Base 4:4.13.90
 _ZTVN6Marble12MarbleWidgetE@Base 4:4.13.90
 _ZTVN6Marble12MovieCaptureE@Base 4:4.13.90
 _ZTVN6Marble12RenderPluginE@Base 4:4.13.90
 _ZTVN6Marble12RouteRequestE@Base 4:4.13.90
 _ZTVN6Marble12RoutingModelE@Base 4:4.13.90
 _ZTVN6Marble12SearchRunnerE@Base 4:4.13.90
 _ZTVN6Marble12SearchWidgetE@Base 4:4.13.90
 _ZTVN6Marble12TextureLayerE@Base 4:4.13.90
 _ZTVN6Marble12TourPlaybackE@Base 4:4.13.90
 _ZTVN6Marble13DataMigrationE@Base 4:4.14.2
 _ZTVN6Marble13GeoDataCameraE@Base 4:4.13.90
 _ZTVN6Marble13GeoDataChangeE@Base 4:4.13.90
 _ZTVN6Marble13GeoDataCreateE@Base 4:4.13.90
 _ZTVN6Marble13GeoDataDeleteE@Base 4:4.13.90
 _ZTVN6Marble13GeoDataFolderE@Base 4:4.13.90
 _ZTVN6Marble13GeoDataLookAtE@Base 4:4.13.90
 _ZTVN6Marble13GeoDataObjectE@Base 4:4.13.90
 _ZTVN6Marble13GeoDataParserE@Base 4:4.13.90
 _ZTVN6Marble13GeoDataRegionE@Base 4:4.13.90
 _ZTVN6Marble13GeoDataSchemaE@Base 4:4.13.90
 _ZTVN6Marble13GeoDataUpdateE@Base 4:4.13.90
 _ZTVN6Marble13GeoSceneLayerE@Base 4:4.13.90
 _ZTVN6Marble13GeoSceneTiledE@Base 4:4.13.90
 _ZTVN6Marble13GeoTagHandlerE@Base 4:4.13.90
 _ZTVN6Marble13MapViewWidgetE@Base 4:4.13.90
 _ZTVN6Marble13NewstuffModelE@Base 4:4.13.90
 _ZTVN6Marble13ParsingRunnerE@Base 4:4.13.90
 _ZTVN6Marble13PluginManagerE@Base 4:4.13.90
 _ZTVN6Marble13RoutingRunnerE@Base 4:4.13.90
 _ZTVN6Marble13RoutingWidgetE@Base 4:4.13.90
 _ZTVN6Marble13SpeakersModelE@Base 4:4.13.90
 _ZTVN6Marble14AutoNavigationE@Base 4:4.13.90
 _ZTVN6Marble14ConflictDialogE@Base 4:4.13.90
 _ZTVN6Marble14DownloadRegionE@Base 4:4.13.90
 _ZTVN6Marble14ElevationModelE@Base 4:4.13.90
 _ZTVN6Marble14FileViewWidgetE@Base 4:4.13.90
 _ZTVN6Marble14GeoDataFeatureE@Base 4:4.13.90
 _ZTVN6Marble14GeoDataHotSpotE@Base 4:4.13.90
 _ZTVN6Marble14GeoDataOverlayE@Base 4:4.13.90
 _ZTVN6Marble14GeoDataPolygonE@Base 4:4.13.90
 _ZTVN6Marble14GeoSceneLegendE@Base 4:4.13.90
 _ZTVN6Marble14GeoSceneParserE@Base 4:4.13.90
 _ZTVN6Marble14GeoSceneVectorE@Base 4:4.13.90
 _ZTVN6Marble14LayerInterfaceE@Base 4:4.13.90
 _ZTVN6Marble14MarbleLineEditE@Base 4:4.13.90
 _ZTVN6Marble14RoutingManagerE@Base 4:4.13.90
 _ZTVN6Marble14TinyWebBrowserE@Base 4:4.13.90
 _ZTVN6Marble15BookmarkManagerE@Base 4:4.13.90
 _ZTVN6Marble15CloudRouteModelE@Base 4:4.13.90
 _ZTVN6Marble15GeoDataDocumentE@Base 4:4.13.90
 _ZTVN6Marble15GeoDataGeometryE@Base 4:4.13.90
 _ZTVN6Marble15GeoDataItemIconE@Base 4:4.13.90
 _ZTVN6Marble15GeoDataLocationE@Base 4:4.13.90
 _ZTVN6Marble15GeoDataPlaylistE@Base 4:4.13.90
 _ZTVN6Marble15GeoDataSoundCueE@Base 4:4.13.90
 _ZTVN6Marble15GeoDataStyleMapE@Base 4:4.13.90
 _ZTVN6Marble15GeoDataTimeSpanE@Base 4:4.13.90
 _ZTVN6Marble15GeoGraphicsItemE@Base 4:4.13.90
 _ZTVN6Marble15GeoSceneGeodataE@Base 4:4.13.90
 _ZTVN6Marble15GeoSceneLicenseE@Base 4:4.13.90
 _ZTVN6Marble15GeoSceneSectionE@Base 4:4.13.90
 _ZTVN6Marble15LatLonBoxWidgetE@Base 4:4.13.90
 _ZTVN6Marble15MapThemeManagerE@Base 4:4.13.90
 _ZTVN6Marble15MarbleNavigatorE@Base 4:4.13.90
 _ZTVN6Marble15PluginInterfaceE@Base 4:4.13.90
 _ZTVN6Marble16CloudSyncManagerE@Base 4:4.13.90
 _ZTVN6Marble16GeoDataContainerE@Base 4:4.13.90
 _ZTVN6Marble16GeoDataIconStyleE@Base 4:4.13.90
 _ZTVN6Marble16GeoDataLatLonBoxE@Base 4:4.13.90
 _ZTVN6Marble16GeoDataLineStyleE@Base 4:4.13.90
 _ZTVN6Marble16GeoDataListStyleE@Base 4:4.13.90
 _ZTVN6Marble16GeoDataPlacemarkE@Base 4:4.13.90
 _ZTVN6Marble16GeoDataPolyStyleE@Base 4:4.13.90
 _ZTVN6Marble16GeoDataTimeStampE@Base 4:4.13.90
 _ZTVN6Marble16GeoDataTreeModelE@Base 4:4.13.90
 _ZTVN6Marble16GeoGraphicsSceneE@Base 4:4.13.90
 _ZTVN6Marble16GeoSceneDocumentE@Base 4:4.13.90
 _ZTVN6Marble16GeoScenePropertyE@Base 4:4.13.90
 _ZTVN6Marble16GeoSceneSettingsE@Base 4:4.13.90
 _ZTVN6Marble16MarbleControlBoxE@Base 4:4.13.90
 _ZTVN6Marble16NavigationWidgetE@Base 4:4.13.90
 _ZTVN6Marble16PositionTrackingE@Base 4:4.13.90
 _ZTVN6Marble16RouteSyncManagerE@Base 4:4.13.90
 _ZTVN6Marble16SunControlWidgetE@Base 4:4.13.90
 _ZTVN6Marble17AbstractFloatItemE@Base 4:4.13.90
 _ZTVN6Marble17FrameGraphicsItemE@Base 4:4.13.90
 _ZTVN6Marble17GeoDataColorStyleE@Base 4:4.13.90
 _ZTVN6Marble17GeoDataLabelStyleE@Base 4:4.13.90
 _ZTVN6Marble17GeoDataLatLonQuadE@Base 4:4.13.90
 _ZTVN6Marble17GeoDataLineStringE@Base 4:4.13.90
 _ZTVN6Marble17GeoDataLinearRingE@Base 4:4.13.90
 _ZTVN6Marble17GeoDataMultiTrackE@Base 4:4.13.90
 _ZTVN6Marble17GeoDataViewVolumeE@Base 4:4.13.90
 _ZTVN6Marble17LabelGraphicsItemE@Base 4:4.13.90
 _ZTVN6Marble17MarbleAboutDialogE@Base 4:4.13.90
 _ZTVN6Marble17ParseRunnerPluginE@Base 4:4.13.90
 _ZTVN6Marble17PluginAboutDialogE@Base 4:4.13.90
 _ZTVN6Marble17RenderPluginModelE@Base 4:4.13.90
 _ZTVN6Marble17SearchInputWidgetE@Base 4:4.13.90
 _ZTVN6Marble17TileCreatorDialogE@Base 4:4.13.90
 _ZTVN6Marble17TileCreatorSourceE@Base 4:4.13.90
 _ZTVN6Marble17TimeControlWidgetE@Base 4:4.13.90
 _ZTVN6Marble18AbstractDataPluginE@Base 4:4.13.90
 _ZTVN6Marble18AbstractProjectionE@Base 4:4.13.90
 _ZTVN6Marble18CacheStoragePolicyE@Base 4:4.13.90
 _ZTVN6Marble18EditBookmarkDialogE@Base 4:4.13.90
 _ZTVN6Marble18GeoDataCoordinatesE@Base 4:4.13.90
 _ZTVN6Marble18GeoDataNetworkLinkE@Base 4:4.13.90
 _ZTVN6Marble18GeoDataOrientationE@Base 4:4.13.90
 _ZTVN6Marble18GeoDataResourceMapE@Base 4:4.13.90
 _ZTVN6Marble18GeoDataSimpleFieldE@Base 4:4.13.90
 _ZTVN6Marble18GeoDataTourControlE@Base 4:4.13.90
 _ZTVN6Marble18MarbleGraphicsItemE@Base 4:4.13.90
 _ZTVN6Marble18MarbleInputHandlerE@Base 4:4.13.90
 _ZTVN6Marble18MovieCaptureDialogE@Base 4:4.13.90
 _ZTVN6Marble18PrintOptionsWidgetE@Base 4:4.13.90
 _ZTVN6Marble18ScreenGraphicsItemE@Base 4:4.13.90
 _ZTVN6Marble18SearchRunnerPluginE@Base 4:4.13.90
 _ZTVN6Marble18WidgetGraphicsItemE@Base 4:4.13.90
 _ZTVN6Marble19BookmarkSyncManagerE@Base 4:4.13.90
 _ZTVN6Marble19GeoDataAbstractViewE@Base 4:4.13.90
 _ZTVN6Marble19GeoDataBalloonStyleE@Base 4:4.13.90
 _ZTVN6Marble19GeoDataExtendedDataE@Base 4:4.13.90
 _ZTVN6Marble19GeoDataImagePyramidE@Base 4:4.13.90
 _ZTVN6Marble19GeoDataLatLonAltBoxE@Base 4:4.13.90
 _ZTVN6Marble19GeoDataPhotoOverlayE@Base 4:4.13.90
 _ZTVN6Marble19HttpDownloadManagerE@Base 4:4.13.90
 _ZTVN6Marble19MarbleLegendBrowserE@Base 4:4.13.90
 _ZTVN6Marble19RoutingRunnerPluginE@Base 4:4.13.90
 _ZTVN6Marble19SearchRunnerManagerE@Base 4:4.13.90
 _ZTVN6Marble20AbstractWorkerThreadE@Base 4:4.13.90
 _ZTVN6Marble20DownloadRegionDialogE@Base 4:4.13.90
 _ZTVN6Marble20ExternalEditorDialogE@Base 4:4.13.90
 _ZTVN6Marble20GeoDataGroundOverlayE@Base 4:4.13.90
 _ZTVN6Marble20GeoDataMultiGeometryE@Base 4:4.13.90
 _ZTVN6Marble20GeoDataScreenOverlayE@Base 4:4.13.90
 _ZTVN6Marble20GeoDataStyleSelectorE@Base 4:4.13.90
 _ZTVN6Marble20GeoDataTimePrimitiveE@Base 4:4.13.90
 _ZTVN6Marble20GeoDataTourPrimitiveE@Base 4:4.13.90
 _ZTVN6Marble20GeoPhotoGraphicsItemE@Base 4:4.13.90
 _ZTVN6Marble20GeoPointGraphicsItemE@Base 4:4.13.90
 _ZTVN6Marble20GeoTrackGraphicsItemE@Base 4:4.13.90
 _ZTVN6Marble20MarblePlacemarkModelE@Base 4:4.13.90
 _ZTVN6Marble20ParsingRunnerManagerE@Base 4:4.13.90
 _ZTVN6Marble20QtMarbleConfigDialogE@Base 4:4.13.90
 _ZTVN6Marble20RoutingProfilesModelE@Base 4:4.13.90
 _ZTVN6Marble20RoutingRunnerManagerE@Base 4:4.13.90
 _ZTVN6Marble20TileLevelRangeWidgetE@Base 4:4.13.90
 _ZTVN6Marble20VoiceNavigationModelE@Base 4:4.13.90
 _ZTVN6Marble21BillboardGraphicsItem7PrivateE@Base 4:4.13.90
 _ZTVN6Marble21BillboardGraphicsItemE@Base 4:4.13.90
 _ZTVN6Marble21BookmarkManagerDialogE@Base 4:4.13.90
 _ZTVN6Marble21CurrentLocationWidgetE@Base 4:4.13.90
 _ZTVN6Marble21GeoDataAnimatedUpdateE@Base 4:4.13.90
 _ZTVN6Marble21MarbleWidgetPopupMenuE@Base 4:4.13.90
 _ZTVN6Marble21RoutingProfilesWidgetE@Base 4:4.13.90
 _ZTVN6Marble22AbstractDataPluginItemE@Base 4:4.13.90
 _ZTVN6Marble22AlternativeRoutesModelE@Base 4:4.13.90
 _ZTVN6Marble22GeoDataSimpleArrayDataE@Base 4:4.13.90
 _ZTVN6Marble22GeoPolygonGraphicsItemE@Base 4:4.13.90
 _ZTVN6Marble22MapThemeDownloadDialogE@Base 4:4.13.90
 _ZTVN6Marble22PositionProviderPluginE@Base 4:4.13.90
 _ZTVN6Marble22ReverseGeocodingRunnerE@Base 4:4.13.90
 _ZTVN6Marble23AbstractDataPluginModelE@Base 4:4.13.90
 _ZTVN6Marble23GeoSceneAbstractDatasetE@Base 4:4.13.90
 _ZTVN6Marble23NewBookmarkFolderDialogE@Base 4:4.13.90
 _ZTVN6Marble24MarbleGraphicsGridLayoutE@Base 4:4.13.90
 _ZTVN6Marble25GeoDataNetworkLinkControlE@Base 4:4.13.90
 _ZTVN6Marble25GeoLineStringGraphicsItemE@Base 4:4.13.90
 _ZTVN6Marble25MarbleDefaultInputHandlerE@Base 4:4.13.90
 _ZTVN6Marble25ScreenOverlayGraphicsItemE@Base 4:4.13.90
 _ZTVN6Marble26MarblePluginSettingsWidgetE@Base 4:4.13.90
 _ZTVN6Marble28AbstractMarbleGraphicsLayoutE@Base 4:4.13.90
 _ZTVN6Marble28DialogConfigurationInterfaceE@Base 4:4.13.90
 _ZTVN6Marble28ReverseGeocodingRunnerPluginE@Base 4:4.13.90
 _ZTVN6Marble29ReverseGeocodingRunnerManagerE@Base 4:4.13.90
 _ZTVN6Marble31PositionProviderPluginInterfaceE@Base 4:4.13.90
 _ZTVN6Marble7GeoNodeE@Base 4:4.13.90
 _ZTVN6Marble7HttpJobE@Base 4:4.13.90
 _ZTVN6Marble9GeoParserE@Base 4:4.13.90
 _ZTVN6Marble9MapWizardE@Base 4:4.13.90
 _ZTVN6Marble9MarbleMap16CustomPaintLayerE@Base 4:4.13.90
 _ZTVN6Marble9MarbleMapE@Base 4:4.13.90
 _ZTVN6Marble9MergeItemE@Base 4:4.13.90
 _Zls6QDebugRKN6Marble10QuaternionE@Base 4:4.13.90
 (c++)"non-virtual thunk to Marble::AbstractDataPlugin::backendTypes() const@Base" 4:4.13.90
 (c++)"non-virtual thunk to Marble::AbstractDataPlugin::isInitialized() const@Base" 4:4.13.90
 (c++)"non-virtual thunk to Marble::AbstractDataPlugin::render(Marble::GeoPainter*, Marble::ViewportParams*, QString const&, Marble::GeoSceneLayer*)@Base" 4:4.13.90
 (c++)"non-virtual thunk to Marble::AbstractDataPlugin::renderPolicy() const@Base" 4:4.13.90
 (c++)"non-virtual thunk to Marble::AbstractDataPlugin::renderPosition() const@Base" 4:4.13.90
 (c++)"non-virtual thunk to Marble::AbstractDataPlugin::~AbstractDataPlugin()@Base" 4:4.13.90
 (c++)"non-virtual thunk to Marble::AbstractDataPluginItem::~AbstractDataPluginItem()@Base" 4:4.13.90
 (c++)"non-virtual thunk to Marble::AbstractFloatItem::eventFilter(QObject*, QEvent*)@Base" 4:4.13.90
 (c++)"non-virtual thunk to Marble::AbstractFloatItem::render(Marble::GeoPainter*, Marble::ViewportParams*, QString const&, Marble::GeoSceneLayer*)@Base" 4:4.13.90
 (c++)"non-virtual thunk to Marble::AbstractFloatItem::renderPolicy() const@Base" 4:4.13.90
 (c++)"non-virtual thunk to Marble::AbstractFloatItem::renderPosition() const@Base" 4:4.13.90
 (c++)"non-virtual thunk to Marble::AbstractFloatItem::~AbstractFloatItem()@Base" 4:4.13.90
 (c++)"non-virtual thunk to Marble::BookmarkManagerDialog::~BookmarkManagerDialog()@Base" 4:4.13.90
 (c++)"non-virtual thunk to Marble::ConflictDialog::~ConflictDialog()@Base" 4:4.13.90
 (c++)"non-virtual thunk to Marble::CurrentLocationWidget::~CurrentLocationWidget()@Base" 4:4.13.90
 (c++)"non-virtual thunk to Marble::DownloadRegionDialog::~DownloadRegionDialog()@Base" 4:4.13.90
 (c++)"non-virtual thunk to Marble::EditBookmarkDialog::~EditBookmarkDialog()@Base" 4:4.13.90
 (c++)"non-virtual thunk to Marble::ExternalEditorDialog::~ExternalEditorDialog()@Base" 4:4.13.90
 (c++)"non-virtual thunk to Marble::FileViewWidget::~FileViewWidget()@Base" 4:4.13.90
 (c++)"non-virtual thunk to Marble::GeoDataAbstractView::~GeoDataAbstractView()@Base" 4:4.13.90
 (c++)"non-virtual thunk to Marble::GeoDataAnimatedUpdate::~GeoDataAnimatedUpdate()@Base" 4:4.13.90
 (c++)"non-virtual thunk to Marble::GeoDataBalloonStyle::pack(QDataStream&) const@Base" 4:4.13.90
 (c++)"non-virtual thunk to Marble::GeoDataBalloonStyle::unpack(QDataStream&)@Base" 4:4.13.90
 (c++)"non-virtual thunk to Marble::GeoDataBalloonStyle::~GeoDataBalloonStyle()@Base" 4:4.13.90
 (c++)"non-virtual thunk to Marble::GeoDataCamera::~GeoDataCamera()@Base" 4:4.13.90
 (c++)"non-virtual thunk to Marble::GeoDataChange::~GeoDataChange()@Base" 4:4.13.90
 (c++)"non-virtual thunk to Marble::GeoDataColorStyle::pack(QDataStream&) const@Base" 4:4.13.90
 (c++)"non-virtual thunk to Marble::GeoDataColorStyle::unpack(QDataStream&)@Base" 4:4.13.90
 (c++)"non-virtual thunk to Marble::GeoDataColorStyle::~GeoDataColorStyle()@Base" 4:4.13.90
 (c++)"non-virtual thunk to Marble::GeoDataContainer::pack(QDataStream&) const@Base" 4:4.13.90
 (c++)"non-virtual thunk to Marble::GeoDataContainer::unpack(QDataStream&)@Base" 4:4.13.90
 (c++)"non-virtual thunk to Marble::GeoDataContainer::~GeoDataContainer()@Base" 4:4.13.90
 (c++)"non-virtual thunk to Marble::GeoDataCreate::~GeoDataCreate()@Base" 4:4.13.90
 (c++)"non-virtual thunk to Marble::GeoDataData::pack(QDataStream&) const@Base" 4:4.13.90
 (c++)"non-virtual thunk to Marble::GeoDataData::unpack(QDataStream&)@Base" 4:4.13.90
 (c++)"non-virtual thunk to Marble::GeoDataData::~GeoDataData()@Base" 4:4.13.90
 (c++)"non-virtual thunk to Marble::GeoDataDelete::~GeoDataDelete()@Base" 4:4.13.90
 (c++)"non-virtual thunk to Marble::GeoDataDocument::pack(QDataStream&) const@Base" 4:4.13.90
 (c++)"non-virtual thunk to Marble::GeoDataDocument::unpack(QDataStream&)@Base" 4:4.13.90
 (c++)"non-virtual thunk to Marble::GeoDataDocument::~GeoDataDocument()@Base" 4:4.13.90
 (c++)"non-virtual thunk to Marble::GeoDataExtendedData::pack(QDataStream&) const@Base" 4:4.13.90
 (c++)"non-virtual thunk to Marble::GeoDataExtendedData::unpack(QDataStream&)@Base" 4:4.13.90
 (c++)"non-virtual thunk to Marble::GeoDataExtendedData::~GeoDataExtendedData()@Base" 4:4.13.90
 (c++)"non-virtual thunk to Marble::GeoDataFeature::pack(QDataStream&) const@Base" 4:4.13.90
 (c++)"non-virtual thunk to Marble::GeoDataFeature::unpack(QDataStream&)@Base" 4:4.13.90
 (c++)"non-virtual thunk to Marble::GeoDataFeature::~GeoDataFeature()@Base" 4:4.13.90
 (c++)"non-virtual thunk to Marble::GeoDataFlyTo::~GeoDataFlyTo()@Base" 4:4.13.90
 (c++)"non-virtual thunk to Marble::GeoDataFolder::~GeoDataFolder()@Base" 4:4.13.90
 (c++)"non-virtual thunk to Marble::GeoDataGeometry::pack(QDataStream&) const@Base" 4:4.13.90
 (c++)"non-virtual thunk to Marble::GeoDataGeometry::unpack(QDataStream&)@Base" 4:4.13.90
 (c++)"non-virtual thunk to Marble::GeoDataGeometry::~GeoDataGeometry()@Base" 4:4.13.90
 (c++)"non-virtual thunk to Marble::GeoDataGroundOverlay::~GeoDataGroundOverlay()@Base" 4:4.13.90
 (c++)"non-virtual thunk to Marble::GeoDataHotSpot::pack(QDataStream&) const@Base" 4:4.13.90
 (c++)"non-virtual thunk to Marble::GeoDataHotSpot::unpack(QDataStream&)@Base" 4:4.13.90
 (c++)"non-virtual thunk to Marble::GeoDataHotSpot::~GeoDataHotSpot()@Base" 4:4.13.90
 (c++)"non-virtual thunk to Marble::GeoDataIconStyle::pack(QDataStream&) const@Base" 4:4.13.90
 (c++)"non-virtual thunk to Marble::GeoDataIconStyle::unpack(QDataStream&)@Base" 4:4.13.90
 (c++)"non-virtual thunk to Marble::GeoDataIconStyle::~GeoDataIconStyle()@Base" 4:4.13.90
 (c++)"non-virtual thunk to Marble::GeoDataImagePyramid::~GeoDataImagePyramid()@Base" 4:4.13.90
 (c++)"non-virtual thunk to Marble::GeoDataItemIcon::~GeoDataItemIcon()@Base" 4:4.13.90
 (c++)"non-virtual thunk to Marble::GeoDataLabelStyle::pack(QDataStream&) const@Base" 4:4.13.90
 (c++)"non-virtual thunk to Marble::GeoDataLabelStyle::unpack(QDataStream&)@Base" 4:4.13.90
 (c++)"non-virtual thunk to Marble::GeoDataLabelStyle::~GeoDataLabelStyle()@Base" 4:4.13.90
 (c++)"non-virtual thunk to Marble::GeoDataLatLonAltBox::pack(QDataStream&) const@Base" 4:4.13.90
 (c++)"non-virtual thunk to Marble::GeoDataLatLonAltBox::unpack(QDataStream&)@Base" 4:4.13.90
 (c++)"non-virtual thunk to Marble::GeoDataLatLonAltBox::~GeoDataLatLonAltBox()@Base" 4:4.13.90
 (c++)"non-virtual thunk to Marble::GeoDataLatLonBox::pack(QDataStream&) const@Base" 4:4.13.90
 (c++)"non-virtual thunk to Marble::GeoDataLatLonBox::unpack(QDataStream&)@Base" 4:4.13.90
 (c++)"non-virtual thunk to Marble::GeoDataLatLonBox::~GeoDataLatLonBox()@Base" 4:4.13.90
 (c++)"non-virtual thunk to Marble::GeoDataLatLonQuad::~GeoDataLatLonQuad()@Base" 4:4.13.90
 (c++)"non-virtual thunk to Marble::GeoDataLineString::pack(QDataStream&) const@Base" 4:4.13.90
 (c++)"non-virtual thunk to Marble::GeoDataLineString::unpack(QDataStream&)@Base" 4:4.13.90
 (c++)"non-virtual thunk to Marble::GeoDataLineString::~GeoDataLineString()@Base" 4:4.13.90
 (c++)"non-virtual thunk to Marble::GeoDataLineStyle::pack(QDataStream&) const@Base" 4:4.13.90
 (c++)"non-virtual thunk to Marble::GeoDataLineStyle::unpack(QDataStream&)@Base" 4:4.13.90
 (c++)"non-virtual thunk to Marble::GeoDataLineStyle::~GeoDataLineStyle()@Base" 4:4.13.90
 (c++)"non-virtual thunk to Marble::GeoDataLinearRing::~GeoDataLinearRing()@Base" 4:4.13.90
 (c++)"non-virtual thunk to Marble::GeoDataLink::~GeoDataLink()@Base" 4:4.13.90
 (c++)"non-virtual thunk to Marble::GeoDataListStyle::pack(QDataStream&) const@Base" 4:4.13.90
 (c++)"non-virtual thunk to Marble::GeoDataListStyle::unpack(QDataStream&)@Base" 4:4.13.90
 (c++)"non-virtual thunk to Marble::GeoDataListStyle::~GeoDataListStyle()@Base" 4:4.13.90
 (c++)"non-virtual thunk to Marble::GeoDataLocation::~GeoDataLocation()@Base" 4:4.13.90
 (c++)"non-virtual thunk to Marble::GeoDataLod::pack(QDataStream&) const@Base" 4:4.13.90
 (c++)"non-virtual thunk to Marble::GeoDataLod::unpack(QDataStream&)@Base" 4:4.13.90
 (c++)"non-virtual thunk to Marble::GeoDataLod::~GeoDataLod()@Base" 4:4.13.90
 (c++)"non-virtual thunk to Marble::GeoDataLookAt::~GeoDataLookAt()@Base" 4:4.13.90
 (c++)"non-virtual thunk to Marble::GeoDataModel::~GeoDataModel()@Base" 4:4.13.90
 (c++)"non-virtual thunk to Marble::GeoDataMultiGeometry::pack(QDataStream&) const@Base" 4:4.13.90
 (c++)"non-virtual thunk to Marble::GeoDataMultiGeometry::unpack(QDataStream&)@Base" 4:4.13.90
 (c++)"non-virtual thunk to Marble::GeoDataMultiGeometry::~GeoDataMultiGeometry()@Base" 4:4.13.90
 (c++)"non-virtual thunk to Marble::GeoDataMultiTrack::pack(QDataStream&) const@Base" 4:4.13.90
 (c++)"non-virtual thunk to Marble::GeoDataMultiTrack::unpack(QDataStream&)@Base" 4:4.13.90
 (c++)"non-virtual thunk to Marble::GeoDataMultiTrack::~GeoDataMultiTrack()@Base" 4:4.13.90
 (c++)"non-virtual thunk to Marble::GeoDataNetworkLink::~GeoDataNetworkLink()@Base" 4:4.13.90
 (c++)"non-virtual thunk to Marble::GeoDataNetworkLinkControl::~GeoDataNetworkLinkControl()@Base" 4:4.13.90
 (c++)"non-virtual thunk to Marble::GeoDataObject::pack(QDataStream&) const@Base" 4:4.13.90
 (c++)"non-virtual thunk to Marble::GeoDataObject::unpack(QDataStream&)@Base" 4:4.13.90
 (c++)"non-virtual thunk to Marble::GeoDataObject::~GeoDataObject()@Base" 4:4.13.90
 (c++)"non-virtual thunk to Marble::GeoDataOrientation::~GeoDataOrientation()@Base" 4:4.13.90
 (c++)"non-virtual thunk to Marble::GeoDataOverlay::~GeoDataOverlay()@Base" 4:4.13.90
 (c++)"non-virtual thunk to Marble::GeoDataPhotoOverlay::~GeoDataPhotoOverlay()@Base" 4:4.13.90
 (c++)"non-virtual thunk to Marble::GeoDataPlacemark::pack(QDataStream&) const@Base" 4:4.13.90
 (c++)"non-virtual thunk to Marble::GeoDataPlacemark::unpack(QDataStream&)@Base" 4:4.13.90
 (c++)"non-virtual thunk to Marble::GeoDataPlacemark::~GeoDataPlacemark()@Base" 4:4.13.90
 (c++)"non-virtual thunk to Marble::GeoDataPlaylist::~GeoDataPlaylist()@Base" 4:4.13.90
 (c++)"non-virtual thunk to Marble::GeoDataPoint::pack(QDataStream&) const@Base" 4:4.13.90
 (c++)"non-virtual thunk to Marble::GeoDataPoint::unpack(QDataStream&)@Base" 4:4.13.90
 (c++)"non-virtual thunk to Marble::GeoDataPoint::~GeoDataPoint()@Base" 4:4.13.90
 (c++)"non-virtual thunk to Marble::GeoDataPolyStyle::pack(QDataStream&) const@Base" 4:4.13.90
 (c++)"non-virtual thunk to Marble::GeoDataPolyStyle::unpack(QDataStream&)@Base" 4:4.13.90
 (c++)"non-virtual thunk to Marble::GeoDataPolyStyle::~GeoDataPolyStyle()@Base" 4:4.13.90
 (c++)"non-virtual thunk to Marble::GeoDataPolygon::pack(QDataStream&) const@Base" 4:4.13.90
 (c++)"non-virtual thunk to Marble::GeoDataPolygon::unpack(QDataStream&)@Base" 4:4.13.90
 (c++)"non-virtual thunk to Marble::GeoDataPolygon::~GeoDataPolygon()@Base" 4:4.13.90
 (c++)"non-virtual thunk to Marble::GeoDataRegion::pack(QDataStream&) const@Base" 4:4.13.90
 (c++)"non-virtual thunk to Marble::GeoDataRegion::unpack(QDataStream&)@Base" 4:4.13.90
 (c++)"non-virtual thunk to Marble::GeoDataRegion::~GeoDataRegion()@Base" 4:4.13.90
 (c++)"non-virtual thunk to Marble::GeoDataScale::~GeoDataScale()@Base" 4:4.13.90
 (c++)"non-virtual thunk to Marble::GeoDataSchema::pack(QDataStream&) const@Base" 4:4.13.90
 (c++)"non-virtual thunk to Marble::GeoDataSchema::unpack(QDataStream&)@Base" 4:4.13.90
 (c++)"non-virtual thunk to Marble::GeoDataSchema::~GeoDataSchema()@Base" 4:4.13.90
 (c++)"non-virtual thunk to Marble::GeoDataScreenOverlay::~GeoDataScreenOverlay()@Base" 4:4.13.90
 (c++)"non-virtual thunk to Marble::GeoDataSimpleArrayData::pack(QDataStream&) const@Base" 4:4.13.90
 (c++)"non-virtual thunk to Marble::GeoDataSimpleArrayData::unpack(QDataStream&)@Base" 4:4.13.90
 (c++)"non-virtual thunk to Marble::GeoDataSimpleArrayData::~GeoDataSimpleArrayData()@Base" 4:4.13.90
 (c++)"non-virtual thunk to Marble::GeoDataSoundCue::~GeoDataSoundCue()@Base" 4:4.13.90
 (c++)"non-virtual thunk to Marble::GeoDataStyle::pack(QDataStream&) const@Base" 4:4.13.90
 (c++)"non-virtual thunk to Marble::GeoDataStyle::unpack(QDataStream&)@Base" 4:4.13.90
 (c++)"non-virtual thunk to Marble::GeoDataStyle::~GeoDataStyle()@Base" 4:4.13.90
 (c++)"non-virtual thunk to Marble::GeoDataStyleMap::pack(QDataStream&) const@Base" 4:4.13.90
 (c++)"non-virtual thunk to Marble::GeoDataStyleMap::unpack(QDataStream&)@Base" 4:4.13.90
 (c++)"non-virtual thunk to Marble::GeoDataStyleMap::~GeoDataStyleMap()@Base" 4:4.13.90
 (c++)"non-virtual thunk to Marble::GeoDataStyleSelector::pack(QDataStream&) const@Base" 4:4.13.90
 (c++)"non-virtual thunk to Marble::GeoDataStyleSelector::unpack(QDataStream&)@Base" 4:4.13.90
 (c++)"non-virtual thunk to Marble::GeoDataStyleSelector::~GeoDataStyleSelector()@Base" 4:4.13.90
 (c++)"non-virtual thunk to Marble::GeoDataTimePrimitive::pack(QDataStream&) const@Base" 4:4.13.90
 (c++)"non-virtual thunk to Marble::GeoDataTimePrimitive::unpack(QDataStream&)@Base" 4:4.13.90
 (c++)"non-virtual thunk to Marble::GeoDataTimePrimitive::~GeoDataTimePrimitive()@Base" 4:4.13.90
 (c++)"non-virtual thunk to Marble::GeoDataTimeSpan::pack(QDataStream&) const@Base" 4:4.13.90
 (c++)"non-virtual thunk to Marble::GeoDataTimeSpan::unpack(QDataStream&)@Base" 4:4.13.90
 (c++)"non-virtual thunk to Marble::GeoDataTimeSpan::~GeoDataTimeSpan()@Base" 4:4.13.90
 (c++)"non-virtual thunk to Marble::GeoDataTimeStamp::pack(QDataStream&) const@Base" 4:4.13.90
 (c++)"non-virtual thunk to Marble::GeoDataTimeStamp::unpack(QDataStream&)@Base" 4:4.13.90
 (c++)"non-virtual thunk to Marble::GeoDataTimeStamp::~GeoDataTimeStamp()@Base" 4:4.13.90
 (c++)"non-virtual thunk to Marble::GeoDataTour::~GeoDataTour()@Base" 4:4.13.90
 (c++)"non-virtual thunk to Marble::GeoDataTourControl::~GeoDataTourControl()@Base" 4:4.13.90
 (c++)"non-virtual thunk to Marble::GeoDataTrack::pack(QDataStream&) const@Base" 4:4.13.90
 (c++)"non-virtual thunk to Marble::GeoDataTrack::unpack(QDataStream&)@Base" 4:4.13.90
 (c++)"non-virtual thunk to Marble::GeoDataTrack::~GeoDataTrack()@Base" 4:4.13.90
 (c++)"non-virtual thunk to Marble::GeoDataUpdate::~GeoDataUpdate()@Base" 4:4.13.90
 (c++)"non-virtual thunk to Marble::GeoDataViewVolume::~GeoDataViewVolume()@Base" 4:4.13.90
 (c++)"non-virtual thunk to Marble::GeoDataWait::~GeoDataWait()@Base" 4:4.13.90
 (c++)"non-virtual thunk to Marble::GeoSceneDocument::nodeType() const@Base" 4:4.13.90
 (c++)"non-virtual thunk to Marble::GeoSceneDocument::~GeoSceneDocument()@Base" 4:4.13.90
 (c++)"non-virtual thunk to Marble::GeoSceneProperty::nodeType() const@Base" 4:4.13.90
 (c++)"non-virtual thunk to Marble::GeoSceneProperty::~GeoSceneProperty()@Base" 4:4.13.90
 (c++)"non-virtual thunk to Marble::GeoSceneSettings::nodeType() const@Base" 4:4.13.90
 (c++)"non-virtual thunk to Marble::GeoSceneSettings::~GeoSceneSettings()@Base" 4:4.13.90
 (c++)"non-virtual thunk to Marble::GoToDialog::~GoToDialog()@Base" 4:4.13.90
 (c++)"non-virtual thunk to Marble::LatLonBoxWidget::~LatLonBoxWidget()@Base" 4:4.13.90
 (c++)"non-virtual thunk to Marble::LatLonEdit::~LatLonEdit()@Base" 4:4.13.90
 (c++)"non-virtual thunk to Marble::LegendWidget::~LegendWidget()@Base" 4:4.13.90
 (c++)"non-virtual thunk to Marble::MapThemeDownloadDialog::~MapThemeDownloadDialog()@Base" 4:4.13.90
 (c++)"non-virtual thunk to Marble::MapViewWidget::~MapViewWidget()@Base" 4:4.13.90
 (c++)"non-virtual thunk to Marble::MapWizard::~MapWizard()@Base" 4:4.13.90
 (c++)"non-virtual thunk to Marble::MarbleAboutDialog::~MarbleAboutDialog()@Base" 4:4.13.90
 (c++)"non-virtual thunk to Marble::MarbleControlBox::~MarbleControlBox()@Base" 4:4.13.90
 (c++)"non-virtual thunk to Marble::MarbleLegendBrowser::~MarbleLegendBrowser()@Base" 4:4.13.90
 (c++)"non-virtual thunk to Marble::MarbleLineEdit::~MarbleLineEdit()@Base" 4:4.13.90
 (c++)"non-virtual thunk to Marble::MarbleNavigator::~MarbleNavigator()@Base" 4:4.13.90
 (c++)"non-virtual thunk to Marble::MarblePluginSettingsWidget::~MarblePluginSettingsWidget()@Base" 4:4.13.90
 (c++)"non-virtual thunk to Marble::MarbleWidget::~MarbleWidget()@Base" 4:4.13.90
 (c++)"non-virtual thunk to Marble::MovieCaptureDialog::~MovieCaptureDialog()@Base" 4:4.13.90
 (c++)"non-virtual thunk to Marble::NavigationWidget::~NavigationWidget()@Base" 4:4.13.90
 (c++)"non-virtual thunk to Marble::NewBookmarkFolderDialog::~NewBookmarkFolderDialog()@Base" 4:4.13.90
 (c++)"non-virtual thunk to Marble::ParseRunnerPlugin::icon() const@Base" 4:4.13.90
 (c++)"non-virtual thunk to Marble::ParseRunnerPlugin::~ParseRunnerPlugin()@Base" 4:4.13.90
 (c++)"non-virtual thunk to Marble::PluginAboutDialog::~PluginAboutDialog()@Base" 4:4.13.90
 (c++)"non-virtual thunk to Marble::PopupLayer::render(Marble::GeoPainter*, Marble::ViewportParams*, QString const&, Marble::GeoSceneLayer*)@Base" 4:4.13.90
 (c++)"non-virtual thunk to Marble::PopupLayer::renderPosition() const@Base" 4:4.13.90
 (c++)"non-virtual thunk to Marble::PopupLayer::renderState() const@Base" 4:4.13.90
 (c++)"non-virtual thunk to Marble::PopupLayer::zValue() const@Base" 4:4.13.90
 (c++)"non-virtual thunk to Marble::PopupLayer::~PopupLayer()@Base" 4:4.13.90
 (c++)"non-virtual thunk to Marble::PositionProviderPlugin::~PositionProviderPlugin()@Base" 4:4.13.90
 (c++)"non-virtual thunk to Marble::PrintOptionsWidget::~PrintOptionsWidget()@Base" 4:4.13.90
 (c++)"non-virtual thunk to Marble::QtMarbleConfigDialog::~QtMarbleConfigDialog()@Base" 4:4.13.90
 (c++)"non-virtual thunk to Marble::RenderPlugin::renderState() const@Base" 4:4.13.90
 (c++)"non-virtual thunk to Marble::RenderPlugin::runtimeTrace() const@Base" 4:4.13.90
 (c++)"non-virtual thunk to Marble::RenderPlugin::~RenderPlugin()@Base" 4:4.13.90
 (c++)"non-virtual thunk to Marble::ReverseGeocodingRunnerPlugin::icon() const@Base" 4:4.13.90
 (c++)"non-virtual thunk to Marble::ReverseGeocodingRunnerPlugin::~ReverseGeocodingRunnerPlugin()@Base" 4:4.13.90
 (c++)"non-virtual thunk to Marble::RoutingProfilesWidget::~RoutingProfilesWidget()@Base" 4:4.13.90
 (c++)"non-virtual thunk to Marble::RoutingRunnerPlugin::icon() const@Base" 4:4.13.90
 (c++)"non-virtual thunk to Marble::RoutingRunnerPlugin::~RoutingRunnerPlugin()@Base" 4:4.13.90
 (c++)"non-virtual thunk to Marble::RoutingWidget::~RoutingWidget()@Base" 4:4.13.90
 (c++)"non-virtual thunk to Marble::SearchInputWidget::~SearchInputWidget()@Base" 4:4.13.90
 (c++)"non-virtual thunk to Marble::SearchRunnerPlugin::icon() const@Base" 4:4.13.90
 (c++)"non-virtual thunk to Marble::SearchRunnerPlugin::~SearchRunnerPlugin()@Base" 4:4.13.90
 (c++)"non-virtual thunk to Marble::SearchWidget::~SearchWidget()@Base" 4:4.13.90
 (c++)"non-virtual thunk to Marble::SunControlWidget::~SunControlWidget()@Base" 4:4.13.90
 (c++)"non-virtual thunk to Marble::TextureLayer::render(Marble::GeoPainter*, Marble::ViewportParams*, QString const&, Marble::GeoSceneLayer*)@Base" 4:4.13.90
 (c++)"non-virtual thunk to Marble::TextureLayer::renderPosition() const@Base" 4:4.13.90
 (c++)"non-virtual thunk to Marble::TextureLayer::renderState() const@Base" 4:4.13.90
 (c++)"non-virtual thunk to Marble::TextureLayer::runtimeTrace() const@Base" 4:4.13.90
 (c++)"non-virtual thunk to Marble::TextureLayer::~TextureLayer()@Base" 4:4.13.90
 (c++)"non-virtual thunk to Marble::TileCreatorDialog::~TileCreatorDialog()@Base" 4:4.13.90
 (c++)"non-virtual thunk to Marble::TileLevelRangeWidget::~TileLevelRangeWidget()@Base" 4:4.13.90
 (c++)"non-virtual thunk to Marble::TimeControlWidget::~TimeControlWidget()@Base" 4:4.13.90
 (c++)"non-virtual thunk to Marble::TinyWebBrowser::~TinyWebBrowser()@Base" 4:4.13.90
 (c++)"non-virtual thunk to Marble::TourWidget::~TourWidget()@Base" 4:4.13.90
 (c++)"non-virtual thunk to MarbleWebView::~MarbleWebView()@Base" 4:4.13.90
